	                            .include "src/def.asm"
	                            FDS_Concrete = $01
	                            FDS_Ouch     = $02
	                            FDS_Lucky    = $04
	                            FDS_Stop     = $08
	                            FDS_Select   = $10
	                            FDS_1KPoints = $20
	                            FDS_DirForce = $40
	                            
	                            DPCM_Bumper      = $01
	                            DPCM_MarbleBreak = $02
	                            
	                            Noise_Wood  = $01
	                            Noise_Lodge = $02
	                            
	                            Music1_Title           = $01
	                            Music1_Menu            = $02
	                            Music1_LevelClear      = $04
	                            Music1_NumberMiss      = $08
	                            Music1_FinalTrial      = $10
	                            Music1_Congratulations = $20
	                            Music1_GameOver        = $40
	                            Music1_TheWarmUpIsOver = $80
	                            
	                            Music2_CourseSelect    = $01
	                            Music2_Tutorial        = $02
	                            Music2_TurnAndTry      = $04
	                            Music2_ConcreteJungle  = $08
	                            Music2_SuperSonicBreak = $10
	                            Music2_LuckySlot       = $20
	                            Music2_VisionaryCastle = $40
	                            Music2_MountainRoad    = $80
	                            
	                            Music3_CountDown   = $01
	                            Music3_NumberMatch = $02
	                            Music3_HurryUp     = $04
	                            Music3_Stop        = $08
	                            
	                            C_ = 1
	                            C# = 2
	                            D_ = 3
	                            D# = 4
	                            E_ = 5
	                            F_ = 6
	                            F# = 7
	                            G_ = 8
	                            G# = 9
	                            A_ = 10
	                            A# = 11
	                            B_ = 12
	                            TIE_VALUE = 13
	                            OCTAVE_MASK = %01110000
	                            NOTE_MASK = %00001111
	                            NES_TAIL_INSTRUMENTS = $15
	                            NUM_FDS_ARP_SNARES = $06
	                            FDS_TAIL_INSTRUMENTS = $12
	                            
	                            NOTE_LENGTH_CMD = $80
	                            PITCH_BEND_CMD  = $a0
	                            INSTRUMENT_CMD  = $c0
	                            FADE_CTRL_CMD   = $e0
	                            SOUND_RET_CMD   = $ff
	                            
	                            DPCM_ID_CMD = $a0
	                            
	                            LOOP_CMD   = $e1
	                            TUNING_CMD = $e2
	                            
	                            DR0 = $00
	                            DR1 = $20
	                            DR2 = $40
	                            DR3 = $60
	                            
	                            M1   = $00
	                            M1_5 = $08
	                            M3   = $10
	                            M4_5 = M1_5 | M3
	                            
	                            S64 = $00
	                            S32 = $01
	                            S16 = $02
	                            S8  = $03
	                            S4  = $04
	                            S2  = $05
	                            S1  = $06
	                            S0_5 = $07
	                            
	                            F_OUT = $00
	                            F_IN  = $10
	                            .include "src/ram.asm"
	                            ; ZERO PAGE
	                            .enum $0000
00000                           zMusicPatternPointers:
00000                           	.dsb 2 ; 0000
00002                           	.dsb 2
00004                           	.dsb 2 ; 0004
00006                           	.dsb 2
00008                           	.dsb 2 ; 0008
0000A                           	.dsb 2
0000C                           zMusicDataPointers:
0000C                           	.dsb 2 ; 000c
0000E                           	.dsb 2
00010                           	.dsb 2 ; 0010
00012                           	.dsb 2
00014                           	.dsb 2 ; 0014
00016                           	.dsb 2
00018                           zMusicLoopPointers:
00018                           	.dsb 2 ; 0018
0001A                           	.dsb 2
0001C                           	.dsb 2 ; 001c
0001E                           	.dsb 2
00020                           	.dsb 2 ; 0020
00022                           	.dsb 2
00024                           zCurrentPitch:
00024                           	.dsb 2 ; 0024
00026                           	.dsb 2
00028                           	.dsb 2 ; 0028
0002A                           zCurrent2C33Pitch:
0002A                           	.dsb 2
0002C                           zTargetPitch:
0002C                           	.dsb 2 ; 002c
0002E                           	.dsb 2
00030                           	.dsb 2 ; 0030
00032                           zTarget2C33Pitch:
00032                           	.dsb 2
00034                           zInstrumentPointer:
00034                           	.dsb 2 ; 0034
00036                           zVibratoPointer:
00036                           	.dsb 2
00038                           	.dsb 2 ; 0038
0003A                           	.dsb 2
0003C                           zPitchSlideAmmount:
0003C                           	.dsb 2 ; 003c
0003E                           zCurrentVibratoPointer:
0003E                           zWavetablePointer:
0003E                           zModTablePointer:
0003E                           zFDSSFXPoitner:
0003E                           	.dsb 2
00040                           	.dsb $c0
00100                           ; STACK
00100                           iStack:
00100                           iStackBottom:
00100                           	.dsb $ff ; 0100
001FF                           iStackTop:
001FF                           	.dsb 1
00200                           ; ABS
00200                           	.dsb $100
00300                           	.dsb $100
00400                           	.dsb $100
00500                           	.dsb $100
00600                           iMusic1:
00600                           	.dsb 1 ; 0600
00601                           iMusic2:
00601                           	.dsb 1
00602                           iMusic3:
00602                           	.dsb 1
00603                           iFDSSFX:
00603                           	.dsb 1
00604                           iDPCMSFX:
00604                           	.dsb 1 ; 0604
00605                           iNoiseSFX:
00605                           	.dsb 1
00606                           iCurrentMusic1:
00606                           	.dsb 1
00607                           iCurrentMusic2:
00607                           	.dsb 1
00608                           iCurrentMusic3:
00608                           	.dsb 1 ; 0608
00609                           iCurrentFDSSFX:
00609                           	.dsb 1
0060A                           iCurrentDPCMSFX:
0060A                           	.dsb 1
0060B                           iCurrentNoiseSFX:
0060B                           	.dsb 1
0060C                           iMusicStack:
0060C                           	.dsb 1 ; 060c
0060D                           iCurrentChannel:
0060D                           	.dsb 1
0060E                           iMusicOffset:
0060E                           	.dsb 1
0060F                           iMusicTempo:
0060F                           	.dsb 1
00610                           ; note lengths
00610                           ; +0: Actual length in frames
00610                           ; +1: Subframes in units of 16, OR'd with high four bits
00610                           ; Subframe mask: %11110000
00610                           ; Hi Frame mask: %00001111
00610                           iMusicNoteLengths:
00610                           iMusicPulse1NoteLength:
00610                           	.dsb 2 ; 0610
00612                           iMusicPulse2NoteLength:
00612                           	.dsb 2
00614                           iMusicHillNoteLength:
00614                           	.dsb 2 ; 0614
00616                           iMusicNoiseNoteLength:
00616                           	.dsb 2
00618                           iDPCMNoteLengthCounter:
00618                           	.dsb 2 ; 0618
0061A                           iMusic2C33NoteLength:
0061A                           	.dsb 2
0061C                           ; 0: Pulse 1
0061C                           ; 1: Pulse 2
0061C                           ; 2: Hill
0061C                           ; 3: 2C33
0061C                           iOctaves:
0061C                           	.dsb 4 ; 061c
00620                           iEncodedNoteLengths:
00620                           	.dsb 1 ; 0620
00621                           	.dsb 1
00622                           	.dsb 1
00623                           	.dsb 1
00624                           	.dsb 1 ; 0624
00625                           	.dsb 1
00626                           iNoteLengthRatios:
00626                           	.dsb 1
00627                           	.dsb 1
00628                           	.dsb 1 ; 0628
00629                           	.dsb 1
0062A                           	.dsb 1
0062B                           	.dsb 1
0062C                           iSoundMathBuffer:
0062C                           	.dsb 1 ; 062c
0062D                           iCurrentNoisePitch:
0062D                           	.dsb 1
0062E                           iCurrentDPCMPitch:
0062E                           	.dsb 1
0062F                           iSFXNoiseOffset:
0062F                           	.dsb 1
00630                           iSFXNoisePitch:
00630                           	.dsb 1 ; 0630
00631                           iSFX2C33Offset:
00631                           	.dsb 1
00632                           iSFX2C33PointerOffset:
00632                           	.dsb 1
00633                           iSFX2C33DataOffset:
00633                           	.dsb 1
00634                           iInstrument:
00634                           	.dsb 1 ; 0634
00635                           	.dsb 1
00636                           	.dsb 1
00637                           iFDSInstrument:
00637                           	.dsb 1
00638                           iInstrumentOffset:
00638                           	.dsb 1 ; 0638
00639                           	.dsb 1
0063A                           iFDSInstrumentOffset:
0063A                           	.dsb 1
0063B                           iVibratoOffset:
0063B                           	.dsb 1
0063C                           	.dsb 1 ; 063c
0063D                           	.dsb 1
0063E                           iInstrumentFade:
0063E                           	.dsb 1
0063F                           	.dsb 1
00640                           iFDSInstrumentFade:
00640                           	.dsb 1 ; 0640
00641                           iFadeCounter:
00641                           	.dsb 1
00642                           	.dsb 1
00643                           iFDSFadeCounter:
00643                           	.dsb 1
00644                           iPitchSlideIncrementation:
00644                           	.dsb 1 ; 0644
00645                           	.dsb 1
00646                           	.dsb 1
00647                           	.dsb 1
00648                           iRestingTail: ; MUST BE ZERO FOR TIES TO WORK PROPERLY
00648                           	.dsb 1 ; 0648
00649                           	.dsb 1
0064A                           	.dsb 1
0064B                           	.dsb 1
0064C                           iFadeOffset:
0064C                           	.dsb 1 ; 064c
0064D                           	.dsb 1
0064E                           iFDSFadeOffset:
0064E                           	.dsb 1
0064F                           iNoiseID:
0064F                           	.dsb 1
00650                           iFDSModRate:
00650                           	.dsb 1 ; 0650
00651                           iFDSModDepth:
00651                           	.dsb 1
00652                           iFDSArpPitch:
00652                           iFDSSFXPitch:
00652                           	.dsb 2
00654                           iTargetPitch:
00654                           	.dsb 2 ; 0654
00656                           	.dsb 2
00658                           	.dsb 2 ; 0658
0065A                           iTarget2C33Pitch:
0065A                           	.dsb 2
0065C                           iTuning:
0065C                           	.dsb 3 ; 065c
0065F                           iFDSTuning:
0065F                           	.dsb 1
00660                           	.dsb $a0
00700                           	.dsb $100
00800                           .ende
	                            
	                            ;
	                            ; PPU registers
	                            ; $2000-$2007
	                            ;
	                            .enum $2000
02000                           rPPUCTRL:
02000                           	.dsb 1
02001                           rPPUMASK:
02001                           	.dsb 1
02002                           rPPUSTATUS:
02002                           	.dsb 1
02003                           rOAMADDR:
02003                           	.dsb 1
02004                           rOAMDATA:
02004                           	.dsb 1
02005                           rPPUSCROLL:
02005                           	.dsb 1
02006                           rPPUADDR:
02006                           	.dsb 1
02007                           rPPUDATA:
02007                           	.dsb 1
02008                           .ende
	                            
	                            ;
	                            ; APU registers and joypad registers
	                            ;  $4000-$4015	 $4016-$4017
	                            ;
	                            .enum $4000
04000                           rSQ1_VOL:
04000                           	.dsb 1 ; 4000
04001                           rSQ1_SWEEP:
04001                           	.dsb 1
04002                           rSQ1_LO:
04002                           	.dsb 1
04003                           rSQ1_HI:
04003                           	.dsb 1
04004                           
04004                           rSQ2_VOL:
04004                           	.dsb 1 ; 4004
04005                           rSQ2_SWEEP:
04005                           	.dsb 1
04006                           rSQ2_LO:
04006                           	.dsb 1
04007                           rSQ2_HI:
04007                           	.dsb 1
04008                           
04008                           rTRI_LINEAR:
04008                           	.dsb 1 ; 4008
04009                           	.dsb 1
0400A                           rTRI_LO:
0400A                           	.dsb 1
0400B                           rTRI_HI:
0400B                           	.dsb 1
0400C                           
0400C                           rNOISE_VOL:
0400C                           	.dsb 1 ; 400c
0400D                           	.dsb 1
0400E                           rNOISE_LO:
0400E                           	.dsb 1
0400F                           rNOISE_HI:
0400F                           	.dsb 1
04010                           
04010                           rDMC_FREQ:
04010                           	.dsb 1 ; 4010
04011                           rDMC_RAW:
04011                           	.dsb 1
04012                           rDMC_START:
04012                           	.dsb 1
04013                           rDMC_LEN:
04013                           	.dsb 1
04014                           
04014                           rOAM_DMA:
04014                           	.dsb 1 ; 4014
04015                           
04015                           rSND_CHN:
04015                           	.dsb 1
04016                           
04016                           rJOY1:
04016                           	.dsb 1
04017                           rJOY2:
04017                           	.dsb 1
04018                           
04018                           FDS_WAVETABLE_LENGTH = $40
04018                           FDS_MODULATION_LENGTH = $20
04018                           
04018                           rFDS_IO_ENABLE  = $4023
04018                           rFDS_WAV_RAM    = $4040
04018                           rFDS_ENVELOPE   = $4080
04018                           rFDS_FREQ_LO    = $4082
04018                           rFDS_FREQ_HI    = $4083
04018                           rFDS_MOD_ENV    = $4084
04018                           rFDS_MOD_COUNT  = $4085
04018                           rFDS_MOD_LO     = $4086
04018                           rFDS_MOD_HI     = $4087
04018                           rFDS_MOD_WRITE  = $4088
04018                           rFDS_WAV_MASTER = $4089
04018                           rFDS_ENV_SPEED  = $408A
04018                           rFDS_VOL_GAIN   = $4090
04018                           rFDS_WAV_ACC    = $4091
04018                           rFDS_MOD_GAIN   = $4092
04018                           rFDS_MOD_ACC    = $4093
04018                           rFDS_MOD_MULTI  = $4094
04018                           rFDS_MOD_INC    = $4095
04018                           rFDS_WAV_VALUE  = $4096
04018                           rFDS_MOD_VALUE  = $4097
04018                           
04018                           .ende	                            .include "src/macros.asm"
	                            ; MUSIC
	                            MACRO rest
	                            	.db 0
	                            ENDM
	                            
	                            MACRO note pitch, octave
	                            	.db octave << 4 | pitch
	                            ENDM
	                            
	                            MACRO tie
	                            	.db NOTE_MASK
	                            ENDM
	                            
	                            MACRO note_length multiplier, shift
	                            	.db NOTE_LENGTH_CMD | multiplier | shift
	                            ENDM
	                            
	                            MACRO drum_envelope id, multiplier, shift
	                            	.db NOTE_LENGTH_CMD | id | multiplier | shift
	                            ENDM
	                            
	                            MACRO pitch_slide ammount, pitch, octave
	                            	.db PITCH_BEND_CMD | ammount, octave << 4 | pitch
	                            ENDM
	                            
	                            MACRO instrument id
	                            	.db INSTRUMENT_CMD | id
	                            ENDM
	                            
	                            MACRO volume_fade dir, ammount
	                            	.db FADE_CTRL_CMD | dir | ammount
	                            ENDM
	                            
	                            MACRO volume_const
	                            	.db FADE_CTRL_CMD + F_IN - 1
	                            ENDM
	                            
	                            MACRO sound_ret
	                            	.db SOUND_RET_CMD
	                            ENDM
	                            
	                            MACRO drum_note pitch
	                            	.db pitch
	                            ENDM
	                            
	                            MACRO dpcm_note id
	                            	.db DPCM_ID_CMD + id
	                            ENDM
	                            
	                            ; PATTERN DATA
	                            MACRO sound_play address
	                            	.dw address
	                            ENDM
	                            
	                            MACRO establish_loop
	                            	.db 0, LOOP_CMD
	                            ENDM
	                            
	                            MACRO pitch_inc_switch
	                            	.db 0, TUNING_CMD
	                            ENDM
	                            
	                            MACRO pat_ret
	                            	.dw 0
	                            ENDM
	                            
	                            .include "nsf-header.asm"
	                            .base 0
00000 4E 45 53 4D 1A 01         	.db "NESM", $1a, $01
00006 1E                        	.db 30 ; total sounds
00007 01                        	.db 1  ; track offset
00008 00 80                     	.dw StartProcessingSoundQueue
0000A 00 BF                     	.dw PLAY
0000C 00 80                     	.dw StartProcessingSoundQueue
0000E 43 61 6D 65 6C 74 72 79.. 	.db "Cameltry (FDS)"
0001C 00 00 00 00 00 00 00 00.. .pad $2e, $00
0002E 50 69 6E 63 68 20 50 75.. 	.db "Pinch Punch"
00039 00 00 00 00 00 00 00 00.. .pad $4e, $00
0004E 27 38 39 2D 27 39 31 20.. 	.db "'89-'91 Taito, 2023 Tempo Quill"
0006D 00                        .pad $6e, $00
0006E 1A 41                     	.dw $411a                                  ; NTSC
00070 00 00 00 00 00 00 00 00   	.db $00, $00, $00, $00, $00, $00, $00, $00 ; Banks
00078 00 00                     	.dw 0                                      ; PAL
0007A 00                        	.db 0                                      ; TV option: NTSC
0007B 04                        	.db %00000100                              ; FDS Audio
0007C 00 00 00 00               .pad $80, $0000080                           
00080                           .base $8000
08000                           .include "src/prg-1.asm"
08000                           StartProcessingSoundQueue:
08000 A9 FF                     	LDA #$FF
08002 8D 17 40                  	STA rJOY2
08005                           
08005 20 26 80                  	JSR ProcessNoiseQueue
08008 20 A7 80                  	JSR ProcessDPCMQueue
0800B 20 EA 80                  	JSR Process2C33Queue
0800E 20 D0 82                  	JSR ProcessMusicQueue
08011                           	; Reset queues
08011 A9 00                     	LDA #0
08013 8D 00 06                  	STA iMusic1
08016 8D 01 06                  	STA iMusic2
08019 8D 02 06                  	STA iMusic3
0801C 8D 03 06                  	STA iFDSSFX
0801F 8D 04 06                  	STA iDPCMSFX
08022 8D 05 06                  	STA iNoiseSFX
08025 60                        	RTS
08026                           
08026                           
08026                           ProcessNoiseQueue:
08026 AD 05 06                  	LDA iNoiseSFX
08029 D0 06                     	BNE ProcessNoiseQueue_Part2
0802B AD 0B 06                  	LDA iCurrentNoiseSFX
0802E D0 16                     	BNE ProcessNoiseQueue_Part3
08030 60                        	RTS
08031                           
08031                           ProcessNoiseQueue_Part2:
08031 8D 0B 06                  	STA iCurrentNoiseSFX
08034 A0 00                     	LDY #0
08036 8C 30 06                  	STY iSFXNoisePitch
08039 A0 FF                     	LDY #$ff
0803B                           
0803B                           ProcessNoiseQueue_PointerLoop:
0803B C8                        	INY
0803C 4A                        	LSR A
0803D 90 FC                     	BCC ProcessNoiseQueue_PointerLoop
0803F                           
0803F B9 A5 80                  	LDA NoiseDataLengths, Y
08042 0A                        	ASL A
08043 8D 2F 06                  	STA iSFXNoiseOffset
08046                           
08046                           ProcessNoiseQueue_Part3:
08046 AD 2F 06                  	LDA iSFXNoiseOffset
08049 18                        	CLC
0804A 69 02                     	ADC #2
0804C D0 0C                     	BNE ProcessNoiseQueue_Sequenced
0804E                           
0804E AD 30 06                  	LDA #iSFXNoisePitch
08051 D0 3D                     	BNE ProcessNoiseQueue_Exit
08053                           
08053 A9 8A                     	LDA #$8A
08055 8D 30 06                  	STA #iSFXNoisePitch
08058 D0 22                     	BNE ProcessNoiseQueue_Update
0805A                           
0805A                           ProcessNoiseQueue_Sequenced:
0805A AD 2F 06                  	LDA iSFXNoiseOffset
0805D 4A                        	LSR A
0805E A8                        	TAY
0805F CE 2F 06                  	DEC iSFXNoiseOffset
08062 B0 2C                     	BCS ProcessNoiseQueue_Exit
08064                           
08064 B9 9C 80                  	LDA SFXData_Lodge, Y
08067 30 27                     	BMI ProcessNoiseQueue_Exit
08069 8D 30 06                  	STA iSFXNoisePitch
0806C F0 0E                     	BEQ ProcessNoiseQueue_Update
0806E                           
0806E A9 10                     	LDA #$10
08070 8D 0C 40                  	STA rNOISE_VOL
08073 A9 00                     	LDA #0
08075 8D 0E 40                  	STA rNOISE_LO
08078 8D 0F 40                  	STA rNOISE_HI
0807B 60                        	RTS
0807C                           
0807C                           ProcessNoiseQueue_Update:
0807C A0 1A                     	LDY #$1a
0807E 8C 0C 40                  	STY rNOISE_VOL
08081 09 80                     	ORA #$80
08083 8D 0E 40                  	STA rNOISE_LO
08086 A9 08                     	LDA #$08
08088 8D 0F 40                  	STA rNOISE_HI
0808B A0 01                     	LDY #$01
0808D 8C 0C 40                  	STY rNOISE_VOL
08090                           
08090                           ProcessNoiseQueue_Exit:
08090 AD 15 40                  	LDA rSND_CHN
08093 29 08                     	AND #$08
08095 F0 01                     	BEQ ProcessNoiseQueue_Clear
08097 60                        	RTS
08098                           
08098                           ProcessNoiseQueue_Clear:
08098 8D 0B 06                  	STA iCurrentNoiseSFX
0809B 60                        	RTS
0809C                           
0809C                           SFXData_Lodge:
0809C 80 80 0B 09 80 80 0A 00.. 	.db $80, $80, $0B, $09, $80, $80, $0A, $00, $09
080A5                           SFXData_LodgeEnd:
080A5                           
080A5                           NoiseDataLengths:
080A5 FF                        	.db $FF
080A6 09                        	.db #SFXData_LodgeEnd - SFXData_Lodge
080A7                           
080A7                           
080A7                           ProcessDPCMQueue:
080A7 AD 04 06                  	LDA iDPCMSFX
080AA D0 15                     	BNE ProcessDPCMQueue_Part2
080AC                           
080AC AD 0A 06                  	LDA iCurrentDPCMSFX
080AF F0 1B                     	BEQ ProcessDPCMQueue_Exit
080B1                           
080B1 AD 15 40                  	LDA rSND_CHN
080B4 29 10                     	AND #$10
080B6 D0 14                     	BNE ProcessDPCMQueue_Exit
080B8                           
080B8 8D 0A 06                  	STA iCurrentDPCMSFX
080BB A9 0F                     	LDA #$0f
080BD 8D 15 40                  	STA rSND_CHN
080C0 60                        	RTS
080C1                           
080C1                           ProcessDPCMQueue_Part2:
080C1 8D 0A 06                  	STA iCurrentDPCMSFX
080C4 A0 00                     	LDY #0
080C6                           
080C6                           ProcessDPCMQueue_PointerLoop:
080C6 C8                        	INY
080C7 4A                        	LSR A
080C8 90 FC                     	BCC ProcessDPCMQueue_PointerLoop
080CA B0 01                     	BCS ProcessDPCMQueue_PlaySound
080CC                           
080CC                           ProcessDPCMQueue_Exit:
080CC 60                        	RTS
080CD                           
080CD                           ProcessDPCMQueue_PlaySound:
080CD A9 0F                     	LDA #$0f
080CF 8D 15 40                  	STA rSND_CHN
080D2 B9 AA 86                  	LDA DPCM_Pitches, Y
080D5 8D 10 40                  	STA rDMC_FREQ
080D8 B9 B0 86                  	LDA DPCM_Lengths, Y
080DB 8D 13 40                  	STA rDMC_LEN
080DE B9 B6 86                  	LDA DPCM_Addresses, Y
080E1 8D 12 40                  	STA rDMC_START
080E4 A9 10                     	LDA #$10
080E6 8D 15 40                  	STA rSND_CHN
080E9 60                        	RTS
080EA                           
080EA                           
080EA                           Process2C33Queue:
080EA AD 03 06                  	LDA iFDSSFX
080ED D0 06                     	BNE Process2C33Queue_Part2
080EF AD 09 06                  	LDA iCurrentFDSSFX
080F2 D0 6A                     	BNE Process2C33Queue_Part3
080F4 60                        	RTS
080F5                           
080F5                           Process2C33Queue_Part2:
080F5 8D 09 06                  	STA iCurrentFDSSFX
080F8 A0 FF                     	LDY #$ff
080FA                           
080FA                           Process2C33Queue_PointerLoop:
080FA C8                        	INY
080FB 4A                        	LSR A
080FC 90 FC                     	BCC Process2C33Queue_PointerLoop
080FE                           
080FE 8C 31 06                  	STY iSFX2C33Offset
08101 8C 32 06                  	STY iSFX2C33PointerOffset
08104 0E 32 06                  	ASL iSFX2C33PointerOffset
08107 8D 33 06                  	STA iSFX2C33DataOffset
0810A 8D 52 06                  	STA iFDSSFXPitch
0810D 8D 53 06                  	STA iFDSSFXPitch + 1
08110 A9 80                     	LDA #$80
08112 8D 83 40                  	STA rFDS_FREQ_HI
08115                           
08115 AC 32 06                  	LDY iSFX2C33PointerOffset
08118 B9 E1 81                  	LDA FDSSFXWavTables, Y
0811B 85 3E                     	STA zWavetablePointer
0811D B9 E2 81                  	LDA FDSSFXWavTables + 1, Y
08120 85 3F                     	STA zWavetablePointer + 1
08122 A0 00                     	LDY #0
08124 A2 40                     	LDX #FDS_WAVETABLE_LENGTH
08126                           
08126                           Process2C33Queue_WavLoop:
08126 B1 3E                     	LDA (zWavetablePointer), Y
08128 99 40 40                  	STA rFDS_WAV_RAM, Y
0812B C8                        	INY
0812C CA                        	DEX
0812D D0 F7                     	BNE Process2C33Queue_WavLoop
0812F                           
0812F AC 32 06                  	LDY iSFX2C33PointerOffset
08132 B9 D3 81                  	LDA FDSSFXModTables, Y
08135 85 3E                     	STA zModTablePointer
08137 B9 D4 81                  	LDA FDSSFXModTables + 1, Y
0813A 85 3F                     	STA zModTablePointer + 1
0813C A0 00                     	LDY #0
0813E A2 20                     	LDX #FDS_MODULATION_LENGTH
08140                           
08140                           Process2C33Queue_ModLoop:
08140 B1 3E                     	LDA (zModTablePointer), Y
08142 8D 88 40                  	STA rFDS_MOD_WRITE
08145 C8                        	INY
08146 CA                        	DEX
08147 D0 F7                     	BNE Process2C33Queue_ModLoop
08149                           
08149 AC 31 06                  	LDY iSFX2C33Offset
0814C B9 BE 81                  	LDA FDSSFXModDepths, Y
0814F 8D 84 40                  	STA rFDS_MOD_ENV
08152 B9 C5 81                  	LDA FDSSFXModRatesLo, Y
08155 8D 86 40                  	STA rFDS_MOD_LO
08158 B9 CC 81                  	LDA FDSSFXModRatesHi, Y
0815B 8D 87 40                  	STA rFDS_MOD_HI
0815E                           
0815E                           Process2C33Queue_Part3:
0815E AC 32 06                  	LDY iSFX2C33PointerOffset
08161 B9 EF 81                  	LDA FDSSFXPointers, Y
08164 85 3E                     	STA zFDSSFXPoitner
08166 B9 F0 81                  	LDA FDSSFXPointers + 1, Y
08169 85 3F                     	STA zFDSSFXPoitner + 1
0816B AC 33 06                  	LDY iSFX2C33DataOffset
0816E B1 3E                     	LDA (zFDSSFXPoitner), Y
08170 30 10                     	BMI Process2C33Queue_Volume
08172 C8                        	INY
08173 29 0F                     	AND #$0f
08175 8D 83 40                  	STA rFDS_FREQ_HI
08178 B1 3E                     	LDA (zFDSSFXPoitner), Y
0817A C8                        	INY
0817B 8D 82 40                  	STA rFDS_FREQ_LO
0817E 8C 33 06                  	STY iSFX2C33DataOffset
08181 60                        	RTS
08182                           
08182                           Process2C33Queue_Volume:
08182 C8                        	INY
08183 AA                        	TAX
08184 E8                        	INX
08185 F0 0E                     	BEQ Process2C33Queue_Ret
08187 E8                        	INX
08188 F0 11                     	BEQ Process2C33Queue_Loop
0818A C9 C0                     	CMP #$c0
0818C B0 19                     	BCS Process2C33Queue_VolumePlusPitch
0818E 8D 80 40                  	STA rFDS_ENVELOPE
08191 8C 33 06                  	STY iSFX2C33DataOffset
08194 60                        	RTS
08195                           
08195                           Process2C33Queue_Ret:
08195 8E 09 06                  	STX iCurrentFDSSFX
08198 4C 4F 83                  	JMP ClearFDS
0819B                           
0819B                           Process2C33Queue_Loop:
0819B AD 09 06                  	LDA iCurrentFDSSFX
0819E 8D 03 06                  	STA iFDSSFX
081A1 8E 09 06                  	STX iCurrentFDSSFX
081A4 4C EA 80                  	JMP Process2C33Queue
081A7                           
081A7                           Process2C33Queue_VolumePlusPitch:
081A7 29 BF                     	AND #$BF
081A9 8D 80 40                  	STA rFDS_ENVELOPE
081AC B1 3E                     	LDA (zFDSSFXPoitner), Y
081AE C8                        	INY
081AF 29 0F                     	AND #$0f
081B1 8D 83 40                  	STA rFDS_FREQ_HI
081B4 B1 3E                     	LDA (zFDSSFXPoitner), Y
081B6 C8                        	INY
081B7 8D 82 40                  	STA rFDS_FREQ_LO
081BA 8C 33 06                  	STY iSFX2C33DataOffset
081BD 60                        	RTS
081BE                           
081BE                           
081BE                           FDSSFXModDepths:
081BE 84 BF BF 8B 80 BF 80      	.db $84, $BF, $BF, $8B, $80, $BF, $80
081C5                           
081C5                           FDSSFXModRatesLo:
081C5 FF FF FF 2F 00 FF 00      	.db $FF, $FF, $FF, $2F, $00, $FF, $00
081CC                           
081CC                           FDSSFXModRatesHi:
081CC 00 0F 0F 00 00 0F 00      	.db $00, $0F, $0F, $00, $00, $0F, $00
081D3                           
081D3                           FDSSFXModTables:
081D3 FE 8F 1E 90 1E 90 FE 8F.. 	.dw MT_SFX1, MT_SFX2, MT_SFX2, MT_SFX1, MT_SFX2, MT_SFX2, MT_SFX2
081E1                           
081E1                           FDSSFXWavTables:
081E1 C8 91 08 92 C8 91 08 92.. 	.dw Wav_Snare2, Wav_Saw, Wav_Snare2, Wav_Saw, Wav_Saw, Wav_Saw, Wav_Saw
081EF                           
081EF                           .include "src/music/fds-sfx-pointers.asm"
081EF                           ; SFX DATA FORMAT
081EF                           ;	.db $xx, $HI, $LO
081EF                           ;	x - volume, $80-$BF for consective bytes, $C0-FE for pitch next byte
081EF                           ;	if x = $FF, end
081EF                           ;	HI - bits 8-15 of pitch
081EF                           ;	LO - bits 0-7 of pitch
081EF                           FDSSFXPointers:
081EF 1B 82                     	.dw SoundEffectData_Concrete
081F1 63 82                     	.dw SoundEffectData_Ouch
081F3 34 82                     	.dw SoundEffectData_Lucky
081F5 BD 82                     	.dw SoundEffectData_Stop
081F7 B6 82                     	.dw SoundEffectData_Select
081F9 FD 81                     	.dw SoundEffectData_1KPoints
081FB 30 82                     	.dw SoundEffectData_DirForce081FD                           .include "src/music/sound-effects/1k-points.asm"
081FD                           SoundEffectData_1KPoints:
081FD DF 09 94                  	.db $DF, $09, $94
08200 9F                        	.db $9F
08201 9F                        	.db $9F
08202 9F                        	.db $9F
08203 9F                        	.db $9F
08204 DF 04 CA                  	.db $DF, $04, $CA
08207 9F                        	.db $9F
08208 9F                        	.db $9F
08209 9F                        	.db $9F
0820A 9F                        	.db $9F
0820B 9F                        	.db $9F
0820C 9F                        	.db $9F
0820D 9F                        	.db $9F
0820E 9F                        	.db $9F
0820F 9F                        	.db $9F
08210 93                        	.db $93
08211 93                        	.db $93
08212 93                        	.db $93
08213 93                        	.db $93
08214 93                        	.db $93
08215 93                        	.db $93
08216 93                        	.db $93
08217 93                        	.db $93
08218 93                        	.db $93
08219 93                        	.db $93
0821A FF                        	.db $FF
0821B                           .include "src/music/sound-effects/concrete.asm"
0821B                           SoundEffectData_Concrete:
0821B C5 0B 64                  	.db $C5, $0B, $64
0821E 95                        	.db $95
0821F 93                        	.db $93
08220 91                        	.db $91
08221 8F                        	.db $8F
08222 8D                        	.db $8D
08223 8B                        	.db $8B
08224 89                        	.db $89
08225 87                        	.db $87
08226 85                        	.db $85
08227 83                        	.db $83
08228 87                        	.db $87
08229 85                        	.db $85
0822A 83                        	.db $83
0822B 81                        	.db $81
0822C 81                        	.db $81
0822D 85                        	.db $85
0822E 83                        	.db $83
0822F FF                        	.db $FF
08230                           .include "src/music/sound-effects/dir-force.asm"
08230                           SoundEffectData_DirForce:
08230 DF 00 CC                  	.db $DF, $00, $CC
08233 FE                        	.db $FE
08234                           .include "src/music/sound-effects/lucky.asm"
08234                           SoundEffectData_Lucky:
08234 D5 0A C1                  	.db $D5, $0A, $C1
08237 95                        	.db $95
08238 C1 0B 64                  	.db $C1, $0B, $64
0823B 81                        	.db $81
0823C D1 0A C1                  	.db $D1, $0A, $C1
0823F 91                        	.db $91
08240 0B 64                     	.db      $0B, $64
08242 91                        	.db $91
08243 0A C1                     	.db      $0A, $C1
08245 91                        	.db $91
08246 CF 0B 64                  	.db $CF, $0B, $64
08249 8F                        	.db $8F
0824A CD 0A C1                  	.db $CD, $0A, $C1
0824D 8D                        	.db $8D
0824E CB 0B 64                  	.db $CB, $0B, $64
08251 8B                        	.db $8B
08252 C9 0A C1                  	.db $C9, $0A, $C1
08255 89                        	.db $89
08256 C7 0B 64                  	.db $C7, $0B, $64
08259 87                        	.db $87
0825A C5 0A C1                  	.db $C5, $0A, $C1
0825D 85                        	.db $85
0825E C3 0B 64                  	.db $C3, $0B, $64
08261 83                        	.db $83
08262 FF                        	.db $FF
08263                           .include "src/music/sound-effects/ouch.asm"
08263                           SoundEffectData_Ouch:
08263 C3 09 0B                  	.db $C3, $09, $0B ; HA!
08266 CB 09 41                  	.db $CB, $09, $41
08269 D7 09 77                  	.db $D7, $09, $77
0826C 09 AD                     	.db      $09, $AD
0826E 09 E3                     	.db      $09, $E3
08270 0A 19                     	.db      $0A, $19
08272 0A 4F                     	.db      $0A, $4F
08274 0A 85                     	.db      $0A, $85
08276 D1 0A C1                  	.db $D1, $0A, $C1
08279 D5 0A 83                  	.db $D5, $0A, $83
0827C D5 0A C1                  	.db $D5, $0A, $C1
0827F CD 0A FF                  	.db $CD, $0A, $FF
08282 C7 0A C1                  	.db $C7, $0A, $C1
08285 C5 0A 83                  	.db $C5, $0A, $83
08288 C3 0A C1                  	.db $C3, $0A, $C1
0828B 81                        	.db $81
0828C 80                        	.db $80
0828D 80                        	.db $80
0828E CF 07 9A                  	.db $CF, $07, $9A ; HA!
08291 D5 08 0E                  	.db $D5, $08, $0E
08294 CF 08 89                  	.db $CF, $08, $89
08297 89                        	.db $89
08298 85                        	.db $85
08299 83                        	.db $83
0829A C9 07 2D                  	.db $C9, $07, $2D ; HA!
0829D CF 06 C6                  	.db $CF, $06, $C6
082A0 C9 06 65                  	.db $C9, $06, $65
082A3 8D                        	.db $8D
082A4 85                        	.db $85
082A5 83                        	.db $83
082A6 81                        	.db $81
082A7 CF 09 94                  	.db $CF, $09, $94 ; HA!
082AA D7 0A A1                  	.db $D7, $0A, $A1
082AD 0C 12                     	.db      $0c, $12
082AF 8D                        	.db $8D
082B0 8D                        	.db $8D
082B1 87                        	.db $87
082B2 87                        	.db $87
082B3 83                        	.db $83
082B4 83                        	.db $83
082B5 FF                        	.db $FF
082B6                           .include "src/music/sound-effects/select.asm"
082B6                           SoundEffectData_Select:
082B6 DF 04 CA                  	.db $DF, $04, $CA
082B9 9F                        	.db $9F
082BA 9F                        	.db $9F
082BB 9F                        	.db $9F
082BC FF                        	.db $FF
082BD                           .include "src/music/sound-effects/stop.asm"
082BD                           SoundEffectData_Stop:
082BD D1 01 21                  	.db $D1, $01, $21
082C0 91                        	.db $91
082C1 8F                        	.db $8F
082C2 8F                        	.db $8F
082C3 8D                        	.db $8D
082C4 8D                        	.db $8D
082C5 8B                        	.db $8B
082C6 8B                        	.db $8B
082C7 89                        	.db $89
082C8 89                        	.db $89
082C9 87                        	.db $87
082CA 87                        	.db $87
082CB 85                        	.db $85
082CC 85                        	.db $85
082CD 83                        	.db $83
082CE 83                        	.db $83
082CF FF                        	.db $FF
082D0                           
082D0                           
082D0                           ProcessMusicQueue:
082D0 AD 02 06                  	LDA iMusic3
082D3 D0 25                     	BNE ProcessMusicQueue_Music3
082D5                           
082D5 AD 00 06                  	LDA iMusic1
082D8 D0 23                     	BNE ProcessMusicQueue_Music1
082DA                           
082DA AD 01 06                  	LDA iMusic2
082DD D0 18                     	BNE ProcessMusicQueue_Music2
082DF                           
082DF AD 0C 06                  	LDA iMusicStack
082E2 F0 1F                     	BEQ StopMusic
082E4                           
082E4 AD 06 06                  	LDA iCurrentMusic1
082E7 0D 07 06                  	ORA iCurrentMusic2
082EA 0D 08 06                  	ORA iCurrentMusic3
082ED D0 11                     	BNE ProcessMusicQueue_Update
082EF                           
082EF AD 0C 06                  	LDA iMusicStack
082F2 8D 01 06                  	STA iMusic2
082F5 F0 0C                     	BEQ StopMusic
082F7                           
082F7                           ProcessMusicQueue_Music2:
082F7 4C B1 83                  	JMP ProcessMusic2Queue
082FA                           
082FA                           ProcessMusicQueue_Music3:
082FA 4C 85 83                  	JMP ProcessMusic3Queue
082FD                           
082FD                           ProcessMusicQueue_Music1:
082FD 4C D0 83                  	JMP ProcessMusic1Queue
08300                           
08300                           ProcessMusicQueue_Update:
08300 4C 40 84                  	JMP ReadPatterns
08303                           
08303                           StopMusic:
08303 AD 09 06                  	LDA iCurrentFDSSFX
08306 D0 08                     	BNE StopMusic_Skip2C33
08308                           
08308 A9 01                     	LDA #1
0830A 8D 23 40                  	STA rFDS_IO_ENABLE
0830D 20 4F 83                  	JSR ClearFDS
08310                           
08310                           StopMusic_Skip2C33:
08310 AD 0A 06                  	LDA iCurrentDPCMSFX
08313 D0 03                     	BNE StopMusic_SkipDPCM
08315                           
08315 20 66 83                  	JSR ClearDPCM
08318                           
08318                           StopMusic_SkipDPCM:
08318 AD 0B 06                  	LDA iCurrentNoiseSFX
0831B D0 03                     	BNE StopMusic_SkipNoise
0831D                           
0831D 20 72 83                  	JSR ClearNoise
08320                           
08320                           StopMusic_SkipNoise:
08320 A9 10                     	LDA #$10
08322 8D 00 40                  	STA rSQ1_VOL
08325 8D 04 40                  	STA rSQ2_VOL
08328 A9 00                     	LDA #0
0832A 8D 08 06                  	STA iCurrentMusic3
0832D 8D 07 06                  	STA iCurrentMusic2
08330 8D 06 06                  	STA iCurrentMusic1
08333 8D 03 40                  	STA rSQ1_HI
08336 8D 02 40                  	STA rSQ1_LO
08339 8D 01 40                  	STA rSQ1_SWEEP
0833C 8D 07 40                  	STA rSQ2_HI
0833F 8D 06 40                  	STA rSQ2_LO
08342 8D 05 40                  	STA rSQ2_SWEEP
08345 8D 08 40                  	STA rTRI_LINEAR
08348 8D 0B 40                  	STA rTRI_HI
0834B 8D 0A 40                  	STA rTRI_LO
0834E 60                        	RTS
0834F                           
0834F                           ClearFDS:
0834F A9 80                     	LDA #$80
08351 8D 80 40                  	STA rFDS_ENVELOPE
08354 8D 84 40                  	STA rFDS_MOD_ENV
08357 8D 83 40                  	STA rFDS_FREQ_HI
0835A A9 00                     	LDA #0
0835C 8D 86 40                  	STA rFDS_MOD_LO
0835F 8D 87 40                  	STA rFDS_MOD_HI
08362 8D 82 40                  	STA rFDS_FREQ_LO
08365 60                        	RTS
08366                           
08366                           ClearDPCM:
08366 A9 00                     	LDA #0
08368 8D 10 40                  	STA rDMC_FREQ
0836B 8D 13 40                  	STA rDMC_LEN
0836E 8D 12 40                  	STA rDMC_START
08371 60                        	RTS
08372                           
08372                           ClearNoise:
08372 A9 10                     	LDA #$10
08374 8D 0C 40                  	STA rNOISE_VOL
08377 A9 80                     	LDA #$80
08379 8D 0E 40                  	STA rNOISE_LO
0837C A9 00                     	LDA #0
0837E 8D 0F 40                  	STA rNOISE_HI
08381 60                        	RTS
08382                           
08382                           ;
08382                           ; Specific music queue handlings
08382                           ;
08382                           ; This particular routine handles the jingles that bring the driver back to the
08382                           ; previously playing song if from iCurrentMusic2.
08382                           ;
08382                           ProcessMusic3Queue_StopMusic:
08382                           	; We land here when there's no music to play
08382 4C 03 83                  	JMP StopMusic
08385                           
08385                           ProcessMusic3Queue:
08385                           	; check for no music
08385 C9 08                     	CMP #Music3_Stop
08387 B0 F9                     	BCS ProcessMusic3Queue_StopMusic
08389                           	; every song on this queue puts iCurrentMusic2 on the music stack
08389 8D 08 06                  	STA iCurrentMusic3
0838C AC 07 06                  	LDY iCurrentMusic2
0838F 8C 0C 06                  	STY iMusicStack
08392                           	; iMusic3 is third in RAM
08392 A0 10                     	LDY #$10
08394 8C 0E 06                  	STY iMusicOffset
08397 20 ED 83                  	JSR ClearLoops
0839A 8C 07 06                  	STY iCurrentMusic2
0839D 8C 06 06                  	STY iCurrentMusic1
083A0 20 08 84                  	JSR InitSong
083A3                           
083A3                           ProcessMusic3Queue_CopyData:
083A3 B9 48 92                  	LDA Music3_PatternHeaders, Y
083A6 95 00                     	STA zMusicPatternPointers, X
083A8 E8                        	INX
083A9 C8                        	INY
083AA                           	; did RAM offset hit $c?
083AA E0 0C                     	CPX #12
083AC 90 F5                     	BCC ProcessMusic3Queue_CopyData
083AE 4C 2C 84                  	JMP DefaultNoteLength
083B1                           
083B1                           
083B1                           ProcessMusic2Queue:
083B1                           	; iMusic2 is second in RAM
083B1 A0 08                     	LDY #$08
083B3 8C 0E 06                  	STY iMusicOffset
083B6 20 ED 83                  	JSR ClearLoops
083B9 8C 06 06                  	STY iCurrentMusic1
083BC 8C 08 06                  	STY iCurrentMusic3
083BF 20 08 84                  	JSR InitSong
083C2                           
083C2                           ProcessMusic2Queue_CopyData:
083C2 B9 C8 92                  	LDA Music2_PatternHeaders, Y
083C5 95 00                     	STA zMusicPatternPointers, X
083C7 E8                        	INX
083C8 C8                        	INY
083C9                           	; did RAM offset hit $c?
083C9 E0 0C                     	CPX #12
083CB 90 F5                     	BCC ProcessMusic2Queue_CopyData
083CD 4C 2C 84                  	JMP DefaultNoteLength
083D0                           
083D0                           
083D0                           ProcessMusic1Queue:
083D0                           	; iMusic1 is first in RAM
083D0 20 ED 83                  	JSR ClearLoops
083D3 8C 0E 06                  	STY iMusicOffset
083D6 8C 07 06                  	STY iCurrentMusic2
083D9 8C 08 06                  	STY iCurrentMusic3
083DC 20 08 84                  	JSR InitSong
083DF                           
083DF                           ProcessMusic1Queue_CopyData:
083DF B9 48 93                  	LDA Music1_PatternHeaders, Y
083E2 95 00                     	STA zMusicPatternPointers, X
083E4 E8                        	INX
083E5 C8                        	INY
083E6                           	; did RAM offset hit $c?
083E6 E0 0C                     	CPX #12
083E8 90 F5                     	BCC ProcessMusic1Queue_CopyData
083EA 4C 2C 84                  	JMP DefaultNoteLength
083ED                           
083ED                           
083ED                           ClearLoops:
083ED A0 00                     	LDY #0
083EF 84 18                     	STY zMusicLoopPointers
083F1 84 19                     	STY zMusicLoopPointers + 1
083F3 84 1A                     	STY zMusicLoopPointers + 2
083F5 84 1B                     	STY zMusicLoopPointers + 3
083F7 84 1C                     	STY zMusicLoopPointers + 4
083F9 84 1D                     	STY zMusicLoopPointers + 5
083FB 84 1E                     	STY zMusicLoopPointers + 6
083FD 84 1F                     	STY zMusicLoopPointers + 7
083FF 84 20                     	STY zMusicLoopPointers + 8
08401 84 21                     	STY zMusicLoopPointers + 9
08403 84 22                     	STY zMusicLoopPointers + 10
08405 84 23                     	STY zMusicLoopPointers + 11
08407 60                        	RTS
08408                           
08408                           InitSong:
08408                           	; fetch bit ID
08408 C8                        	INY
08409 4A                        	LSR A
0840A 90 FC                     	BCC InitSong
0840C 88                        	DEY
0840D                           	; add pointer offset
0840D 98                        	TYA
0840E 0D 0E 06                  	ORA iMusicOffset
08411 8D 0E 06                  	STA iMusicOffset
08414 AA                        	TAX
08415                           	; iMusicOffset determines each song's tempo
08415 BD C2 90                  	LDA MusicTempos, X
08418 8D 0F 06                  	STA iMusicTempo
0841B                           	; each header is 16 bytes long for speed
0841B 98                        	TYA
0841C 0A                        	ASL A ; x2
0841D 0A                        	ASL A ; x4
0841E 0A                        	ASL A ; x8
0841F 0A                        	ASL A ; x16
08420 A8                        	TAY
08421                           	; initialize extra channel
08421 A9 03                     	LDA #3
08423 8D 23 40                  	STA rFDS_IO_ENABLE
08426 20 4F 83                  	JSR ClearFDS
08429                           	; initialize RAM offset
08429 A2 00                     	LDX #0
0842B 60                        	RTS
0842C                           
0842C                           DefaultNoteLength:
0842C                           	; default note length
0842C A9 00                     	LDA #0
0842E 8D 10 06                  	STA iMusicPulse1NoteLength
08431 8D 12 06                  	STA iMusicPulse2NoteLength
08434 8D 14 06                  	STA iMusicHillNoteLength
08437 8D 16 06                  	STA iMusicNoiseNoteLength
0843A 8D 18 06                  	STA iDPCMNoteLengthCounter
0843D 8D 1A 06                  	STA iMusic2C33NoteLength
08440                           
08440                           ReadPatterns:
08440 A0 00                     	LDY #0
08442 8C 0D 06                  	STY iCurrentChannel
08445 20 57 84                  	JSR ReadSquare1Pattern
08448 20 BF 84                  	JSR ReadSquare2Pattern
0844B 20 2D 85                  	JSR ReadHillPattern
0844E 20 7C 85                  	JSR ReadNoisePattern
08451 20 D3 85                  	JSR ReadDPCMPattern
08454 4C 28 86                  	JMP Read2C33Pattern
08457                           
08457                           
08457                           ReadSquare1Pattern:
08457 20 3C 87                  	JSR ReadPatternData
0845A B0 52                     	BCS ReadSquare1Pattern_UpdateSilent
0845C 20 E0 87                  	JSR ReadMusicData
0845F B0 10                     	BCS ReadSquare1Pattern_Dec
08461 20 8D 89                  	JSR InterpretPulseMusicData
08464 B0 F1                     	BCS ReadSquare1Pattern
08466 AD 48 06                  	LDA iRestingTail
08469 30 43                     	BMI ReadSquare1Pattern_UpdateSilent
0846B 20 D0 89                  	JSR InterpretPulseInstrument
0846E 4C 77 84                  	JMP ReadSquare1Pattern_Update
08471                           
08471                           ReadSquare1Pattern_Dec:
08471 EE 38 06                  	INC iInstrumentOffset
08474 CE 10 06                  	DEC iMusicPulse1NoteLength
08477                           
08477                           ReadSquare1Pattern_Update:
08477 20 95 8B                  	JSR ApplyVibrato
0847A 20 EF 8B                  	JSR ApplyPitchSlide
0847D 20 72 8C                  	JSR ApplyFade
08480 AD 48 06                  	LDA iRestingTail
08483 29 01                     	AND #$01
08485 CD 10 06                  	CMP iMusicPulse1NoteLength
08488 F0 24                     	BEQ ReadSquare1Pattern_UpdateSilent
0848A 20 14 8D                  	JSR CheckPulseFade
0848D AC 38 06                  	LDY iInstrumentOffset
08490 B1 34                     	LDA (zInstrumentPointer), Y
08492 18                        	CLC
08493 6D 2C 06                  	ADC iSoundMathBuffer
08496 6D 4C 06                  	ADC iFadeOffset
08499 8D 00 40                  	STA rSQ1_VOL
0849C A9 00                     	LDA #0
0849E 8D 01 40                  	STA rSQ1_SWEEP
084A1 A5 24                     	LDA zCurrentPitch
084A3 8D 02 40                  	STA rSQ1_LO
084A6 A5 25                     	LDA zCurrentPitch + 1
084A8 09 08                     	ORA #$08
084AA 8D 03 40                  	STA rSQ1_HI
084AD 60                        	RTS
084AE                           
084AE                           ReadSquare1Pattern_UpdateSilent:
084AE A9 10                     	LDA #$10
084B0 8D 00 40                  	STA rSQ1_VOL
084B3 A9 00                     	LDA #0
084B5 8D 01 40                  	STA rSQ1_SWEEP
084B8 8D 02 40                  	STA rSQ1_LO
084BB 8D 03 40                  	STA rSQ1_HI
084BE 60                        	RTS
084BF                           
084BF                           ReadSquare2Pattern:
084BF EE 0D 06                  	INC iCurrentChannel
084C2                           ReadSquare2Pattern_Restart:
084C2 AC 0D 06                  	LDY iCurrentChannel
084C5 20 3C 87                  	JSR ReadPatternData
084C8 B0 52                     	BCS ReadSquare2Pattern_UpdateSilent
084CA 20 E0 87                  	JSR ReadMusicData
084CD B0 10                     	BCS ReadSquare2Pattern_Dec
084CF 20 8D 89                  	JSR InterpretPulseMusicData
084D2 B0 EE                     	BCS ReadSquare2Pattern_Restart
084D4 AD 49 06                  	LDA iRestingTail + 1
084D7 30 43                     	BMI ReadSquare2Pattern_UpdateSilent
084D9 20 D0 89                  	JSR InterpretPulseInstrument
084DC 4C E5 84                  	JMP ReadSquare2Pattern_Update
084DF                           
084DF                           ReadSquare2Pattern_Dec:
084DF EE 39 06                  	INC iInstrumentOffset + 1
084E2 CE 12 06                  	DEC iMusicPulse2NoteLength
084E5                           
084E5                           ReadSquare2Pattern_Update:
084E5 20 95 8B                  	JSR ApplyVibrato
084E8 20 EF 8B                  	JSR ApplyPitchSlide
084EB 20 72 8C                  	JSR ApplyFade
084EE AD 49 06                  	LDA iRestingTail + 1
084F1 29 01                     	AND #$01
084F3 CD 12 06                  	CMP iMusicPulse2NoteLength
084F6 F0 24                     	BEQ ReadSquare2Pattern_UpdateSilent
084F8 20 14 8D                  	JSR CheckPulseFade
084FB AC 39 06                  	LDY iInstrumentOffset + 1
084FE B1 34                     	LDA (zInstrumentPointer), Y
08500 18                        	CLC
08501 6D 2C 06                  	ADC iSoundMathBuffer
08504 6D 4D 06                  	ADC iFadeOffset + 1
08507 8D 04 40                  	STA rSQ2_VOL
0850A A9 00                     	LDA #0
0850C 8D 05 40                  	STA rSQ2_SWEEP
0850F A5 26                     	LDA zCurrentPitch + 2
08511 8D 06 40                  	STA rSQ2_LO
08514 A5 27                     	LDA zCurrentPitch + 3
08516 09 08                     	ORA #$08
08518 8D 07 40                  	STA rSQ2_HI
0851B 60                        	RTS
0851C                           
0851C                           ReadSquare2Pattern_UpdateSilent:
0851C A9 10                     	LDA #$10
0851E 8D 04 40                  	STA rSQ2_VOL
08521 A9 00                     	LDA #0
08523 8D 05 40                  	STA rSQ2_SWEEP
08526 8D 06 40                  	STA rSQ2_LO
08529 8D 07 40                  	STA rSQ2_HI
0852C 60                        	RTS
0852D                           
0852D                           
0852D                           ReadHillPattern:
0852D EE 0D 06                  	INC iCurrentChannel
08530                           ReadHillPattern_Restart:
08530 AC 0D 06                  	LDY iCurrentChannel
08533 20 3C 87                  	JSR ReadPatternData
08536 B0 38                     	BCS ReadHillPattern_UpdateSilent
08538 20 E0 87                  	JSR ReadMusicData
0853B B0 10                     	BCS ReadHillPattern_Dec
0853D 20 08 8A                  	JSR InterpretHillMusicData
08540 B0 EE                     	BCS ReadHillPattern_Restart
08542 AD 4A 06                  	LDA iRestingTail + 2
08545 30 29                     	BMI ReadHillPattern_UpdateSilent
08547 20 3F 8A                  	JSR InterpretHillInstrument
0854A 4C 50 85                  	JMP ReadHillPattern_Update
0854D                           
0854D                           ReadHillPattern_Dec:
0854D CE 14 06                  	DEC iMusicHillNoteLength
08550                           
08550                           ReadHillPattern_Update:
08550 20 95 8B                  	JSR ApplyVibrato
08553 20 EF 8B                  	JSR ApplyPitchSlide
08556 AD 4A 06                  	LDA iRestingTail + 2
08559 29 01                     	AND #$01
0855B CD 14 06                  	CMP iMusicHillNoteLength
0855E F0 10                     	BEQ ReadHillPattern_UpdateSilent
08560 A9 81                     	LDA #$81
08562 8D 08 40                  	STA rTRI_LINEAR
08565 A5 28                     	LDA zCurrentPitch + 4
08567 8D 0A 40                  	STA rTRI_LO
0856A A5 29                     	LDA zCurrentPitch + 5
0856C 8D 0B 40                  	STA rTRI_HI
0856F 60                        	RTS
08570                           
08570                           ReadHillPattern_UpdateSilent:
08570 A9 00                     	LDA #0
08572 8D 08 40                  	STA rTRI_LINEAR
08575 8D 0A 40                  	STA rTRI_LO
08578 8D 0B 40                  	STA rTRI_HI
0857B 60                        	RTS
0857C                           
0857C                           ReadNoisePattern:
0857C EE 0D 06                  	INC iCurrentChannel
0857F                           
0857F                           ReadNoisePattern_Restart:
0857F AC 0D 06                  	LDY iCurrentChannel
08582 20 3C 87                  	JSR ReadPatternData
08585 B0 37                     	BCS ReadNoisePattern_UpdateSilent
08587 20 E0 87                  	JSR ReadMusicData
0858A B0 07                     	BCS ReadNoisePattern_Dec
0858C 20 66 8A                  	JSR InterpretNoiseMusicData
0858F 90 06                     	BCC ReadNoisePattern_Update
08591 B0 EC                     	BCS ReadNoisePattern_Restart
08593                           
08593                           ReadNoisePattern_Dec:
08593 CE 16 06                  	DEC iMusicNoiseNoteLength
08596 60                        	RTS
08597                           
08597                           ReadNoisePattern_Update:
08597 AD 0B 06                  	LDA iCurrentNoiseSFX
0859A D0 21                     	BNE ReadNoisePattern_End
0859C AD 2D 06                  	LDA iCurrentNoisePitch
0859F F0 1D                     	BEQ ReadNoisePattern_UpdateSilent
085A1 AE 4F 06                  	LDX iNoiseID
085A4 BD A2 86                  	LDA NoiseVolumes, X
085A7 8D 0C 40                  	STA rNOISE_VOL
085AA AD 2D 06                  	LDA iCurrentNoisePitch
085AD 09 80                     	ORA #$80 ; always periodic noise
085AF 8D 0E 40                  	STA rNOISE_LO
085B2 A9 08                     	LDA #$08
085B4 8D 0F 40                  	STA rNOISE_HI
085B7 BD A6 86                  	LDA NoiseSweeps, X
085BA 8D 0C 40                  	STA rNOISE_VOL
085BD                           ReadNoisePattern_End
085BD 60                        	RTS
085BE                           
085BE                           ReadNoisePattern_UpdateSilent:
085BE AD 0B 06                  	LDA iCurrentNoiseSFX
085C1 D0 FA                     	BNE ReadNoisePattern_End
085C3 A9 10                     	LDA #$10
085C5 8D 0C 40                  	STA rNOISE_VOL
085C8 A9 80                     	LDA #$80 ; always periodic noise
085CA 8D 0E 40                  	STA rNOISE_LO
085CD A9 00                     	LDA #0
085CF 8D 0F 40                  	STA rNOISE_HI
085D2 60                        	RTS
085D3                           
085D3                           ReadDPCMPattern:
085D3 EE 0D 06                  	INC iCurrentChannel
085D6                           ReadDPCMPattern_Restart:
085D6 AC 0D 06                  	LDY iCurrentChannel
085D9 20 3C 87                  	JSR ReadPatternData
085DC B0 39                     	BCS ReadDPCMPattern_UpdateSilent
085DE 20 E0 87                  	JSR ReadMusicData
085E1 B0 07                     	BCS ReadDPCMPattern_Dec
085E3 20 8F 8A                  	JSR InterpretDPCMMusicData
085E6 90 06                     	BCC ReadDPCMPattern_Update
085E8 B0 EC                     	BCS ReadDPCMPattern_Restart
085EA                           
085EA                           ReadDPCMPattern_Dec:
085EA CE 18 06                  	DEC iDPCMNoteLengthCounter
085ED 60                        	RTS
085EE                           
085EE                           ReadDPCMPattern_Update:
085EE AC 0A 06                  	LDY iCurrentDPCMSFX
085F1 D0 23                     	BNE ReadDPCMPattern_End
085F3 AC 2E 06                  	LDY iCurrentDPCMPitch
085F6 C8                        	INY
085F7 F0 1E                     	BEQ ReadDPCMPattern_UpdateSilent
085F9 A9 0F                     	LDA #$0f
085FB 8D 15 40                  	STA rSND_CHN
085FE 88                        	DEY
085FF B9 AA 86                  	LDA DPCM_Pitches, Y
08602 8D 10 40                  	STA rDMC_FREQ
08605 B9 B0 86                  	LDA DPCM_Lengths, Y
08608 8D 13 40                  	STA rDMC_LEN
0860B B9 B6 86                  	LDA DPCM_Addresses, Y
0860E 8D 12 40                  	STA rDMC_START
08611 A9 1F                     	LDA #$1f
08613 8D 15 40                  	STA rSND_CHN
08616                           ReadDPCMPattern_End:
08616 60                        	RTS
08617                           
08617                           ReadDPCMPattern_UpdateSilent:
08617 AC 0A 06                  	LDY iCurrentDPCMSFX
0861A D0 FA                     	BNE ReadDPCMPattern_End
0861C A9 00                     	LDA #0
0861E 8D 10 40                  	STA rDMC_FREQ
08621 8D 13 40                  	STA rDMC_LEN
08624 8D 12 40                  	STA rDMC_START
08627 60                        	RTS
08628                           
08628                           Read2C33Pattern:
08628 EE 0D 06                  	INC iCurrentChannel
0862B                           
0862B                           Read2C33Pattern_Restart:
0862B AC 0D 06                  	LDY iCurrentChannel
0862E 20 3C 87                  	JSR ReadPatternData
08631 B0 67                     	BCS Read2C33Pattern_UpdateSilent
08633 20 E0 87                  	JSR ReadMusicData
08636 B0 1A                     	BCS Read2C33Pattern_Dec
08638 48                        	PHA
08639 A9 00                     	LDA #0
0863B 8D 52 06                  	STA iFDSArpPitch
0863E 8D 53 06                  	STA iFDSArpPitch + 1
08641 68                        	PLA
08642 20 BA 8A                  	JSR InterpretFDSMusicData
08645 B0 E4                     	BCS Read2C33Pattern_Restart
08647 AD 4B 06                  	LDA iRestingTail + 3
0864A 30 4E                     	BMI Read2C33Pattern_UpdateSilent
0864C 20 FD 8A                  	JSR InterpretFDSInsturment
0864F 4C 55 86                  	JMP Read2C33Pattern_Update
08652                           
08652                           Read2C33Pattern_Dec:
08652 CE 1A 06                  	DEC iMusic2C33NoteLength
08655                           
08655                           Read2C33Pattern_Update:
08655 20 EF 8B                  	JSR ApplyPitchSlide
08658 20 72 8C                  	JSR ApplyFade
0865B 20 3D 8D                  	JSR ApplyFDSArp
0865E AD 09 06                  	LDA iCurrentFDSSFX
08661 D0 36                     	BNE Read2C33Pattern_End
08663                           
08663 AD 4B 06                  	LDA iRestingTail + 3
08666 29 01                     	AND #$01
08668 CD 1A 06                  	CMP iMusic2C33NoteLength
0866B F0 2D                     	BEQ Read2C33Pattern_UpdateSilent
0866D                           
0866D AC 3A 06                  	LDY iFDSInstrumentOffset
08670 B1 34                     	LDA (zInstrumentPointer), Y
08672 18                        	CLC
08673 6D 2C 06                  	ADC iSoundMathBuffer
08676 6D 4E 06                  	ADC iFDSFadeOffset
08679 8D 80 40                  	STA rFDS_ENVELOPE
0867C AD 51 06                  	LDA iFDSModDepth
0867F 8D 84 40                  	STA rFDS_MOD_ENV
08682 AD 50 06                  	LDA iFDSModRate
08685 8D 86 40                  	STA rFDS_MOD_LO
08688 A9 00                     	LDA #0
0868A 8D 87 40                  	STA rFDS_MOD_HI
0868D A5 2A                     	LDA zCurrent2C33Pitch
0868F 8D 82 40                  	STA rFDS_FREQ_LO
08692 A5 2B                     	LDA zCurrent2C33Pitch + 1
08694 29 0F                     	AND #$0f
08696 8D 83 40                  	STA rFDS_FREQ_HI
08699                           Read2C33Pattern_End:
08699 60                        	RTS
0869A                           
0869A                           Read2C33Pattern_UpdateSilent:
0869A AD 09 06                  	LDA iCurrentFDSSFX
0869D D0 FA                     	BNE Read2C33Pattern_End
0869F 4C 4F 83                  	JMP ClearFDS
086A2                           
086A2                           NoiseVolumes:
086A2 12 15 1A 1F               	.db $12, $15, $1A, $1F
086A6                           
086A6                           NoiseSweeps:
086A6 09 03 01 01               	.db $09, $03, $01, $01
086AA                           
086AA                           DPCM_Pitches:
086AA 00 0A 0D 0F 0F 0F         	.db $00, $0A, $0D, $0F, $0F, $0F
086B0                           
086B0                           DPCM_Lengths:
086B0 01 4D 47 48 4C D3         	.db $01, $4D, $47, $48, $4C, $D3
086B6                           
086B6                           DPCM_Addresses:
086B6 6D 5A 6E 00 12 25         	.db $6D, $5A, $6E, $00, $12, $25
086BC                           
086BC                           
086BC                           StoreNoteLength:
086BC                           	; %100xyzzz
086BC                           	; x - x3 flag
086BC                           	; y - x1.5 flag
086BC                           	; z - shift id
086BC 29 1F                     	AND #$1f
086BE 99 20 06                  	STA iEncodedNoteLengths, Y
086C1 60                        	RTS
086C2                           
086C2                           
086C2                           StorePitchBend:
086C2                           	; %101xxxx 0yyyzzzz
086C2                           	; x - incrementation
086C2                           	; y - octave
086C2                           	; z - pitch
086C2 C0 03                     	CPY #3
086C4 90 02                     	BCC StorePitchBend_NotFDS
086C6 A0 03                     	LDY #3
086C8                           StorePitchBend_NotFDS:
086C8 29 1F                     	AND #$1f
086CA 99 44 06                  	STA iPitchSlideIncrementation, Y
086CD B5 2C                     	LDA zTargetPitch, X
086CF 95 24                     	STA zCurrentPitch, X
086D1 B5 2D                     	LDA zTargetPitch + 1, X
086D3 95 25                     	STA zCurrentPitch + 1, X
086D5 AC 0D 06                  	LDY iCurrentChannel
086D8 20 E0 87                  	JSR ReadMusicData
086DB 48                        	PHA
086DC 29 70                     	AND #OCTAVE_MASK
086DE C0 03                     	CPY #3
086E0 B0 05                     	BCS StorePitchBend_FDSOctave
086E2 99 1C 06                  	STA iOctaves, Y
086E5 90 03                     	BCC StorePitchBend_DoLoNybble
086E7                           StorePitchBend_FDSOctave:
086E7 8D 1F 06                  	STA iOctaves + 3
086EA                           StorePitchBend_DoLoNybble:
086EA 68                        	PLA
086EB 29 0F                     	AND #NOTE_MASK
086ED C9 0D                     	CMP #TIE_VALUE
086EF B0 0D                     	BCS StorePitchBend_Exit
086F1 0A                        	ASL A
086F2 AA                        	TAX
086F3 20 19 89                  	JSR GetPitch
086F6 A9 80                     	LDA #$80
086F8 1D 55 06                  	ORA iTargetPitch + 1, X
086FB 9D 55 06                  	STA iTargetPitch + 1, X
086FE                           StorePitchBend_Exit:
086FE 60                        	RTS
086FF                           
086FF                           
086FF                           StoreInstrument:
086FF                           	; 110xxxxx
086FF                           	; x - instrument ID
086FF                           	; NOTE: ID is doubled for use as a pointer offset
086FF 29 1F                     	AND #$1f
08701 0A                        	ASL A
08702 C0 03                     	CPY #3
08704 B0 04                     	BCS StoreInstrument_FDS
08706 99 34 06                  	STA iInstrument, Y
08709 60                        	RTS
0870A                           StoreInstrument_FDS:
0870A 8D 37 06                  	STA iFDSInstrument
0870D 60                        	RTS
0870E                           
0870E                           StoreFade:
0870E                           	; %111xyyyy
0870E                           	; x - direction
0870E                           	; y - timer
0870E 29 1F                     	AND #$1f
08710 C0 02                     	CPY #2
08712 B0 0C                     	BCS StoreFade_FDS
08714 99 3E 06                  	STA iInstrumentFade, Y
08717 A9 00                     	LDA #0
08719 99 41 06                  	STA iFadeCounter, Y
0871C 99 4C 06                  	STA iFadeOffset, Y
0871F 60                        	RTS
08720                           
08720                           StoreFade_FDS:
08720 8D 40 06                  	STA iFDSInstrumentFade
08723 A9 00                     	LDA #0
08725 8D 43 06                  	STA iFDSFadeCounter
08728 8D 4E 06                  	STA iFDSFadeOffset
0872B 60                        	RTS
0872C                           
0872C                           
0872C                           ;
0872C                           ; Pattern reading routine
0872C                           ;
0872C                           ; In Cameltry (FDS/FC), pattern data is read in words due to the 6502
0872C                           ; addressing endianness.  High byte is read first to determine the read data.
0872C                           ;
0872C                           ; (FDS) $60-$DF - Establish music data pointer
0872C                           ; (FC)  $80-$DF - Establish music data pointer
0872C                           ; $E1/$E2/$E4/$E8/$F0 - Commands with possible parameters
0872C                           ;
0872C                           ; WARNING: Pattern data is only accessed when a music data pointer is cleared
0872C                           ;
0872C                           ReadPatternData_Increment:
0872C F6 00                     	INC zMusicPatternPointers, X
0872E D0 02                     	BNE ReadPatternData_NoInc
08730 F6 01                     	INC zMusicPatternPointers + 1, X
08732                           ReadPatternData_NoInc:
08732 60                        	RTS
08733                           
08733                           ReadPatternData_Decrement:
08733 B5 00                     	LDA zMusicPatternPointers, X
08735 D0 02                     	BNE ReadPatternData_NoDec
08737 D6 01                     	DEC zMusicPatternPointers + 1, X
08739                           ReadPatternData_NoDec:
08739 D6 00                     	DEC zMusicPatternPointers, X
0873B 60                        	RTS
0873C                           
0873C                           
0873C                           ReadPatternData:
0873C                           	; load channel offset into X
0873C AD 0D 06                  	LDA iCurrentChannel
0873F 0A                        	ASL A
08740 AA                        	TAX
08741                           	; 00 00 = nothing to see here, bail
08741 B5 01                     	LDA zMusicPatternPointers + 1, X
08743 F0 26                     	BEQ ReadPatternData_Bail
08745                           	; non-zero = note still playing, bail
08745 BD 10 06                  	LDA iMusicNoteLengths, X
08748 D0 1F                     	BNE ReadPatternData_End
0874A                           	; non-zero = reading music data, bail
0874A B5 0D                     	LDA zMusicDataPointers + 1, X
0874C D0 1B                     	BNE ReadPatternData_End
0874E                           
0874E                           ReadPatternData_Shortcut:
0874E 20 2C 87                  	JSR ReadPatternData_Increment
08751 A1 00                     	LDA (zMusicPatternPointers, X)
08753 C9 60                     	CMP #$60 ; FDS RAM space start
08755 B0 2E                     	BCS ReadPatternData_PointerOrMasterCMD
08757 A1 00                     	LDA (zMusicPatternPointers, X)
08759 D0 12                     	BNE ReadPatternData_NextWord
0875B                           	; 00 = End / Loop
0875B B5 19                     	LDA zMusicLoopPointers + 1, X
0875D F0 0A                     	BEQ ReadPatternData_End
0875F                           
0875F B5 18                     	LDA zMusicLoopPointers, X
08761 95 00                     	STA zMusicPatternPointers, X
08763 B5 19                     	LDA zMusicLoopPointers + 1, X
08765 95 01                     	STA zMusicPatternPointers + 1, X
08767 D0 E5                     	BNE ReadPatternData_Shortcut
08769                           
08769                           ReadPatternData_End:
08769                           	; music playing
08769 18                        	CLC
0876A 60                        	RTS
0876B                           
0876B                           ReadPatternData_Bail:
0876B                           	; pattern pointer is empty
0876B 38                        	SEC
0876C 60                        	RTS
0876D                           
0876D                           	; 01-5f = invalid, move to the next word
0876D                           ReadPatternData_NextWord:
0876D 20 33 87                  	JSR ReadPatternData_Decrement
08770 A9 02                     	LDA #2
08772 75 00                     	ADC zMusicPatternPointers, X
08774 95 00                     	STA zMusicPatternPointers, X
08776 A9 00                     	LDA #0
08778 E8                        	INX
08779 75 00                     	ADC zMusicPatternPointers, X
0877B 95 00                     	STA zMusicPatternPointers, X
0877D AD 0D 06                  	LDA iCurrentChannel
08780 0A                        	ASL A
08781 AA                        	TAX
08782 4C 4E 87                  	JMP ReadPatternData_Shortcut
08785                           
08785                           ReadPatternData_PointerOrMasterCMD:
08785 C9 E0                     	CMP #$e0 ; FDS BIOS start
08787 90 03                     	BCC ReadPatternData_Pointer
08789 4C B6 87                  	JMP ReadPatternData_MasterCMD
0878C                           
0878C                           ReadPatternData_Pointer:
0878C 20 33 87                  	JSR ReadPatternData_Decrement
0878F                           	; then pull from pointer
0878F A1 00                     	LDA (zMusicPatternPointers, X)
08791 95 0C                     	STA zMusicDataPointers, X
08793 20 2C 87                  	JSR ReadPatternData_Increment
08796 A1 00                     	LDA (zMusicPatternPointers, X)
08798 95 0C                     	STA zMusicDataPointers, X
0879A 20 2C 87                  	JSR ReadPatternData_Increment
0879D 18                        	CLC
0879E 60                        	RTS
0879F                           
0879F                           ReadPatternData_EstLoop:
0879F 20 33 87                  	JSR ReadPatternData_Decrement
087A2                           	; $e1 = Establish loop point
087A2 A9 02                     	LDA #2
087A4 75 00                     	ADC zMusicPatternPointers, X
087A6 95 00                     	STA zMusicPatternPointers, X
087A8 95 18                     	STA zMusicLoopPointers, X
087AA A9 00                     	LDA #0
087AC E8                        	INX
087AD 75 00                     	ADC zMusicPatternPointers, X
087AF 95 00                     	STA zMusicPatternPointers, X
087B1 95 18                     	STA zMusicLoopPointers, X
087B3 4C 4E 87                  	JMP ReadPatternData_Shortcut
087B6                           
087B6                           ReadPatternData_MasterCMD:
087B6 29 1F                     	AND #$1f
087B8 4A                        	LSR A ; $e1
087B9 B0 E4                     	BCS ReadPatternData_EstLoop
087BB 4A                        	LSR A ; $e2
087BC B0 03                     	BCS ReadPatternData_Tuning
087BE 4C 6D 87                  	JMP ReadPatternData_NextWord
087C1                           
087C1                           ReadPatternData_Tuning:
087C1                           	; $e2 = Detune Note
087C1                           	; Noise/DPCM don't have tuning
087C1 C0 03                     	CPY #3
087C3 F0 18                     	BEQ ReadPatternData_BailTuning
087C5 C0 04                     	CPY #4
087C7 F0 14                     	BEQ ReadPatternData_BailTuning
087C9 B0 0A                     	BCS ReadPatternData_FDSTuning
087CB                           
087CB B9 5C 06                  	LDA iTuning, Y
087CE 49 01                     	EOR #1
087D0 99 5C 06                  	STA iTuning, Y
087D3 90 08                     	BCC ReadPatternData_BailTuning
087D5                           
087D5                           ReadPatternData_FDSTuning:
087D5 AD 5F 06                  	LDA iFDSTuning
087D8 49 01                     	EOR #1
087DA 8D 5F 06                  	STA iFDSTuning
087DD                           
087DD                           ReadPatternData_BailTuning:
087DD 4C 6D 87                  	JMP ReadPatternData_NextWord
087E0                           
087E0                           
087E0                           ;
087E0                           ; Music Data Reading Routine
087E0                           ;
087E0                           ; Check for active note length, bail
087E0                           ; Read a byte, determine what to do from there
087E0                           ;
087E0                           ReadMusicData:
087E0 BD 10 06                  	LDA iMusicNoteLengths, X
087E3 D0 0A                     	BNE ReadMusicData_Bail
087E5 A1 0C                     	LDA (zMusicDataPointers, X)
087E7 F6 0C                     	INC zMusicDataPointers, X
087E9 D0 02                     	BNE ReadMusicData_Exit
087EB F6 0D                     	INC zMusicDataPointers + 1, X
087ED                           ReadMusicData_Exit:
087ED 18                        	CLC
087EE 60                        	RTS
087EF                           
087EF                           ReadMusicData_Bail:
087EF 38                        	SEC
087F0 60                        	RTS
087F1                           
087F1                           
087F1                           ClearDataPointer:
087F1 A9 00                     	LDA #0
087F3 95 0C                     	STA zMusicDataPointers, X
087F5 95 0D                     	STA zMusicDataPointers + 1, X
087F7 38                        	SEC
087F8 60                        	RTS
087F9                           
087F9                           
087F9                           ;
087F9                           ; Note Disection Routine
087F9                           ;
087F9                           ; 01-7f expresses a note the engine analyzes to figure out what to do with it
087F9                           ; in byte xy, x = octave, y = note
087F9                           ;
087F9                           DisectNote:
087F9 48                        	PHA
087FA 29 70                     	AND #OCTAVE_MASK
087FC C0 03                     	CPY #3
087FE B0 05                     	BCS DisectNote_FDSOctave
08800 99 1C 06                  	STA iOctaves, Y
08803 90 05                     	BCC DisectNote_DoLoNybble
08805                           DisectNote_FDSOctave:
08805 49 70                     	EOR #$70
08807 8D 1F 06                  	STA iOctaves + 3
0880A                           DisectNote_DoLoNybble:
0880A 68                        	PLA
0880B 29 0F                     	AND #NOTE_MASK
0880D F0 38                     	BEQ DisectNote_Rest
0880F C9 0D                     	CMP #TIE_VALUE
08811 B0 45                     	BCS DisectNote_Tie
08813 0A                        	ASL A
08814 AA                        	TAX
08815 20 19 89                  	JSR GetPitch
08818 98                        	TYA
08819 0A                        	ASL A
0881A AA                        	TAX
0881B C0 03                     	CPY #3
0881D B0 14                     	BCS DisectNote_FDSPitch
0881F                           
0881F 38                        	SEC
08820 B5 2C                     	LDA zTargetPitch, X
08822 F9 5C 06                  	SBC iTuning, Y
08825 95 2C                     	STA zTargetPitch, X
08827 95 24                     	STA zCurrentPitch, X
08829 B5 2D                     	LDA zTargetPitch + 1, X
0882B E9 00                     	SBC #0
0882D 95 2D                     	STA zTargetPitch + 1, X
0882F 95 25                     	STA zCurrentPitch + 1, X
08831 B0 25                     	BCS DisectNote_Tie
08833                           
08833                           DisectNote_FDSPitch:
08833 18                        	CLC
08834 A5 32                     	LDA zTarget2C33Pitch
08836 6D 5F 06                  	ADC iFDSTuning
08839 85 32                     	STA zTarget2C33Pitch
0883B 85 2A                     	STA zCurrent2C33Pitch
0883D A5 33                     	LDA zTarget2C33Pitch + 1
0883F 69 00                     	ADC #0
08841 85 33                     	STA zTarget2C33Pitch + 1
08843 85 2B                     	STA zCurrent2C33Pitch + 1
08845 B0 11                     	BCS DisectNote_Tie
08847                           
08847                           DisectNote_Rest:
08847 C0 03                     	CPY #3
08849 90 02                     	BCC DisectNote_Rest2A03
0884B                           
0884B A0 03                     	LDY #3
0884D                           
0884D                           DisectNote_Rest2A03:
0884D B9 48 06                  	LDA iRestingTail, Y
08850 09 80                     	ORA #$80
08852 99 48 06                  	STA iRestingTail, Y
08855 AC 0D 06                  	LDY iCurrentChannel
08858                           
08858                           DisectNote_Tie:
08858 60                        	RTS
08859                           
08859                           
08859                           ;
08859                           ; Calculate Note Length
08859                           ;
08859                           ; where 'iEncodedNoteLengths' = %000xyzzz
08859                           ; x - Triple Time
08859                           ; y - Time and a Half
08859                           ; z - Shift offset - Default = %100
08859                           ;
08859                           CalculateNoteLength:
08859 98                        	TYA
0885A 0A                        	ASL A
0885B AA                        	TAX
0885C AD 0F 06                  	LDA iMusicTempo
0885F 9D 10 06                  	STA iMusicNoteLengths, X
08862 BD 11 06                  	LDA iMusicNoteLengths + 1, X
08865 29 F0                     	AND #$f0
08867                           	; stash old buffer
08867 48                        	PHA
08868 A9 00                     	LDA #0
0886A 8D 2C 06                  	STA iSoundMathBuffer
0886D 9D 11 06                  	STA iMusicNoteLengths + 1, X
08870 B9 20 06                  	LDA iEncodedNoteLengths, Y
08873 29 18                     	AND #$18
08875 F0 53                     	BEQ CalculateNoteLength_SkipNoteLengthMath
08877 C9 10                     	CMP #$10
08879 F0 23                     	BEQ CalculateNoteLength_TripleTime
0887B 90 38                     	BCC CalculateNoteLength_TimeAndAHalf
0887D                           
0887D                           	; Quadruple Time and a Half
0887D BD 10 06                  	LDA iMusicNoteLengths, X
08880                           	; m/2
08880 5E 10 06                  	LSR iMusicNoteLengths, X
08883 3E 11 06                  	ROL iMusicNoteLengths + 1, X
08886                           	; 4a
08886 0A                        	ASL A
08887 2E 2C 06                  	ROL iSoundMathBuffer
0888A 0A                        	ASL A
0888B 2E 2C 06                  	ROL iSoundMathBuffer
0888E                           	; a + m
0888E 7D 10 06                  	ADC iMusicNoteLengths, X
08891 9D 10 06                  	STA iMusicNoteLengths, X
08894 A9 00                     	LDA #0
08896 6D 2C 06                  	ADC iSoundMathBuffer
08899 8D 2C 06                  	STA iSoundMathBuffer
0889C 90 2C                     	BCC CalculateNoteLength_SkipNoteLengthMath
0889E                           
0889E                           CalculateNoteLength_TripleTime:
0889E BD 10 06                  	LDA iMusicNoteLengths, X
088A1                           	; 2a
088A1 0A                        	ASL A
088A2 2E 2C 06                  	ROL iSoundMathBuffer
088A5                           	; a + m
088A5 7D 10 06                  	ADC iMusicNoteLengths, X
088A8                           	; M'=3M
088A8 9D 10 06                  	STA iMusicNoteLengths, X
088AB A9 00                     	LDA #0
088AD 6D 2C 06                  	ADC iSoundMathBuffer
088B0 8D 2C 06                  	STA iSoundMathBuffer
088B3 90 15                     	BCC CalculateNoteLength_SkipNoteLengthMath
088B5                           
088B5                           CalculateNoteLength_TimeAndAHalf:
088B5 BD 10 06                  	LDA iMusicNoteLengths, X
088B8                           	; a/2
088B8 4A                        	LSR A
088B9 7E 11 06                  	ROR iMusicNoteLengths + 1, X
088BC                           	; a + m
088BC 7D 10 06                  	ADC iMusicNoteLengths, X
088BF 9D 10 06                  	STA iMusicNoteLengths, X
088C2 A9 00                     	LDA #0
088C4 6D 2C 06                  	ADC iSoundMathBuffer
088C7 8D 2C 06                  	STA iSoundMathBuffer
088CA                           
088CA                           CalculateNoteLength_SkipNoteLengthMath:
088CA AD 2C 06                  	LDA iSoundMathBuffer
088CD 1D 11 06                  	ORA iMusicNoteLengths + 1, X
088D0 B9 20 06                  	LDA iEncodedNoteLengths, Y
088D3 29 07                     	AND #$07
088D5 C9 04                     	CMP #4
088D7 B0 17                     	BCS CalculateNoteLength_RollUp
088D9                           
088D9 09 FC                     	ORA #$fc
088DB A8                        	TAY
088DC                           
088DC                           CalculateNoteLength_RollDownLoop:
088DC 3E 10 06                  	ROL iMusicNoteLengths, X
088DF 3E 11 06                  	ROL iMusicNoteLengths + 1, X
088E2 A9 00                     	LDA #0
088E4 7D 10 06                  	ADC iMusicNoteLengths, X
088E7 9D 10 06                  	STA iMusicNoteLengths, X
088EA C8                        	INY
088EB 18                        	CLC
088EC D0 EE                     	BNE CalculateNoteLength_RollDownLoop
088EE F0 18                     	BEQ CalculateNoteLength_Exit
088F0                           
088F0                           CalculateNoteLength_RollUp:
088F0 18                        	CLC
088F1 29 03                     	AND #$03
088F3 A8                        	TAY
088F4 F0 12                     	BEQ CalculateNoteLength_Exit
088F6                           
088F6                           CalculateNoteLength_RollUpLoop:
088F6 7E 10 06                  	ROR iMusicNoteLengths, X
088F9 7E 11 06                  	ROR iMusicNoteLengths + 1, X
088FC A9 00                     	LDA #0
088FE 7D 10 06                  	ADC iMusicNoteLengths, X
08901 9D 10 06                  	STA iMusicNoteLengths, X
08904 88                        	DEY
08905 18                        	CLC
08906 D0 EE                     	BNE CalculateNoteLength_RollUpLoop
08908                           
08908                           CalculateNoteLength_Exit:
08908 68                        	PLA
08909 7D 11 06                  	ADC iMusicNoteLengths + 1, X
0890C 9D 11 06                  	STA iMusicNoteLengths + 1, X
0890F A9 00                     	LDA #0
08911 7D 10 06                  	ADC iMusicNoteLengths, X
08914 9D 10 06                  	STA iMusicNoteLengths, X
08917 18                        	CLC
08918 60                        	RTS
08919                           
08919                           ;
08919                           ; Calculate pitch
08919                           ;
08919                           ; Pull an entry from one of two tables and store it in RAM
08919                           ; INPUT: X / 2 = Pitch ID
08919                           ; CONDITION: Y =< 2 (pulses, hill), OR, Y = 5 (FDS)
08919                           ;
08919                           GetPitch:
08919 C0 03                     	CPY #3 ; NOISE, DPCM, FDS
0891B B0 38                     	BCS GetPitch_NotPulseOrHill
0891D                           
0891D 98                        	TYA
0891E 0A                        	ASL A
0891F A8                        	TAY
08920                           
08920 38                        	SEC
08921 B9 2C 00                  	LDA zTargetPitch, Y
08924 99 54 06                  	STA iTargetPitch, Y
08927 B9 2D 00                  	LDA zTargetPitch + 1, Y
0892A 99 55 06                  	STA iTargetPitch + 1, Y
0892D                           
0892D BD 80 90                  	LDA Notes_2A03, X
08930 99 2C 00                  	STA zTargetPitch, Y
08933 BD 81 90                  	LDA Notes_2A03 + 1, X
08936 99 2D 00                  	STA zTargetPitch + 1, Y
08939                           
08939 AE 0D 06                  	LDX iCurrentChannel
0893C BD 1C 06                  	LDA iOctaves, X
0893F 38                        	SEC
08940 E9 10                     	SBC #$10
08942 B0 19                     	BCS GetPitch_Quit
08944                           
08944 48                        	PHA
08945 98                        	TYA
08946 AA                        	TAX
08947 68                        	PLA
08948                           
08948                           GetPitch_Division:
08948 56 2D                     	LSR zTargetPitch + 1, X
0894A 76 2C                     	ROR zTargetPitch, X
0894C 38                        	SEC
0894D E9 10                     	SBC #$10
0894F 90 F7                     	BCC GetPitch_Division
08951 AC 0D 06                  	LDY iCurrentChannel
08954 60                        	RTS
08955                           
08955                           GetPitch_NotPulseOrHill:
08955 8A                        	TXA
08956 C0 04                     	CPY #4
08958 F0 03                     	BEQ GetPitch_DPCM
0895A B0 05                     	BCS GetPitch_2C33
0895C                           	; NOISE
0895C 60                        	RTS
0895D                           
0895D                           GetPitch_DPCM:
0895D                           GetPitch_Quit:
0895D                           	; DPCM
0895D AC 0D 06                  	LDY iCurrentChannel
08960 60                        	RTS
08961                           
08961                           GetPitch_2C33:
08961                           	; FDS
08961 A5 32                     	LDA zTarget2C33Pitch
08963 8D 5A 06                  	STA iTarget2C33Pitch
08966 A5 33                     	LDA zTarget2C33Pitch + 1
08968 8D 5B 06                  	STA iTarget2C33Pitch + 1
0896B                           
0896B BD 9C 90                  	LDA Notes_2C33, X
0896E 85 32                     	STA zTarget2C33Pitch
08970 BD 9D 90                  	LDA Notes_2C33 + 1, X
08973 85 33                     	STA zTarget2C33Pitch + 1
08975                           
08975 AE 0D 06                  	LDX iCurrentChannel
08978 BD 1C 06                  	LDA iOctaves, X
0897B 38                        	SEC
0897C E9 10                     	SBC #$10
0897E B0 DD                     	BCS GetPitch_Quit
08980                           
08980                           GetPitch_2C33Division:
08980 46 33                     	LSR zTarget2C33Pitch + 1
08982 66 32                     	ROR zTarget2C33Pitch
08984 38                        	SEC
08985 E9 10                     	SBC #$10
08987 90 F7                     	BCC GetPitch_2C33Division
08989 AC 0D 06                  	LDY iCurrentChannel
0898C 60                        	RTS
0898D                           
0898D                           
0898D                           
0898D                           ;
0898D                           ; Interpretation routines
0898D                           ;
0898D                           ; For interpreting music data, there are two ways to exit these subroutines:
0898D                           ; ClearDataPointer    - if byte = $ff  - Sets carry so each routine can restart
0898D                           ; CalculateNoteLength - if byte = Note - Clears carry to allow routine updates
0898D                           ;
0898D                           ; For interpreting instruments, we only return directly if we're pitch bending:
0898D                           ; For pitch bend, HI(zTargetPitch) + APP(iCurrentChannel)*2 >= $8000
0898D                           ; If pitch bend is off, use vibrato instead.
0898D                           ;
0898D                           InterpretPulseMusicData:
0898D 48                        	PHA
0898E 18                        	CLC
0898F 69 01                     	ADC #1
08991 D0 04                     	BNE InterpretPulseMusicData_DetermineByte
08993 68                        	PLA
08994 4C F1 87                  	JMP ClearDataPointer
08997                           
08997                           InterpretPulseMusicData_DetermineByte:
08997 68                        	PLA
08998 30 06                     	BMI InterpretPulseMusicData_Command
0899A 20 F9 87                  	JSR DisectNote
0899D 4C 59 88                  	JMP CalculateNoteLength
089A0                           
089A0                           InterpretPulseMusicData_Command:
089A0 C9 A0                     	CMP #PITCH_BEND_CMD
089A2 90 11                     	BCC InterpretPulseMusicData_NoteLength
089A4 C9 C0                     	CMP #INSTRUMENT_CMD
089A6 90 16                     	BCC InterpretPulseMusicData_PitchBend
089A8 C9 E0                     	CMP #FADE_CTRL_CMD
089AA 90 1B                     	BCC InterpretPulseMusicData_Instrument
089AC 20 0E 87                  	JSR StoreFade
089AF 20 E0 87                  	JSR ReadMusicData
089B2 4C 8D 89                  	JMP InterpretPulseMusicData
089B5                           
089B5                           InterpretPulseMusicData_NoteLength:
089B5 20 BC 86                  	JSR StoreNoteLength
089B8 20 E0 87                  	JSR ReadMusicData
089BB 4C 8D 89                  	JMP InterpretPulseMusicData
089BE                           
089BE                           InterpretPulseMusicData_PitchBend:
089BE 20 C2 86                  	JSR StorePitchBend
089C1 20 E0 87                  	JSR ReadMusicData
089C4 4C 8D 89                  	JMP InterpretPulseMusicData
089C7                           
089C7                           InterpretPulseMusicData_Instrument:
089C7 20 FF 86                  	JSR StoreInstrument
089CA 20 E0 87                  	JSR ReadMusicData
089CD 4C 8D 89                  	JMP InterpretPulseMusicData
089D0                           
089D0                           
089D0                           InterpretPulseInstrument:
089D0 A9 00                     	LDA #0
089D2 99 38 06                  	STA iInstrumentOffset, Y
089D5 B9 48 06                  	LDA iRestingTail, Y
089D8 29 80                     	AND #$80
089DA 99 48 06                  	STA iRestingTail, Y
089DD BE 34 06                  	LDX iInstrument, Y
089E0 E0 2A                     	CPX #NES_TAIL_INSTRUMENTS * 2
089E2 90 05                     	BCC InterpretPulseInstrument_NoTail
089E4                           
089E4 A9 00                     	LDA #0
089E6 99 48 06                  	STA iRestingTail, Y
089E9                           
089E9                           InterpretPulseInstrument_NoTail:
089E9 BD 98 8D                  	LDA InstrumentPointers, X
089EC 85 34                     	STA zInstrumentPointer
089EE BD 99 8D                  	LDA InstrumentPointers + 1, X
089F1 85 35                     	STA zInstrumentPointer + 1
089F3 98                        	TYA
089F4 0A                        	ASL A
089F5 AA                        	TAX
089F6 BD 55 06                  	LDA iTargetPitch + 1, X
089F9 30 03                     	BMI InterpretPulseInstrument_Exit
089FB                           
089FB 4C 74 8B                  	JMP DoInstrumentVibrato
089FE                           
089FE                           InterpretPulseInstrument_Exit:
089FE A9 00                     	LDA #0
08A00 95 36                     	STA zVibratoPointer, X
08A02 95 37                     	STA zVibratoPointer + 1, X
08A04 99 3B 06                  	STA iVibratoOffset, Y
08A07 60                        	RTS
08A08                           
08A08                           
08A08                           InterpretHillMusicData:
08A08 48                        	PHA
08A09 18                        	CLC
08A0A 69 01                     	ADC #1
08A0C 90 04                     	BCC InterpretHillMusicData_DetermineByte
08A0E 68                        	PLA
08A0F 4C F1 87                  	JMP ClearDataPointer
08A12                           
08A12                           InterpretHillMusicData_DetermineByte:
08A12 68                        	PLA
08A13 30 06                     	BMI InterpretHillMusicData_Command
08A15 20 F9 87                  	JSR DisectNote
08A18 4C 59 88                  	JMP CalculateNoteLength
08A1B                           
08A1B                           InterpretHillMusicData_Command:
08A1B C9 A0                     	CMP #PITCH_BEND_CMD
08A1D 90 0F                     	BCC InterpretHillMusicData_NoteLength
08A1F C9 C0                     	CMP #INSTRUMENT_CMD
08A21 90 14                     	BCC InterpretHillMusicData_PitchBend
08A23 29 1F                     	AND #$1f
08A25 20 FF 86                  	JSR StoreInstrument
08A28 20 E0 87                  	JSR ReadMusicData
08A2B 4C 08 8A                  	JMP InterpretHillMusicData
08A2E                           
08A2E                           InterpretHillMusicData_NoteLength:
08A2E 20 BC 86                  	JSR StoreNoteLength
08A31 20 E0 87                  	JSR ReadMusicData
08A34 4C 08 8A                  	JMP InterpretHillMusicData
08A37                           
08A37                           InterpretHillMusicData_PitchBend:
08A37 20 C2 86                  	JSR StorePitchBend
08A3A 20 E0 87                  	JSR ReadMusicData
08A3D 30 C9                     	BMI InterpretHillMusicData
08A3F                           
08A3F                           
08A3F                           InterpretHillInstrument:
08A3F AD 4A 06                  	LDA iRestingTail + 2
08A42 29 80                     	AND #$80
08A44 8D 4A 06                  	STA iRestingTail + 2
08A47 AD 36 06                  	LDA iInstrument + 2
08A4A C9 2A                     	CMP #NES_TAIL_INSTRUMENTS * 2
08A4C 90 03                     	BCC InterpretHillInstrument_NoTail
08A4E                           
08A4E EE 4A 06                  	INC iRestingTail + 2
08A51                           
08A51                           InterpretHillInstrument_NoTail:
08A51 98                        	TYA
08A52 0A                        	ASL A
08A53 AA                        	TAX
08A54 AD 59 06                  	LDA iTargetPitch + 5
08A57 30 03                     	BMI InterpretHillInstrument_Exit
08A59                           
08A59 4C 74 8B                  	JMP DoInstrumentVibrato
08A5C                           
08A5C                           InterpretHillInstrument_Exit:
08A5C A9 00                     	LDA #0
08A5E 85 3A                     	STA zVibratoPointer + 4
08A60 85 3B                     	STA zVibratoPointer + 5
08A62 8D 3D 06                  	STA iVibratoOffset + 2
08A65 60                        	RTS
08A66                           
08A66                           
08A66                           InterpretNoiseMusicData:
08A66 48                        	PHA
08A67 18                        	CLC
08A68 69 01                     	ADC #1
08A6A 90 04                     	BCC InterpretNoiseMusicData_DetermineByte
08A6C 68                        	PLA
08A6D 4C F1 87                  	JMP ClearDataPointer
08A70                           
08A70                           InterpretNoiseMusicData_DetermineByte:
08A70 68                        	PLA
08A71 30 08                     	BMI InterpretNoiseMusicData_NoteLength
08A73 29 0F                     	AND #$0f
08A75 8D 2D 06                  	STA iCurrentNoisePitch
08A78 4C 59 88                  	JMP CalculateNoteLength
08A7B                           
08A7B                           InterpretNoiseMusicData_NoteLength:
08A7B 48                        	PHA
08A7C 29 60                     	AND #$60
08A7E 2A                        	ROL A
08A7F 2A                        	ROL A
08A80 2A                        	ROL A
08A81 2A                        	ROL A
08A82 8D 4F 06                  	STA iNoiseID
08A85 68                        	PLA
08A86 20 BC 86                  	JSR StoreNoteLength
08A89 20 E0 87                  	JSR ReadMusicData
08A8C 4C 66 8A                  	JMP InterpretNoiseMusicData
08A8F                           
08A8F                           
08A8F                           InterpretDPCMMusicData:
08A8F 48                        	PHA
08A90 18                        	CLC
08A91 69 01                     	ADC #1
08A93 90 04                     	BCC InterpretDPCMMusicData_DetermineByte
08A95 68                        	PLA
08A96 4C F1 87                  	JMP ClearDataPointer
08A99                           
08A99                           InterpretDPCMMusicData_DetermineByte:
08A99 68                        	PLA
08A9A 30 08                     	BMI InterpretDPCMMusicData_NotRest
08A9C A9 FF                     	LDA #$ff
08A9E 8D 2E 06                  	STA iCurrentDPCMPitch
08AA1 4C 59 88                  	JMP CalculateNoteLength
08AA4                           
08AA4                           InterpretDPCMMusicData_NotRest:
08AA4 C9 A0                     	CMP #DPCM_ID_CMD
08AA6 B0 09                     	BCS InterpretDPCMMusicData_Note
08AA8                           
08AA8 20 BC 86                  	JSR StoreNoteLength
08AAB 20 E0 87                  	JSR ReadMusicData
08AAE 4C 8F 8A                  	JMP InterpretDPCMMusicData
08AB1                           
08AB1                           InterpretDPCMMusicData_Note:
08AB1 38                        	SEC
08AB2 E9 A0                     	SBC #DPCM_ID_CMD
08AB4 8D 2E 06                  	STA iCurrentDPCMPitch
08AB7 4C 59 88                  	JMP CalculateNoteLength
08ABA                           
08ABA                           
08ABA                           InterpretFDSMusicData:
08ABA 48                        	PHA
08ABB 18                        	CLC
08ABC 69 01                     	ADC #1
08ABE D0 04                     	BNE InterpretFDSMusicData_DetermineByte
08AC0 68                        	PLA
08AC1 4C F1 87                  	JMP ClearDataPointer
08AC4                           
08AC4                           InterpretFDSMusicData_DetermineByte:
08AC4 68                        	PLA
08AC5 30 06                     	BMI InterpretFDSMusicData_Command
08AC7 20 F9 87                  	JSR DisectNote
08ACA 4C 59 88                  	JMP CalculateNoteLength
08ACD                           
08ACD                           InterpretFDSMusicData_Command:
08ACD C9 A0                     	CMP #PITCH_BEND_CMD
08ACF 90 11                     	BCC InterpretFDSMusicData_NoteLength
08AD1 C9 C0                     	CMP #INSTRUMENT_CMD
08AD3 90 16                     	BCC InterpretFDSMusicData_PitchBend
08AD5 C9 E0                     	CMP #FADE_CTRL_CMD
08AD7 90 1B                     	BCC InterpretFDSMusicData_Instrument
08AD9 20 0E 87                  	JSR StoreFade
08ADC 20 E0 87                  	JSR ReadMusicData
08ADF 4C BA 8A                  	JMP InterpretFDSMusicData
08AE2                           
08AE2                           InterpretFDSMusicData_NoteLength:
08AE2 20 BC 86                  	JSR StoreNoteLength
08AE5 20 E0 87                  	JSR ReadMusicData
08AE8 4C BA 8A                  	JMP InterpretFDSMusicData
08AEB                           
08AEB                           InterpretFDSMusicData_PitchBend:
08AEB 20 C2 86                  	JSR StorePitchBend
08AEE 20 E0 87                  	JSR ReadMusicData
08AF1 4C BA 8A                  	JMP InterpretFDSMusicData
08AF4                           
08AF4                           InterpretFDSMusicData_Instrument:
08AF4 20 FF 86                  	JSR StoreInstrument
08AF7 20 E0 87                  	JSR ReadMusicData
08AFA 4C BA 8A                  	JMP InterpretFDSMusicData
08AFD                           
08AFD                           
08AFD                           InterpretFDSInsturment:
08AFD A9 00                     	LDA #0
08AFF 8D 3A 06                  	STA iFDSInstrumentOffset
08B02 AD 4B 06                  	LDA iRestingTail + 3
08B05 29 80                     	AND #$80
08B07 8D 4B 06                  	STA iRestingTail + 3
08B0A AE 37 06                  	LDX iFDSInstrument
08B0D E0 0C                     	CPX #NUM_FDS_ARP_SNARES * 2
08B0F 90 0A                     	BCC InterpretFDSInsturment_NotArpd
08B11                           
08B11 A9 02                     	LDA #2
08B13 0D 4B 06                  	ORA iRestingTail + 3
08B16 8D 4B 06                  	STA iRestingTail + 3
08B19 B0 07                     	BCS InterpretFDSInsturment_NoTail
08B1B                           
08B1B                           InterpretFDSInsturment_NotArpd:
08B1B E0 24                     	CPX #FDS_TAIL_INSTRUMENTS * 2
08B1D 90 03                     	BCC InterpretFDSInsturment_NoTail
08B1F                           
08B1F EE 4B 06                  	INC iRestingTail + 3
08B22                           
08B22                           InterpretFDSInsturment_NoTail:
08B22 BD D7 8E                  	LDA FDSInstrumentPointers, X
08B25 85 34                     	STA zInstrumentPointer
08B27 BD D8 8E                  	LDA FDSInstrumentPointers + 1, X
08B2A 85 35                     	STA zInstrumentPointer + 1
08B2C BD 26 91                  	LDA WavPointers, X
08B2F 85 3E                     	STA zWavetablePointer
08B31 BD 27 91                  	LDA WavPointers + 1, X
08B34 85 3F                     	STA zWavetablePointer + 1
08B36 A9 80                     	LDA #$80
08B38 8D 89 40                  	STA rFDS_WAV_MASTER
08B3B A0 00                     	LDY #0
08B3D A2 40                     	LDX #FDS_WAVETABLE_LENGTH
08B3F                           
08B3F                           InterpretFDSInsturment_Wav:
08B3F B1 3E                     	LDA (zWavetablePointer), Y
08B41 99 40 40                  	STA rFDS_WAV_RAM, Y
08B44 C8                        	INY
08B45 CA                        	DEX
08B46 D0 F7                     	BNE InterpretFDSInsturment_Wav
08B48                           
08B48 AE 37 06                  	LDX iFDSInstrument
08B4B BD 9C 8F                  	LDA ModTablePointers, X
08B4E 85 3E                     	STA zModTablePointer
08B50 BD 9D 8F                  	LDA ModTablePointers + 1, X
08B53 85 3F                     	STA zModTablePointer + 1
08B55 A0 00                     	LDY #0
08B57 A2 20                     	LDX #FDS_MODULATION_LENGTH
08B59                           
08B59                           InterpretFDSInsturment_Mod:
08B59 B1 3E                     	LDA (zModTablePointer), Y
08B5B 8D 88 40                  	STA rFDS_MOD_WRITE
08B5E C8                        	INY
08B5F CA                        	DEX
08B60 D0 F7                     	BNE InterpretFDSInsturment_Mod
08B62                           
08B62 AD 37 06                  	LDA iFDSInstrument
08B65 4A                        	LSR A
08B66 AA                        	TAX
08B67 BD 5E 90                  	LDA Mod_Depths, X
08B6A 8D 51 06                  	STA iFDSModDepth
08B6D BD 6F 90                  	LDA Mod_Rates, X
08B70 8D 50 06                  	STA iFDSModRate
08B73 60                        	RTS
08B74                           
08B74                           DoInstrumentVibrato:
08B74 B9 34 06                  	LDA iInstrument, Y
08B77 4A                        	LSR A
08B78 AA                        	TAX
08B79 BD 07 91                  	LDA InstrumentVibratos, X
08B7C 0A                        	ASL A
08B7D AA                        	TAX
08B7E BD DA 90                  	LDA Vibrato, X
08B81 48                        	PHA
08B82 BD DB 90                  	LDA Vibrato + 1, X
08B85 48                        	PHA
08B86 98                        	TYA
08B87 0A                        	ASL A
08B88 AA                        	TAX
08B89 68                        	PLA
08B8A 95 37                     	STA zVibratoPointer + 1, X
08B8C 68                        	PLA
08B8D 95 36                     	STA zVibratoPointer, X
08B8F A9 00                     	LDA #0
08B91 99 3B 06                  	STA iVibratoOffset, Y
08B94 60                        	RTS
08B95                           
08B95                           
08B95                           ApplyVibrato:
08B95 B5 36                     	LDA zVibratoPointer, X
08B97 85 3E                     	STA zCurrentVibratoPointer
08B99 B5 37                     	LDA zVibratoPointer + 1, X
08B9B 85 3F                     	STA zCurrentVibratoPointer + 1
08B9D F0 48                     	BEQ ApplyVibrato_Exit
08B9F B9 3B 06                  	LDA iVibratoOffset, Y
08BA2 A8                        	TAY
08BA3 B1 3E                     	LDA (zCurrentVibratoPointer), Y
08BA5 F0 30                     	BEQ ApplyVibrato_Zero
08BA7                           ApplyVibrato_NonZero:
08BA7 AA                        	TAX
08BA8 CA                        	DEX
08BA9 F0 16                     	BEQ ApplyVibrato_Down
08BAB                           
08BAB                           ApplyVibrato_Up:
08BAB                           	; Vib = $ff
08BAB 48                        	PHA
08BAC AD 0D 06                  	LDA iCurrentChannel
08BAF 0A                        	ASL A
08BB0 AA                        	TAX
08BB1 68                        	PLA
08BB2 18                        	CLC
08BB3 75 2C                     	ADC zTargetPitch, X
08BB5 90 02                     	BCC ApplyVibrato_UpExit
08BB7 95 24                     	STA zCurrentPitch, X
08BB9                           ApplyVibrato_UpExit:
08BB9 98                        	TYA
08BBA AC 0D 06                  	LDY iCurrentChannel
08BBD 99 3B 06                  	STA iVibratoOffset, Y
08BC0 60                        	RTS
08BC1                           
08BC1                           ApplyVibrato_Down:
08BC1                           	; Vib = $01
08BC1 48                        	PHA
08BC2 AD 0D 06                  	LDA iCurrentChannel
08BC5 0A                        	ASL A
08BC6 AA                        	TAX
08BC7 68                        	PLA
08BC8 18                        	CLC
08BC9 75 2C                     	ADC zTargetPitch, X
08BCB B0 02                     	BCS ApplyVibrato_DownExit
08BCD 95 24                     	STA zCurrentPitch, X
08BCF                           ApplyVibrato_DownExit:
08BCF 98                        	TYA
08BD0 AC 0D 06                  	LDY iCurrentChannel
08BD3 99 3B 06                  	STA iVibratoOffset, Y
08BD6 60                        	RTS
08BD7                           
08BD7                           ApplyVibrato_Zero:
08BD7 A5 24                     	LDA zCurrentPitch
08BD9 C5 2C                     	CMP zTargetPitch
08BDB F0 0A                     	BEQ ApplyVibrato_Exit
08BDD                           
08BDD                           ApplyVibrato_Rewind:
08BDD                           	; encountered the next label
08BDD 88                        	DEY
08BDE B1 3E                     	LDA (zCurrentVibratoPointer), Y
08BE0 D0 FB                     	BNE ApplyVibrato_Rewind
08BE2 C8                        	INY
08BE3 B1 3E                     	LDA (zCurrentVibratoPointer), Y
08BE5 D0 C0                     	BNE ApplyVibrato_NonZero
08BE7                           
08BE7                           ApplyVibrato_Exit:
08BE7                           	; haven't reached vibrato yet
08BE7 98                        	TYA
08BE8 AC 0D 06                  	LDY iCurrentChannel
08BEB 99 3B 06                  	STA iVibratoOffset, Y
08BEE 60                        	RTS
08BEF                           
08BEF                           
08BEF                           ApplyPitchSlide:
08BEF A9 02                     	LDA #2
08BF1 CD 0D 06                  	CMP iCurrentChannel
08BF4 B0 04                     	BCS ApplyPitchSlide_NotFDS
08BF6                           
08BF6 A8                        	TAY
08BF7 C8                        	INY
08BF8 A2 06                     	LDX #6
08BFA                           
08BFA                           ApplyPitchSlide_NotFDS:
08BFA BD 55 06                  	LDA iTargetPitch + 1, X
08BFD 10 14                     	BPL ApplyPitchSlide_Quit
08BFF 38                        	SEC
08C00 BD 54 06                  	LDA iTargetPitch, X
08C03 F5 24                     	SBC zCurrentPitch, X
08C05 85 3C                     	STA zPitchSlideAmmount
08C07 BD 55 06                  	LDA iTargetPitch + 1, X
08C0A F5 25                     	SBC zCurrentPitch + 1, X
08C0C 85 3D                     	STA zPitchSlideAmmount + 1
08C0E 30 04                     	BMI ApplyPitchSlide_Down
08C10 4C 35 8C                  	JMP ApplyPitchSlide_Up
08C13                           
08C13                           ApplyPitchSlide_Quit:
08C13 60                        	RTS
08C14                           
08C14                           ApplyPitchSlide_Down:
08C14                           	; iTargetPitch > zCurrentPitch
08C14                           	; $F800 - $FFFF
08C14 18                        	CLC
08C15 B9 44 06                  	LDA iPitchSlideIncrementation, Y
08C18 75 24                     	ADC zCurrentPitch, X
08C1A 95 24                     	STA zCurrentPitch, X
08C1C A9 00                     	LDA #0
08C1E 75 25                     	ADC zCurrentPitch + 1, X
08C20 95 25                     	STA zCurrentPitch + 1, X
08C22 B9 44 06                  	LDA iPitchSlideIncrementation, Y
08C25 65 3C                     	ADC zPitchSlideAmmount
08C27 85 3C                     	STA zPitchSlideAmmount
08C29 A9 00                     	LDA #0
08C2B 65 3D                     	ADC zPitchSlideAmmount + 1
08C2D 85 3D                     	STA zPitchSlideAmmount + 1
08C2F F0 25                     	BEQ ApplyPitchSlide_Done
08C31                           
08C31 AC 0D 06                  	LDY iCurrentChannel
08C34 60                        	RTS
08C35                           
08C35                           ApplyPitchSlide_Up:
08C35                           	; iTargetPitch < zCurrentPitch
08C35                           	; $0000 - $07FF
08C35 38                        	SEC
08C36 B9 44 06                  	LDA iPitchSlideIncrementation, Y
08C39 F5 24                     	SBC zCurrentPitch, X
08C3B 95 24                     	STA zCurrentPitch, X
08C3D B5 25                     	LDA zCurrentPitch + 1, X
08C3F E9 00                     	SBC #0
08C41 95 24                     	STA zCurrentPitch, X
08C43 B9 44 06                  	LDA iPitchSlideIncrementation, Y
08C46 E5 3C                     	SBC zPitchSlideAmmount
08C48 85 3C                     	STA zPitchSlideAmmount
08C4A A5 3D                     	LDA zPitchSlideAmmount + 1
08C4C E9 00                     	SBC #0
08C4E 85 3D                     	STA zPitchSlideAmmount + 1
08C50 90 04                     	BCC ApplyPitchSlide_Done
08C52                           
08C52 AC 0D 06                  	LDY iCurrentChannel
08C55 60                        	RTS
08C56                           
08C56                           ApplyPitchSlide_Done:
08C56 BD 55 06                  	LDA iTargetPitch + 1, X
08C59 49 80                     	EOR #$80
08C5B 9D 55 06                  	STA iTargetPitch + 1, X
08C5E 95 25                     	STA zCurrentPitch + 1, X
08C60 BD 54 06                  	LDA iTargetPitch, X
08C63 95 24                     	STA zCurrentPitch, X
08C65 A9 00                     	LDA #0
08C67 99 44 06                  	STA iPitchSlideIncrementation, Y
08C6A 85 3C                     	STA zPitchSlideAmmount
08C6C 85 3D                     	STA zPitchSlideAmmount + 1
08C6E AC 0D 06                  	LDY iCurrentChannel
08C71 60                        	RTS
08C72                           
08C72                           
08C72                           ApplyFade:
08C72                           	; are we in the FDS channel?
08C72 C0 02                     	CPY #2
08C74 B0 2E                     	BCS ApplyFade_FDS
08C76 98                        	TYA
08C77 AA                        	TAX
08C78                           	; in or out?
08C78 B9 3E 06                  	LDA iInstrumentFade, Y
08C7B C9 0F                     	CMP #$0f
08C7D F0 4E                     	BEQ ApplyFade_None
08C7F B0 4D                     	BCS ApplyFade_In
08C81                           	; pulse channel
08C81                           	; if iFadeCounter stays non zero, fallthrough
08C81 DE 41 06                  	DEC iFadeCounter, X
08C84 D0 47                     	BNE ApplyFade_None
08C86                           	; reset counter
08C86 B9 3E 06                  	LDA iInstrumentFade, Y
08C89 29 0F                     	AND #$0f
08C8B 69 01                     	ADC #1
08C8D 99 41 06                  	STA iFadeCounter, Y
08C90                           
08C90                           	; if volume alone is non-zero, fallthrough
08C90 B9 38 06                  	LDA iInstrumentOffset, Y
08C93 A8                        	TAY
08C94 B1 34                     	LDA (zInstrumentPointer), Y
08C96 AC 0D 06                  	LDY iCurrentChannel
08C99 29 0F                     	AND #$0f
08C9B 79 4C 06                  	ADC iFadeOffset, Y
08C9E F0 2D                     	BEQ ApplyFade_None
08CA0                           
08CA0 DE 4C 06                  	DEC iFadeOffset, X
08CA3 60                        	RTS
08CA4                           
08CA4                           ApplyFade_FDS:
08CA4                           	; 2C33 channel
08CA4                           	; in or out?
08CA4 AD 40 06                  	LDA iFDSInstrumentFade
08CA7 C9 0F                     	CMP #$0f
08CA9 F0 22                     	BEQ ApplyFade_FDSNone
08CAB B0 44                     	BCS ApplyFade_FDSIn
08CAD                           	; if iFDSFadeCounter stays non-zero, fallthrough
08CAD CE 43 06                  	DEC iFDSFadeCounter
08CB0 D0 1B                     	BNE ApplyFade_FDSNone
08CB2                           	; reset counter
08CB2 AD 40 06                  	LDA iFDSInstrumentFade
08CB5 29 0F                     	AND #$0f
08CB7 69 01                     	ADC #1
08CB9 8D 43 06                  	STA iFDSFadeCounter
08CBC                           
08CBC                           	; if volume alone is non-zero, fallthrough
08CBC AD 3A 06                  	LDA iFDSInstrumentOffset
08CBF A8                        	TAY
08CC0 B1 34                     	LDA (zInstrumentPointer), Y
08CC2 AC 0D 06                  	LDY iCurrentChannel
08CC5 6D 4E 06                  	ADC iFDSFadeOffset
08CC8 F0 03                     	BEQ ApplyFade_FDSNone
08CCA                           
08CCA CE 4E 06                  	DEC iFDSFadeOffset
08CCD                           
08CCD                           ApplyFade_None:
08CCD                           ApplyFade_FDSNone:
08CCD 60                        	RTS
08CCE                           
08CCE                           ApplyFade_In:
08CCE                           	; if iFadeCounter stays non zero, fallthrough
08CCE DE 41 06                  	DEC iFadeCounter, X
08CD1 D0 FA                     	BNE ApplyFade_None
08CD3                           	; reset counter
08CD3 B9 3E 06                  	LDA iInstrumentFade, Y
08CD6 29 0F                     	AND #$0f
08CD8 69 00                     	ADC #0
08CDA 99 41 06                  	STA iFadeCounter, Y
08CDD                           	; get volume
08CDD B9 38 06                  	LDA iInstrumentOffset, Y
08CE0 A8                        	TAY
08CE1 B1 34                     	LDA (zInstrumentPointer), Y
08CE3 AC 0D 06                  	LDY iCurrentChannel
08CE6 29 0F                     	AND #$0f
08CE8                           	; 2's complement + 1
08CE8 49 FF                     	EOR #$ff
08CEA 18                        	CLC
08CEB 69 02                     	ADC #2
08CED 99 4C 06                  	STA iFadeOffset, Y
08CF0 60                        	RTS
08CF1                           
08CF1                           ApplyFade_FDSIn:
08CF1                           	; if iFDSFadeCounter stays non-zero, fallthrough
08CF1 CE 43 06                  	DEC iFDSFadeCounter
08CF4 D0 D7                     	BNE ApplyFade_FDSNone
08CF6                           	; reset counter
08CF6 AD 40 06                  	LDA iFDSInstrumentFade
08CF9 29 0F                     	AND #$0f
08CFB 69 00                     	ADC #0
08CFD 8D 43 06                  	STA iFDSFadeCounter
08D00                           	; get volume
08D00 AD 3A 06                  	LDA iFDSInstrumentOffset
08D03 A8                        	TAY
08D04 B1 34                     	LDA (zInstrumentPointer), Y
08D06 AC 0D 06                  	LDY iCurrentChannel
08D09 29 1F                     	AND #$1f
08D0B                           	; 2's complement
08D0B 49 FF                     	EOR #$ff
08D0D 18                        	CLC
08D0E 69 01                     	ADC #1
08D10 8D 4E 06                  	STA iFDSFadeOffset
08D13 60                        	RTS
08D14                           
08D14                           
08D14                           CheckPulseFade:
08D14 A9 00                     	LDA #0
08D16 8D 2C 06                  	STA iSoundMathBuffer
08D19 B9 38 06                  	LDA iInstrumentOffset, Y
08D1C A8                        	TAY
08D1D B1 34                     	LDA (zInstrumentPointer), Y
08D1F 29 0F                     	AND #$0f
08D21 18                        	CLC
08D22 6D 4C 06                  	ADC iFadeOffset
08D25 F0 03                     	BEQ CheckPulseFade_FixOffset
08D27 90 01                     	BCC CheckPulseFade_FixOffset
08D29 60                        	RTS
08D2A                           
08D2A                           CheckPulseFade_FixOffset:
08D2A EE 2C 06                  	INC iSoundMathBuffer
08D2D B1 34                     	LDA (zInstrumentPointer), Y
08D2F 29 0F                     	AND #$0f
08D31 18                        	CLC
08D32 6D 2C 06                  	ADC iSoundMathBuffer
08D35 6D 4C 06                  	ADC iFadeOffset
08D38 F0 F0                     	BEQ CheckPulseFade_FixOffset
08D3A 90 EE                     	BCC CheckPulseFade_FixOffset
08D3C 60                        	RTS
08D3D                           
08D3D                           
08D3D                           ;
08D3D                           ; Arpeggio application
08D3D                           ;
08D3D                           ; Before western composers get excited, keep in mind this is used for the power
08D3D                           ; snare instruments, which are grouped by hardcoding the point where
08D3D                           ; arpeggiation stops in the instrument pointer offset.
08D3D                           ;
08D3D                           ; In other words arp'd chords are impossible.  Power snares alternate pitch by
08D3D                           ; a tritone to make convincing noise.
08D3D                           ;
08D3D                           ApplyFDSArp:
08D3D AD 48 06                  	LDA iRestingTail
08D40 C9 02                     	CMP #$02
08D42 D0 10                     	BNE ApplyFDSArp_Quit
08D44                           
08D44 AD 52 06                  	LDA iFDSArpPitch
08D47 0D 53 06                  	ORA iFDSArpPitch + 1
08D4A F0 1C                     	BEQ ApplyFDSArp_Begin
08D4C                           
08D4C A5 2A                     	LDA zCurrent2C33Pitch
08D4E C5 32                     	CMP zTarget2C33Pitch
08D50 F0 0C                     	BEQ ApplyFDSArp_Set
08D52 D0 01                     	BNE ApplyFDSArp_Reset
08D54                           
08D54                           ApplyFDSArp_Quit:
08D54 60                        	RTS
08D55                           
08D55                           ApplyFDSArp_Reset:
08D55 A5 32                     	LDA zTarget2C33Pitch
08D57 85 2A                     	STA zCurrent2C33Pitch
08D59 A5 33                     	LDA zTarget2C33Pitch + 1
08D5B 85 2B                     	STA zCurrent2C33Pitch + 1
08D5D 60                        	RTS
08D5E                           
08D5E                           ApplyFDSArp_Set:
08D5E AD 52 06                  	LDA iFDSArpPitch
08D61 85 2A                     	STA zCurrent2C33Pitch
08D63 AD 53 06                  	LDA iFDSArpPitch + 1
08D66 85 2B                     	STA zCurrent2C33Pitch + 1
08D68                           
08D68                           ApplyFDSArp_Begin:
08D68 AD 0D 06                  	LDA iCurrentChannel
08D6B 0A                        	ASL A
08D6C AA                        	TAX
08D6D B5 0C                     	LDA zMusicDataPointers, X
08D6F D0 02                     	BNE ApplyFDSArp_NoCarry1
08D71                           
08D71 D6 0D                     	DEC zMusicDataPointers + 1, X
08D73                           ApplyFDSArp_NoCarry1:
08D73 D6 0C                     	DEC zMusicDataPointers, X
08D75 20 E0 87                  	JSR ReadMusicData
08D78 48                        	PHA
08D79 29 70                     	AND #OCTAVE_MASK
08D7B 8D 1F 06                  	STA iOctaves + 3
08D7E 68                        	PLA
08D7F 29 0F                     	AND #NOTE_MASK
08D81 F0 14                     	BEQ ApplyFDSArp_Bail
08D83 C9 0D                     	CMP #TIE_VALUE
08D85 B0 10                     	BCS ApplyFDSArp_Bail
08D87 69 06                     	ADC #6
08D89 0A                        	ASL A
08D8A AA                        	TAX
08D8B BD 9C 90                  	LDA Notes_2C33, X
08D8E 8D 52 06                  	STA iFDSArpPitch
08D91 BD 9D 90                  	LDA Notes_2C33 + 1, X
08D94 8D 53 06                  	STA iFDSArpPitch + 1
08D97                           ApplyFDSArp_Bail:
08D97 60                        	RTS
08D98                           
08D98                           .include "src/music/instruments-2a03.asm"
08D98                           InstrumentPointers:
08D98 D6 8D                     	.dw Ins_Bass15
08D9A E2 8D                     	.dw Ins_Bass5
08D9C EE 8D                     	.dw Ins_Piano15
08D9E 12 8E                     	.dw Ins_Piano10
08DA0 36 8E                     	.dw Ins_Piano7
08DA2 56 8E                     	.dw Ins_Piano5
08DA4 78 8E                     	.dw Ins_Saw12
08DA6 7A 8E                     	.dw Ins_Saw11
08DA8 7C 8E                     	.dw Ins_Saw10
08DAA 7E 8E                     	.dw Ins_Saw9
08DAC 80 8E                     	.dw Ins_Saw8
08DAE 82 8E                     	.dw Ins_Saw7
08DB0 84 8E                     	.dw Ins_Saw6
08DB2 86 8E                     	.dw Ins_Saw5
08DB4 88 8E                     	.dw Ins_Saw4
08DB6 8A 8E                     	.dw Ins_Saw3
08DB8 8C 8E                     	.dw Ins_Saw2
08DBA 8E 8E                     	.dw Ins_Saw1
08DBC 76 8E                     	.dw Ins_Saw13
08DBE 82 8E                     	.dw Ins_Saw7
08DC0 8A 8E                     	.dw Ins_Saw3
08DC2 D6 8D                     	.dw Ins_Bass15 ; From here on, tail rests
08DC4 E2 8D                     	.dw Ins_Bass5
08DC6 EE 8D                     	.dw Ins_Piano15
08DC8 12 8E                     	.dw Ins_Piano10
08DCA 36 8E                     	.dw Ins_Piano7
08DCC 56 8E                     	.dw Ins_Piano5
08DCE 80 8E                     	.dw Ins_Saw8
08DD0 82 8E                     	.dw Ins_Saw7
08DD2 90 8E                     	.dw Ins_BassTrem
08DD4 82 8E                     	.dw Ins_Saw7
08DD6                           
08DD6                           Ins_Bass15:
08DD6 1B 17 57 58               	.db $1B, $17, $57, $58
08DDA 18 18 58 59               	.db $18, $18, $58, $59
08DDE 19 19 59                  	.db $19, $19, $59
08DE1 FB                        	.db $FB
08DE2                           
08DE2                           Ins_Bass5:
08DE2 14 14 54 53               	.db $14, $14, $54, $53
08DE6 13 13 53 53               	.db $13, $13, $53, $53
08DEA 13 13 53                  	.db $13, $13, $53
08DED FB                        	.db $FB
08DEE                           
08DEE                           Ins_Piano15:
08DEE 9A 17 58 57               	.db $9A, $17, $58, $57
08DF2 95 16 57 57               	.db $95, $16, $57, $57
08DF6 97 17 56 56               	.db $97, $17, $56, $56
08DFA 96 16 55 55               	.db $96, $16, $55, $55
08DFE 95 15 54 54               	.db $95, $15, $54, $54
08E02 94 14 53 53               	.db $94, $14, $53, $53
08E06 93 13 52 52               	.db $93, $13, $52, $52
08E0A 92 12 51 51               	.db $92, $12, $51, $51
08E0E 91 11 50                  	.db $91, $11, $50
08E11 FE                        	.db $FE
08E12                           
08E12                           Ins_Piano10:
08E12 97 15 55 55               	.db $97, $15, $55, $55
08E16 93 14 55 55               	.db $93, $14, $55, $55
08E1A 95 15 54 54               	.db $95, $15, $54, $54
08E1E 94 14 53 53               	.db $94, $14, $53, $53
08E22 93 13 53 53               	.db $93, $13, $53, $53
08E26 93 13 52 52               	.db $93, $13, $52, $52
08E2A 92 12 51 51               	.db $92, $12, $51, $51
08E2E 91 11 51 51               	.db $91, $11, $51, $51
08E32 91 11 50                  	.db $91, $11, $50
08E35 FE                        	.db $FE
08E36                           
08E36                           Ins_Piano7:
08E36 95 13 54 53               	.db $95, $13, $54, $53
08E3A 92 13 53 53               	.db $92, $13, $53, $53
08E3E 93 13 53 53               	.db $93, $13, $53, $53
08E42 93 13 52 52               	.db $93, $13, $52, $52
08E46 92 12 52 52               	.db $92, $12, $52, $52
08E4A 92 12 51 51               	.db $92, $12, $51, $51
08E4E 91 11 51 51               	.db $91, $11, $51, $51
08E52 91 11 50                  	.db $91, $11, $50
08E55 FE                        	.db $FE
08E56                           
08E56                           Ins_Piano5:
08E56 93 12 53 52               	.db $93, $12, $53, $52
08E5A 92 12 52 52               	.db $92, $12, $52, $52
08E5E 92 12 52 52               	.db $92, $12, $52, $52
08E62 92 12 52 52               	.db $92, $12, $52, $52
08E66 92 12 51 51               	.db $92, $12, $51, $51
08E6A 91 11 51 51               	.db $91, $11, $51, $51
08E6E 91 11 51 51               	.db $91, $11, $51, $51
08E72 91 11 50                  	.db $91, $11, $50
08E75 FE                        	.db $FE
08E76                           
08E76                           Ins_Saw13:
08E76 5D                        	.db $5D
08E77 FE                        	.db $FE
08E78                           
08E78                           Ins_Saw12:
08E78 5C                        	.db $5C
08E79 FE                        	.db $FE
08E7A                           
08E7A                           Ins_Saw11:
08E7A 5B                        	.db $5B
08E7B FE                        	.db $FE
08E7C                           
08E7C                           Ins_Saw10:
08E7C 5A                        	.db $5A
08E7D FE                        	.db $FE
08E7E                           
08E7E                           Ins_Saw9:
08E7E 59                        	.db $59
08E7F FE                        	.db $FE
08E80                           
08E80                           Ins_Saw8:
08E80 58                        	.db $58
08E81 FE                        	.db $FE
08E82                           
08E82                           Ins_Saw7:
08E82 57                        	.db $57
08E83 FE                        	.db $FE
08E84                           
08E84                           Ins_Saw6:
08E84 56                        	.db $56
08E85 FE                        	.db $FE
08E86                           
08E86                           Ins_Saw5:
08E86 55                        	.db $55
08E87 FE                        	.db $FE
08E88                           
08E88                           Ins_Saw4:
08E88 54                        	.db $54
08E89 FE                        	.db $FE
08E8A                           
08E8A                           Ins_Saw3:
08E8A 53                        	.db $53
08E8B FE                        	.db $FE
08E8C                           
08E8C                           Ins_Saw2:
08E8C 52                        	.db $52
08E8D FE                        	.db $FE
08E8E                           
08E8E                           Ins_Saw1:
08E8E 51                        	.db $51
08E8F FE                        	.db $FE
08E90                           
08E90                           Ins_BassTrem:
08E90 19 12 51 52               	.db $19, $12, $51, $52
08E94 13 16 58 57               	.db $13, $16, $58, $57
08E98 15 12 52 53               	.db $15, $12, $52, $53
08E9C 15 17 55 53               	.db $15, $17, $55, $53
08EA0 11 11 52 54               	.db $11, $11, $52, $54
08EA4 17 14 52 51               	.db $17, $14, $52, $51
08EA8 11 11 53 56               	.db $11, $11, $53, $56
08EAC 15 11 51 51               	.db $15, $11, $51, $51
08EB0 11 11 53 53               	.db $11, $11, $53, $53
08EB4 11 11 51 51               	.db $11, $11, $51, $51
08EB8 11 12 53 51               	.db $11, $12, $53, $51
08EBC 11 11 51 51               	.db $11, $11, $51, $51
08EC0 11 12 51 51               	.db $11, $12, $51, $51
08EC4 11 11 51 51               	.db $11, $11, $51, $51
08EC8 11 11 51 51               	.db $11, $11, $51, $51
08ECC 11 11 51 51               	.db $11, $11, $51, $51
08ED0 11 11 51 51               	.db $11, $11, $51, $51
08ED4 11 10                     	.db $11, $10
08ED6 FE                        	.db $FE
08ED7                           .include "src/music/instruments-2c33.asm"
08ED7                           FDSInstrumentPointers:
08ED7                           	; TRITONE ARPEGGIATED
08ED7 28 8F                     	.dw Snare1_1 ; COMMON
08ED9 3E 8F                     	.dw Snare1_2 ; GOAL
08EDB 54 8F                     	.dw Snare1_3 ; UNFORTUNATE
08EDD 73 8F                     	.dw Snare3   ; UNFORTUNATE
08EDF 89 8F                     	.dw Snare4   ; VC
08EE1 92 8F                     	.dw Snare5   ; WARMUP OVER
08EE3                           	; NORMAL
08EE3 FB 8E                     	.dw Kick1_1  ; COMMON
08EE5 14 8F                     	.dw Kick1_2  ; SSB, VC
08EE7 19 8F                     	.dw Kick2    ; MENU
08EE9 5A 8F                     	.dw Snare2_1 ; TUTORIAL, SSB, VC
08EEB 5F 8F                     	.dw Snare2_2 ; FORTUNATE
08EED 64 8F                     	.dw Snare2_3 ; FORTUNATE
08EEF 69 8F                     	.dw Snare2_4 ; FORTUNATE
08EF1 6E 8F                     	.dw Snare2_5 ; FORTUNATE
08EF3 98 8F                     	.dw Saw1     ; COUNTDOWN
08EF5 9A 8F                     	.dw Saw2     ; CONGRATS
08EF7 98 8F                     	.dw Saw1     ; FINAL TRIAL
08EF9 98 8F                     	.dw Saw1     ; FINAL TRIAL
08EFB                           
08EFB                           Kick1_1:
08EFB A0 98 8F 8B 88 86 85 85.. 	.db $A0, $98, $8F, $8B, $88, $86, $85, $85, $84, $84, $84, $83
08F07 83 82 82 82 82 82 81 81.. 	.db $83, $82, $82, $82, $82, $82, $81, $81, $81, $81, $81, $80, $FF
08F14                           
08F14                           Kick1_2:
08F14 A0 98 8F 80 FF            	.db $A0, $98, $8F, $80, $FF
08F19                           
08F19                           Kick2:
08F19 9E 90 8B 87 85 84 83      	.db $9E, $90, $8B, $87, $85, $84, $83
08F20 82 82 82 81 81 81 80 FF   	.db $82, $82, $82, $81, $81, $81, $80, $FF
08F28                           
08F28                           Snare1_1:
08F28 A0 9B 97 94 93 90 8E 8D.. 	.db $A0, $9B, $97, $94, $93, $90, $8E, $8D, $8D, $8D, $8C
08F33 8B 8A 89 88 86 85 84 82.. 	.db $8B, $8A, $89, $88, $86, $85, $84, $82, $81, $80, $FF
08F3E                           
08F3E                           Snare1_2:
08F3E 96 93 90 8E 8D 8B 8A 89.. 	.db $96, $93, $90, $8E, $8D, $8B, $8A, $89, $89, $89, $88
08F49 88 87 86 86 84 83 83 81.. 	.db $88, $87, $86, $86, $84, $83, $83, $81, $81, $80, $FF
08F54                           
08F54                           Snare1_3:
08F54 9A 96 93 90 8F FF         	.db $9A, $96, $93, $90, $8F, $FF
08F5A                           
08F5A                           Snare2_1:
08F5A 9F 92 8C 80 FF            	.db $9F, $92, $8C, $80, $FF
08F5F                           
08F5F                           Snare2_2:
08F5F 9D 91 8B 80 FF            	.db $9D, $91, $8B, $80, $FF
08F64                           
08F64                           Snare2_3:
08F64 9B 90 8B 80 FF            	.db $9B, $90, $8B, $80, $FF
08F69                           
08F69                           Snare2_4:
08F69 99 8F 8A 80 FF            	.db $99, $8F, $8A, $80, $FF
08F6E                           
08F6E                           Snare2_5:
08F6E 97 8E 89 80 FF            	.db $97, $8E, $89, $80, $FF
08F73                           
08F73                           Snare3:
08F73 A0 97 91 92 93 8E 8B 8C.. 	.db $A0, $97, $91, $92, $93, $8E, $8B, $8C, $8D, $8C, $88
08F7E 89 8A 88 83 84 85 84 82.. 	.db $89, $8A, $88, $83, $84, $85, $84, $82, $81, $80, $FF
08F89                           
08F89                           Snare4:
08F89 A0 9B 97 94 93 90 8E 80.. 	.db $A0, $9B, $97, $94, $93, $90, $8E, $80, $FF
08F92                           
08F92                           Snare5:
08F92 A0 9B 97 94 80 FF         	.db $A0, $9B, $97, $94, $80, $FF
08F98                           
08F98                           Saw1:
08F98 92 FE                     	.db $92, $FE
08F9A                           
08F9A                           Saw2:
08F9A 90 FE                     	.db $90, $FE
08F9C                           .include "src/music/mod-tables.asm"
08F9C                           ModTablePointers:
08F9C DE 8F                     	.dw MT_Snare
08F9E DE 8F                     	.dw MT_Snare
08FA0 DE 8F                     	.dw MT_Snare
08FA2 DE 8F                     	.dw MT_Snare
08FA4 DE 8F                     	.dw MT_Snare
08FA6 DE 8F                     	.dw MT_Snare
08FA8 BE 8F                     	.dw MT_Kick
08FAA BE 8F                     	.dw MT_Kick
08FAC BE 8F                     	.dw MT_Kick
08FAE DE 8F                     	.dw MT_Snare
08FB0 DE 8F                     	.dw MT_Snare
08FB2 DE 8F                     	.dw MT_Snare
08FB4 DE 8F                     	.dw MT_Snare
08FB6 DE 8F                     	.dw MT_Snare
08FB8 3E 90                     	.dw MT_Saw
08FBA 1E 90                     	.dw MT_SFX2
08FBC 1E 90                     	.dw MT_SFX2
08FBE                           
08FBE                           MT_Kick:
08FBE 04 05 05 05 05 05 05 05   	.db $04, $05, $05, $05, $05, $05, $05, $05
08FC6 05 00 03 03 03 03 03 03   	.db $05, $00, $03, $03, $03, $03, $03, $03
08FCE 04 03 03 03 03 03 03 03   	.db $04, $03, $03, $03, $03, $03, $03, $03
08FD6 00 05 05 05 05 05 05 05   	.db $00, $05, $05, $05, $05, $05, $05, $05
08FDE                           
08FDE                           MT_Snare:
08FDE 04 02 06 05 05 07 02 03   	.db $04, $02, $06, $05, $05, $07, $02, $03
08FE6 05 05 01 05 05 02 02 00   	.db $05, $05, $01, $05, $05, $02, $02, $00
08FEE 05 05 03 05 06 06 00 01   	.db $05, $05, $03, $05, $06, $06, $00, $01
08FF6 05 05 05 03 06 00 00 06   	.db $05, $05, $05, $03, $06, $00, $00, $06
08FFE                           
08FFE                           MT_SFX1:
08FFE 04 07 07 07 07 07 07 00   	.db $04, $07, $07, $07, $07, $07, $07, $00
09006 00 00 01 01 01 01 01 01   	.db $00, $00, $01, $01, $01, $01, $01, $01
0900E 04 01 01 01 01 01 01 00   	.db $04, $01, $01, $01, $01, $01, $01, $00
09016 00 00 07 07 07 07 07 07   	.db $00, $00, $07, $07, $07, $07, $07, $07
0901E                           
0901E                           MT_SFX2:
0901E 04 05 05 05 05 05 05 05   	.db $04, $05, $05, $05, $05, $05, $05, $05
09026 05 05 05 05 05 05 05 05   	.db $05, $05, $05, $05, $05, $05, $05, $05
0902E 04 03 03 03 03 03 03 03   	.db $04, $03, $03, $03, $03, $03, $03, $03
09036 03 03 03 03 03 03 03 03   	.db $03, $03, $03, $03, $03, $03, $03, $03
0903E                           
0903E                           MT_Saw:
0903E 04 00 00 00 00 00 00 00   	.db $04, $00, $00, $00, $00, $00, $00, $00
09046 00 00 00 00 00 00 00 00   	.db $00, $00, $00, $00, $00, $00, $00, $00
0904E 04 07 00 00 00 00 00 00   	.db $04, $07, $00, $00, $00, $00, $00, $00
09056 00 00 00 00 00 00 00 00   	.db $00, $00, $00, $00, $00, $00, $00, $00
0905E                           .include "src/music/modulation-data.asm"
0905E                           Mod_Depths:
0905E BF BF BF BF BF BF         	.db $BF, $BF, $BF, $BF, $BF, $BF
09064 BF BF BF                  	.db $BF, $BF, $BF
09067 87 87 87 87 87            	.db $87, $87, $87, $87, $87
0906C 81 80 80                  	.db $81, $80, $80
0906F                           
0906F                           Mod_Rates:
0906F FD FD FD FD FD FD         	.db $FD, $FD, $FD, $FD, $FD, $FD
09075 1C 1C 1C                  	.db $1C, $1C, $1C
09078 FD FD FD FD FD            	.db $FD, $FD, $FD, $FD, $FD
0907D 18 00 00                  	.db $18, $00, $0009080                           .include "src/music/notes.asm"
09080                           ;			actual unaltered note
09080                           Notes_2A03:
09080 FF 0F                     	.dw $0fff
09082 5B 0D                     	.dw $0d5b	; e-2  -18
09084 9C 0C                     	.dw $0c9c	; f#2  +42
09086 E6 0B                     	.dw $0be6	; a-2  +30
09088 38 0B                     	.dw $0b38	; c#3  -37
0908A 9A 0A                     	.dw $0a9a	; e-3  +30
0908C 01 0A                     	.dw $0a01	; a-2  -18
0908E 72 09                     	.dw $0972	; d-4  +45
09090 EA 08                     	.dw $08ea	; a#4  +36
09092 6A 08                     	.dw $086a	; c-6  -01
09094 F1 07                     	.dw $07f1
09096 7F 07                     	.dw $077f
09098 13 07                     	.dw $0713
0909A AD 06                     	.dw $06ad
0909C                           Notes_2C33:
0909C 00 00                     	.dw $0000
0909E 94 09                     	.dw $0994
090A0 26 0A                     	.dw $0a26
090A2 C1 0A                     	.dw $0ac1
090A4 64 0B                     	.dw $0b64
090A6 12 0C                     	.dw $0c12
090A8 CA 0C                     	.dw $0cca
090AA 8C 0D                     	.dw $0d8c
090AC 5B 0E                     	.dw $0e5b
090AE 35 0F                     	.dw $0f35
090B0 1D 10                     	.dw $101d	; g--1 +17
090B2 12 11                     	.dw $1112	; a#2  +05
090B4 16 12                     	.dw $1216	; a#3  -39
090B6                           	; ARP pitches
090B6 28 13                     	.dw $1328
090B8 4C 14                     	.dw $144c
090BA 82 15                     	.dw $1582
090BC C8 16                     	.dw $16c8
090BE 24 18                     	.dw $1824
090C0 94 19                     	.dw $1994090C2                           .include "src/music/tempos.asm"
090C2                           ; BPM KEY
090C2                           ; $10 =  225
090C2                           ; $11 = ~212
090C2                           ; $12 =  200
090C2                           ; $13 = ~189
090C2                           ; $14 =  180
090C2                           ; $15 = ~171
090C2                           ; $16 = ~164
090C2                           ; $17 = ~157
090C2                           ; $18 =  150
090C2                           ; $19 =  144
090C2                           ; $1A = ~138
090C2                           ; $1B = ~133
090C2                           ; $1C = ~129
090C2                           ; $1D = ~124
090C2                           ; $1E =  120
090C2                           ; $1F = ~116
090C2                           MusicTempos:
090C2                           	; iMusic1
090C2 14                        	.db $14 ; $10
090C3 12                        	.db $12 ; $0E
090C4 14                        	.db $14 ; $10
090C5 18                        	.db $18 ; $14
090C6 18                        	.db $18 ; $14
090C7 18                        	.db $18 ; $14
090C8 10                        	.db $10 ; $0C
090C9 16                        	.db $16 ; $12
090CA                           	; iMusic2
090CA 16                        	.db $16 ; $12
090CB 18                        	.db $18 ; $14
090CC 1E                        	.db $1E ; $1A
090CD 15                        	.db $15 ; $12
090CE 17                        	.db $17 ; $13
090CF 18                        	.db $18 ; $14
090D0 13                        	.db $13 ; $10
090D1 18                        	.db $18 ; $14
090D2                           	; iMusic3
090D2 1E                        	.db $1E ; $1A
090D3 18                        	.db $18 ; $14
090D4 13                        	.db $13 ; $10
090D5 FF                        	.db $ff
090D6 FF                        	.db $ff
090D7 FF                        	.db $ff
090D8 FF                        	.db $ff
090D9 FF                        	.db $ff090DA                           .include "src/music/vibrato.asm"
090DA                           ;
090DA                           ; Vibrato
090DA                           ;
090DA                           ; Instruments operate with vibrato
090DA                           ;
090DA                           Vibrato:
090DA DE 90                     	.dw Piano
090DC F8 90                     	.dw Bass
090DE                           
090DE                           Piano:
090DE 00 00 00 00               	.db $00, $00, $00, $00
090E2 00 00 00 00               	.db $00, $00, $00, $00
090E6 00 00 00 00               	.db $00, $00, $00, $00
090EA 00 00 00 00               	.db $00, $00, $00, $00
090EE 00                        	.db $00
090EF 01 01 01 01               	.db $01, $01, $01, $01
090F3 FF FF FF FF               	.db $FF, $FF, $FF, $FF
090F7 00                        	.db $00
090F8                           
090F8                           Bass:
090F8 00 00 00                  	.db $00, $00, $00
090FB 00 00 00                  	.db $00, $00, $00
090FE 00 00                     	.db $00, $00
09100 01 01 01                  	.db $01, $01, $01
09103 FF FF FF                  	.db $FF, $FF, $FF
09106 00                        	.db $00
09107                           
09107                           InstrumentVibratos:
09107 01 01 00 00               	.db $01, $01, $00, $00
0910B 00 00 01 01               	.db $00, $00, $01, $01
0910F 01 01 01 01               	.db $01, $01, $01, $01
09113 01 01 01 01               	.db $01, $01, $01, $01
09117 01 01 00 00               	.db $01, $01, $00, $00
0911B 00                        	.db $00
0911C 01 01 00 00               	.db $01, $01, $00, $00
09120 00 00 01 00               	.db $00, $00, $01, $00
09124 01 01                     	.db $01, $01
09126                           .include "src/music/wav-tables.asm"
09126                           WavPointers:
09126 88 91                     	.dw Wav_Snare1
09128 88 91                     	.dw Wav_Snare1
0912A 88 91                     	.dw Wav_Snare1
0912C 88 91                     	.dw Wav_Snare1
0912E 88 91                     	.dw Wav_Snare1
09130 88 91                     	.dw Wav_Snare1
09132 48 91                     	.dw Wav_Kick
09134 48 91                     	.dw Wav_Kick
09136 48 91                     	.dw Wav_Kick
09138 C8 91                     	.dw Wav_Snare2
0913A C8 91                     	.dw Wav_Snare2
0913C C8 91                     	.dw Wav_Snare2
0913E C8 91                     	.dw Wav_Snare2
09140 C8 91                     	.dw Wav_Snare2
09142 08 92                     	.dw Wav_Saw
09144 08 92                     	.dw Wav_Saw
09146 08 92                     	.dw Wav_Saw
09148                           
09148                           Wav_Kick:
09148 0B 06 04 01 00 00 00 00   	.db $0B, $06, $04, $01, $00, $00, $00, $00
09150 00 00 00 00 00 19 01 00   	.db $00, $00, $00, $00, $00, $19, $01, $00
09158 12 00 00 00 00 00 00 00   	.db $12, $00, $00, $00, $00, $00, $00, $00
09160 00 00 00 00 01 01 0A 24   	.db $00, $00, $00, $00, $01, $01, $0A, $24
09168 2E 39 3B 3D 3E 3E 3F 3F   	.db $2E, $39, $3B, $3D, $3E, $3E, $3F, $3F
09170 3F 3F 3F 3F 3F 3F 3F 3F   	.db $3F, $3F, $3F, $3F, $3F, $3F, $3F, $3F
09178 3F 3F 3F 3F 3F 3F 3F 3F   	.db $3F, $3F, $3F, $3F, $3F, $3F, $3F, $3F
09180 3D 3B 36 2E 2A 24 1F 19   	.db $3D, $3B, $36, $2E, $2A, $24, $1F, $19
09188                           
09188                           Wav_Snare1:
09188 3C 3F 3D 39 33 29 16 0E   	.db $3C, $3F, $3D, $39, $33, $29, $16, $0E
09190 07 00 00 02 08 11 17 1E   	.db $07, $00, $00, $02, $08, $11, $17, $1E
09198 23 27 2A 2F 34 35 36 36   	.db $23, $27, $2A, $2F, $34, $35, $36, $36
091A0 37 14 00 37 37 37 37 35   	.db $37, $14, $00, $37, $37, $37, $37, $35
091A8 31 2C 29 28 25 22 1F 1C   	.db $31, $2C, $29, $28, $25, $22, $1F, $1C
091B0 1B 1A 18 17 16 15 3D 14   	.db $1B, $1A, $18, $17, $16, $15, $3D, $14
091B8 14 14 14 14 16 18 18 1A   	.db $14, $14, $14, $14, $16, $18, $18, $1A
091C0 1B 1D 20 22 24 25 2A 2F   	.db $1B, $1D, $20, $22, $24, $25, $2A, $2F
091C8                           
091C8                           Wav_Snare2:
091C8 21 24 27 2A 13 30 32 35   	.db $21, $24, $27, $2A, $13, $30, $32, $35
091D0 3C 39 3B 3C 3D 3E 2A 3F   	.db $3C, $39, $3B, $3C, $3D, $3E, $2A, $3F
091D8 3F 3F 3E 3D 3C 3B 17 37   	.db $3F, $3F, $3E, $3D, $3C, $3B, $17, $37
091E0 35 11 30 2D 2A 27 24 31   	.db $35, $11, $30, $2D, $2A, $27, $24, $31
091E8 1E 1B 09 15 12 0F 0D 0A   	.db $1E, $1B, $09, $15, $12, $0F, $0D, $0A
091F0 08 06 04 11 02 01 00 00   	.db $08, $06, $04, $11, $02, $01, $00, $00
091F8 00 00 1A 02 03 04 06 08   	.db $00, $00, $1A, $02, $03, $04, $06, $08
09200 0A 0D 0F 20 15 18 1B 1E   	.db $0A, $0D, $0F, $20, $15, $18, $1B, $1E
09208                           
09208                           Wav_Saw:
09208 00 01 02 03 04 05 06 07   	.db $00, $01, $02, $03, $04, $05, $06, $07
09210 08 09 0A 0B 0C 0D 0E 0F   	.db $08, $09, $0A, $0B, $0C, $0D, $0E, $0F
09218 10 11 12 13 14 15 16 17   	.db $10, $11, $12, $13, $14, $15, $16, $17
09220 18 19 1A 1B 1C 1D 1E 1F   	.db $18, $19, $1A, $1B, $1C, $1D, $1E, $1F
09228 20 21 22 23 24 25 26 27   	.db $20, $21, $22, $23, $24, $25, $26, $27
09230 28 29 2A 2B 2C 2D 2E 2F   	.db $28, $29, $2A, $2B, $2C, $2D, $2E, $2F
09238 30 31 32 33 34 35 36 37   	.db $30, $31, $32, $33, $34, $35, $36, $37
09240 38 39 3A 3B 3C 3D 3E 3F   	.db $38, $39, $3A, $3B, $3C, $3D, $3E, $3F
09248                           .include "src/music/pattern-headers.asm"
09248                           MACRO ptrn_header square1, square2, hill, noise, dpcm, fds
09248                           	.dw square1, square2, hill, noise, dpcm, fds, 0, 0
09248                           ENDM
09248                           
09248                           Music3_PatternHeaders:
09248                           	ptrn_header 0, 0, 0, 0, 0, PD_Countdown_FDS
09248 00 00 00 00 00 00 00 00.. 	.dw 0, 0, 0, 0, 0, PD_Countdown_FDS, 0, 0
09258                           	ptrn_header PD_NO_Match_Pulse1, PD_NO_Match_Pulse2, PD_NO_Match_Hill, 0, 0, PD_NO_Match_FDS
09258 5A 95 5E 95 62 95 00 00.. 	.dw PD_NO_Match_Pulse1, PD_NO_Match_Pulse2, PD_NO_Match_Hill, 0, 0, PD_NO_Match_FDS, 0, 0
09268                           	ptrn_header PD_HurryUp_Pulse1, PD_HurryUp_Pulse2, PD_HurryUp_Hill, 0, 0, PD_HurryUp_FDS
09268 BC 94 C0 94 C4 94 00 00.. 	.dw PD_HurryUp_Pulse1, PD_HurryUp_Pulse2, PD_HurryUp_Hill, 0, 0, PD_HurryUp_FDS, 0, 0
09278                           	ptrn_header 0, 0, 0, 0, 0, 0
09278 00 00 00 00 00 00 00 00.. 	.dw 0, 0, 0, 0, 0, 0, 0, 0
09288                           	ptrn_header 0, 0, 0, 0, 0, 0
09288 00 00 00 00 00 00 00 00.. 	.dw 0, 0, 0, 0, 0, 0, 0, 0
09298                           	ptrn_header 0, 0, 0, 0, 0, 0
09298 00 00 00 00 00 00 00 00.. 	.dw 0, 0, 0, 0, 0, 0, 0, 0
092A8                           	ptrn_header 0, 0, 0, 0, 0, 0
092A8 00 00 00 00 00 00 00 00.. 	.dw 0, 0, 0, 0, 0, 0, 0, 0
092B8                           	ptrn_header 0, 0, 0, 0, 0, 0
092B8 00 00 00 00 00 00 00 00.. 	.dw 0, 0, 0, 0, 0, 0, 0, 0
092C8                           
092C8                           Music2_PatternHeaders:
092C8                           	ptrn_header PD_CS_Pulse1, PD_CS_Pulse2, PD_CS_Hill, PD_CS_Noise, 0, PD_CS_FDS
092C8 74 94 7A 94 82 94 88 94.. 	.dw PD_CS_Pulse1, PD_CS_Pulse2, PD_CS_Hill, PD_CS_Noise, 0, PD_CS_FDS, 0, 0
092D8                           	ptrn_header PD_Tutorial_Pulse1, PD_Tutorial_Pulse2, PD_Tutorial_Hill, PD_Tutorial_Noise, 0, PD_Tutorial_FDS
092D8 16 97 1E 97 24 97 2A 97.. 	.dw PD_Tutorial_Pulse1, PD_Tutorial_Pulse2, PD_Tutorial_Hill, PD_Tutorial_Noise, 0, PD_Tutorial_FDS, 0, 0
092E8                           	ptrn_header PD_TAT_Pulse1, PD_TAT_Pulse2, PD_TAT_Hill, PD_TAT_Noise, PD_TAT_DPCM, PD_TAT_FDS
092E8 28 96 4A 96 70 96 94 96.. 	.dw PD_TAT_Pulse1, PD_TAT_Pulse2, PD_TAT_Hill, PD_TAT_Noise, PD_TAT_DPCM, PD_TAT_FDS, 0, 0
092F8                           	ptrn_header PD_CJ_Pulse1, PD_CJ_Pulse2, PD_CJ_Hill, PD_CJ_Noise, 0, PD_CJ_FDS
092F8 C8 93 E0 93 EE 93 0A 94.. 	.dw PD_CJ_Pulse1, PD_CJ_Pulse2, PD_CJ_Hill, PD_CJ_Noise, 0, PD_CJ_FDS, 0, 0
09308                           	ptrn_header PD_SSB_Pulse1, PD_SSB_Pulse2, PD_SSB_Hill, PD_SSB_Noise, 0, PD_SSB_FDS
09308 7A 95 90 95 C2 95 D2 95.. 	.dw PD_SSB_Pulse1, PD_SSB_Pulse2, PD_SSB_Hill, PD_SSB_Noise, 0, PD_SSB_FDS, 0, 0
09318                           	ptrn_header PD_LS_Pulse1, PD_LS_Pulse2, PD_LS_Hill, PD_LS_Noise, 0, PD_LS_FDS
09318 DC 94 EA 94 F2 94 00 95.. 	.dw PD_LS_Pulse1, PD_LS_Pulse2, PD_LS_Hill, PD_LS_Noise, 0, PD_LS_FDS, 0, 0
09328                           	ptrn_header PD_VC_Pulse1, PD_VC_Pulse2, PD_VC_Hill, PD_VC_Noise, 0, PD_VC_FDS
09328 36 97 4C 97 64 97 76 97.. 	.dw PD_VC_Pulse1, PD_VC_Pulse2, PD_VC_Hill, PD_VC_Noise, 0, PD_VC_FDS, 0, 0
09338                           	ptrn_header PD_MR_Pulse1, PD_MR_Pulse2, 0, PD_MR_Noise, 0, PD_MR_FDS
09338 20 95 2E 95 00 00 3C 95.. 	.dw PD_MR_Pulse1, PD_MR_Pulse2, 0, PD_MR_Noise, 0, PD_MR_FDS, 0, 0
09348                           
09348                           Music1_PatternHeaders:
09348                           	ptrn_header PD_Title_Pulse1, PD_Title_Pulse2, PD_Title_Hill, 0, 0, PD_Title_FDS
09348 16 96 1C 96 20 96 00 00.. 	.dw PD_Title_Pulse1, PD_Title_Pulse2, PD_Title_Hill, 0, 0, PD_Title_FDS, 0, 0
09358                           	ptrn_header PD_Menu_Pulse1, PD_Menu_Pulse2, PD_Menu_Hill, 0, 0, PD_Menu_FDS
09358 10 95 14 95 18 95 00 00.. 	.dw PD_Menu_Pulse1, PD_Menu_Pulse2, PD_Menu_Hill, 0, 0, PD_Menu_FDS, 0, 0
09368                           	ptrn_header PD_Goal_Pulse1, PD_Goal_Pulse2, PD_Goal_Hill, 0, 0, PD_Goal_FDS
09368 CC 94 D0 94 D4 94 00 00.. 	.dw PD_Goal_Pulse1, PD_Goal_Pulse2, PD_Goal_Hill, 0, 0, PD_Goal_FDS, 0, 0
09378                           	ptrn_header PD_NO_Miss_Pulse1, PD_NO_Miss_Pulse2, PD_NO_Miss_Hill, 0, 0, PD_NO_Miss_FDS
09378 6A 95 6E 95 72 95 00 00.. 	.dw PD_NO_Miss_Pulse1, PD_NO_Miss_Pulse2, PD_NO_Miss_Hill, 0, 0, PD_NO_Miss_FDS, 0, 0
09388                           	ptrn_header PD_FinalTrial_Pulse1, PD_FinalTrial_Pulse2, 0, 0, 0, PD_FinalTrial_FDS
09388 9A 94 A0 94 00 00 00 00.. 	.dw PD_FinalTrial_Pulse1, PD_FinalTrial_Pulse2, 0, 0, 0, PD_FinalTrial_FDS, 0, 0
09398                           	ptrn_header PD_Congrats_Pulse1, PD_Congrats_Pulse2, PD_Congrats_Hill, PD_Congrats_Noise, PD_Congrats_DPCM, PD_Congrats_FDS
09398 4C 94 50 94 54 94 5C 94.. 	.dw PD_Congrats_Pulse1, PD_Congrats_Pulse2, PD_Congrats_Hill, PD_Congrats_Noise, PD_Congrats_DPCM, PD_Congrats_FDS, 0, 0
093A8                           	ptrn_header PD_GameOver_Pulse1, PD_GameOver_Pulse2, PD_GameOver_Hill, PD_GameOver_Noise, 0, PD_GameOver_FDS
093A8 A8 94 AC 94 B0 94 B4 94.. 	.dw PD_GameOver_Pulse1, PD_GameOver_Pulse2, PD_GameOver_Hill, PD_GameOver_Noise, 0, PD_GameOver_FDS, 0, 0
093B8                           	ptrn_header PD_TWUIO_Pulse1, PD_TWUIO_Pulse2, PD_TWUIO_Hill, PD_TWUIO_Noise, 0, PD_TWUIO_FDS
093B8 E4 95 F2 95 FE 95 0A 96.. 	.dw PD_TWUIO_Pulse1, PD_TWUIO_Pulse2, PD_TWUIO_Hill, PD_TWUIO_Noise, 0, PD_TWUIO_FDS, 0, 0
093C8                           .include "src/music/pattern-data.asm"
093C8                           .include "src/music/pattern-data/concrete-jungle-pat.asm"
093C8                           PD_CJ_Pulse1:
093C8                           	establish_loop
093C8 00 E1                     	.db 0, LOOP_CMD
093CA                           	sound_play MusicData_ConcreteJungle_Pulse1Pulse2
093CA D2 97                     	.dw MusicData_ConcreteJungle_Pulse1Pulse2
093CC                           	sound_play MusicData_ConcreteJungle_Pulse1Pulse2
093CC D2 97                     	.dw MusicData_ConcreteJungle_Pulse1Pulse2
093CE                           	sound_play MusicData_ConcreteJungle_Pulse1Pulse2
093CE D2 97                     	.dw MusicData_ConcreteJungle_Pulse1Pulse2
093D0                           	sound_play MusicData_ConcreteJungle_Pulse1_1
093D0 E9 97                     	.dw MusicData_ConcreteJungle_Pulse1_1
093D2                           	sound_play MusicData_ConcreteJungle_Pulse1_1
093D2 E9 97                     	.dw MusicData_ConcreteJungle_Pulse1_1
093D4                           	sound_play MusicData_ConcreteJungle_Pulse1_2
093D4 F1 97                     	.dw MusicData_ConcreteJungle_Pulse1_2
093D6                           	sound_play MusicData_ConcreteJungle_Pulse1_3
093D6 FF 97                     	.dw MusicData_ConcreteJungle_Pulse1_3
093D8                           	sound_play MusicData_ConcreteJungle_Pulse1_4
093D8 06 98                     	.dw MusicData_ConcreteJungle_Pulse1_4
093DA                           	sound_play MusicData_ConcreteJungle_Pulse1_3
093DA FF 97                     	.dw MusicData_ConcreteJungle_Pulse1_3
093DC                           	sound_play MusicData_ConcreteJungle_Pulse1_5
093DC 0D 98                     	.dw MusicData_ConcreteJungle_Pulse1_5
093DE                           	pat_ret
093DE 00 00                     	.dw 0
093E0                           
093E0                           PD_CJ_Pulse2:
093E0                           	pitch_inc_switch
093E0 00 E2                     	.db 0, TUNING_CMD
093E2                           	establish_loop
093E2 00 E1                     	.db 0, LOOP_CMD
093E4                           	sound_play MusicData_ConcreteJungle_Pulse2_1
093E4 19 98                     	.dw MusicData_ConcreteJungle_Pulse2_1
093E6                           	sound_play MusicData_ConcreteJungle_Pulse1Pulse2
093E6 D2 97                     	.dw MusicData_ConcreteJungle_Pulse1Pulse2
093E8                           	sound_play MusicData_ConcreteJungle_Pulse1Pulse2
093E8 D2 97                     	.dw MusicData_ConcreteJungle_Pulse1Pulse2
093EA                           	sound_play MusicData_ConcreteJungle_Pulse2_2
093EA 59 98                     	.dw MusicData_ConcreteJungle_Pulse2_2
093EC                           	pat_ret
093EC 00 00                     	.dw 0
093EE                           
093EE                           PD_CJ_Hill:
093EE                           	establish_loop
093EE 00 E1                     	.db 0, LOOP_CMD
093F0                           	sound_play MusicData_ConcreteJungle_Hill_1
093F0 A6 98                     	.dw MusicData_ConcreteJungle_Hill_1
093F2                           	sound_play MusicData_ConcreteJungle_Hill_1
093F2 A6 98                     	.dw MusicData_ConcreteJungle_Hill_1
093F4                           	sound_play MusicData_ConcreteJungle_Hill_1
093F4 A6 98                     	.dw MusicData_ConcreteJungle_Hill_1
093F6                           	sound_play MusicData_ConcreteJungle_Hill_1
093F6 A6 98                     	.dw MusicData_ConcreteJungle_Hill_1
093F8                           	sound_play MusicData_ConcreteJungle_Hill_1
093F8 A6 98                     	.dw MusicData_ConcreteJungle_Hill_1
093FA                           	sound_play MusicData_ConcreteJungle_Hill_2
093FA D8 98                     	.dw MusicData_ConcreteJungle_Hill_2
093FC                           	sound_play MusicData_ConcreteJungle_Hill_1
093FC A6 98                     	.dw MusicData_ConcreteJungle_Hill_1
093FE                           	sound_play MusicData_ConcreteJungle_Hill_3
093FE E5 98                     	.dw MusicData_ConcreteJungle_Hill_3
09400                           	sound_play MusicData_ConcreteJungle_Hill_4
09400 00 99                     	.dw MusicData_ConcreteJungle_Hill_4
09402                           	sound_play MusicData_ConcreteJungle_Hill_1
09402 A6 98                     	.dw MusicData_ConcreteJungle_Hill_1
09404                           	sound_play MusicData_ConcreteJungle_Hill_3
09404 E5 98                     	.dw MusicData_ConcreteJungle_Hill_3
09406                           	sound_play MusicData_ConcreteJungle_Hill_5
09406 18 99                     	.dw MusicData_ConcreteJungle_Hill_5
09408                           	pat_ret
09408 00 00                     	.dw 0
0940A                           
0940A                           PD_CJ_Noise:
0940A                           	establish_loop
0940A 00 E1                     	.db 0, LOOP_CMD
0940C                           	sound_play MusicData_ConcreteJungle_Noise_1
0940C 23 99                     	.dw MusicData_ConcreteJungle_Noise_1
0940E                           	sound_play MusicData_ConcreteJungle_Noise_2
0940E 3A 99                     	.dw MusicData_ConcreteJungle_Noise_2
09410                           	sound_play MusicData_ConcreteJungle_Noise_2
09410 3A 99                     	.dw MusicData_ConcreteJungle_Noise_2
09412                           	sound_play MusicData_ConcreteJungle_Noise_2
09412 3A 99                     	.dw MusicData_ConcreteJungle_Noise_2
09414                           	sound_play MusicData_ConcreteJungle_Noise_2
09414 3A 99                     	.dw MusicData_ConcreteJungle_Noise_2
09416                           	sound_play MusicData_ConcreteJungle_Noise_3
09416 48 99                     	.dw MusicData_ConcreteJungle_Noise_3
09418                           	sound_play MusicData_ConcreteJungle_Noise_2
09418 3A 99                     	.dw MusicData_ConcreteJungle_Noise_2
0941A                           	sound_play MusicData_ConcreteJungle_Noise_2
0941A 3A 99                     	.dw MusicData_ConcreteJungle_Noise_2
0941C                           	sound_play MusicData_ConcreteJungle_Noise_2
0941C 3A 99                     	.dw MusicData_ConcreteJungle_Noise_2
0941E                           	sound_play MusicData_ConcreteJungle_Noise_2
0941E 3A 99                     	.dw MusicData_ConcreteJungle_Noise_2
09420                           	pat_ret
09420 00 00                     	.dw 0
09422                           
09422                           PD_CJ_FDS:
09422                           	establish_loop
09422 00 E1                     	.db 0, LOOP_CMD
09424                           	sound_play MusicData_ConcreteJungle_FDS_1
09424 59 99                     	.dw MusicData_ConcreteJungle_FDS_1
09426                           	sound_play MusicData_ConcreteJungle_FDS_2
09426 65 99                     	.dw MusicData_ConcreteJungle_FDS_2
09428                           	sound_play MusicData_ConcreteJungle_FDS_2
09428 65 99                     	.dw MusicData_ConcreteJungle_FDS_2
0942A                           	sound_play MusicData_ConcreteJungle_FDS_2
0942A 65 99                     	.dw MusicData_ConcreteJungle_FDS_2
0942C                           	sound_play MusicData_ConcreteJungle_FDS_2
0942C 65 99                     	.dw MusicData_ConcreteJungle_FDS_2
0942E                           	sound_play MusicData_ConcreteJungle_FDS_2
0942E 65 99                     	.dw MusicData_ConcreteJungle_FDS_2
09430                           	sound_play MusicData_ConcreteJungle_FDS_2
09430 65 99                     	.dw MusicData_ConcreteJungle_FDS_2
09432                           	sound_play MusicData_ConcreteJungle_FDS_2
09432 65 99                     	.dw MusicData_ConcreteJungle_FDS_2
09434                           	sound_play MusicData_ConcreteJungle_FDS_3
09434 7D 99                     	.dw MusicData_ConcreteJungle_FDS_3
09436                           	sound_play MusicData_ConcreteJungle_FDS_2
09436 65 99                     	.dw MusicData_ConcreteJungle_FDS_2
09438                           	sound_play MusicData_ConcreteJungle_FDS_4
09438 94 99                     	.dw MusicData_ConcreteJungle_FDS_4
0943A                           	sound_play MusicData_ConcreteJungle_FDS_2
0943A 65 99                     	.dw MusicData_ConcreteJungle_FDS_2
0943C                           	sound_play MusicData_ConcreteJungle_FDS_2
0943C 65 99                     	.dw MusicData_ConcreteJungle_FDS_2
0943E                           	sound_play MusicData_ConcreteJungle_FDS_2
0943E 65 99                     	.dw MusicData_ConcreteJungle_FDS_2
09440                           	sound_play MusicData_ConcreteJungle_FDS_2
09440 65 99                     	.dw MusicData_ConcreteJungle_FDS_2
09442                           	sound_play MusicData_ConcreteJungle_FDS_2
09442 65 99                     	.dw MusicData_ConcreteJungle_FDS_2
09444                           	sound_play MusicData_ConcreteJungle_FDS_2
09444 65 99                     	.dw MusicData_ConcreteJungle_FDS_2
09446                           	sound_play MusicData_ConcreteJungle_FDS_2
09446 65 99                     	.dw MusicData_ConcreteJungle_FDS_2
09448                           	sound_play MusicData_ConcreteJungle_FDS_5
09448 A8 99                     	.dw MusicData_ConcreteJungle_FDS_5
0944A                           	pat_ret0944A 00 00                     	.dw 0
0944C                           .include "src/music/pattern-data/congrats-pat.asm"
0944C                           PD_Congrats_Pulse1:
0944C                           	sound_play MusicData_Congrats_Pulse1
0944C B4 99                     	.dw MusicData_Congrats_Pulse1
0944E                           	pat_ret
0944E 00 00                     	.dw 0
09450                           
09450                           PD_Congrats_Pulse2:
09450                           	sound_play MusicData_Congrats_Pulse2
09450 29 9A                     	.dw MusicData_Congrats_Pulse2
09452                           	pat_ret
09452 00 00                     	.dw 0
09454                           
09454                           PD_Congrats_Hill:
09454                           	sound_play MusicData_Congrats_Hill_1
09454 89 9A                     	.dw MusicData_Congrats_Hill_1
09456                           	sound_play MusicData_Congrats_Hill_1
09456 89 9A                     	.dw MusicData_Congrats_Hill_1
09458                           	sound_play MusicData_Congrats_Hill_2
09458 B0 9A                     	.dw MusicData_Congrats_Hill_2
0945A                           	pat_ret
0945A 00 00                     	.dw 0
0945C                           
0945C                           PD_Congrats_Noise:
0945C                           	sound_play MusicData_Congrats_Noise_1
0945C F5 9A                     	.dw MusicData_Congrats_Noise_1
0945E                           	sound_play MusicData_Congrats_Noise_1
0945E F5 9A                     	.dw MusicData_Congrats_Noise_1
09460                           	sound_play MusicData_Congrats_Noise_1
09460 F5 9A                     	.dw MusicData_Congrats_Noise_1
09462                           	sound_play MusicData_Congrats_Noise_1
09462 F5 9A                     	.dw MusicData_Congrats_Noise_1
09464                           	sound_play MusicData_Congrats_Noise_2
09464 09 9B                     	.dw MusicData_Congrats_Noise_2
09466                           	pat_ret
09466 00 00                     	.dw 0
09468                           
09468                           PD_Congrats_DPCM:
09468                           	sound_play MusicData_Congrats_DPCM
09468 4C 9B                     	.dw MusicData_Congrats_DPCM
0946A                           	pat_ret
0946A 00 00                     	.dw 0
0946C                           
0946C                           PD_Congrats_FDS:
0946C                           	sound_play MusicData_Congrats_FDS
0946C 5A 9B                     	.dw MusicData_Congrats_FDS
0946E                           	pat_ret
0946E 00 00                     	.dw 0
09470                           .include "src/music/pattern-data/countdown-pat.asm"
09470                           PD_Countdown_FDS:
09470                           	sound_play MusicData_Countdown
09470 DB 9B                     	.dw MusicData_Countdown
09472                           	pat_ret
09472 00 00                     	.dw 0
09474                           .include "src/music/pattern-data/course-select-pat.asm"
09474                           PD_CS_Pulse1:
09474                           	establish_loop
09474 00 E1                     	.db 0, LOOP_CMD
09476                           	sound_play MusicData_CourseSelect_Pulse1
09476 E3 9B                     	.dw MusicData_CourseSelect_Pulse1
09478                           	pat_ret
09478 00 00                     	.dw 0
0947A                           
0947A                           PD_CS_Pulse2:
0947A                           	pitch_inc_switch
0947A 00 E2                     	.db 0, TUNING_CMD
0947C                           	establish_loop
0947C 00 E1                     	.db 0, LOOP_CMD
0947E                           	sound_play MusicData_CourseSelect_Pulse2
0947E 67 9C                     	.dw MusicData_CourseSelect_Pulse2
09480                           	pat_ret
09480 00 00                     	.dw 0
09482                           
09482                           PD_CS_Hill:
09482                           	establish_loop
09482 00 E1                     	.db 0, LOOP_CMD
09484                           	sound_play MusicData_CourseSelect_Hill
09484 EB 9C                     	.dw MusicData_CourseSelect_Hill
09486                           	pat_ret
09486 00 00                     	.dw 0
09488                           
09488                           PD_CS_Noise:
09488                           	establish_loop
09488 00 E1                     	.db 0, LOOP_CMD
0948A                           	sound_play MusicData_CourseSelect_Noise
0948A 17 9D                     	.dw MusicData_CourseSelect_Noise
0948C                           	pat_ret
0948C 00 00                     	.dw 0
0948E                           
0948E                           PD_CS_FDS:
0948E                           	establish_loop
0948E 00 E1                     	.db 0, LOOP_CMD
09490                           	sound_play MusicData_CourseSelect_FDS_1
09490 2B 9D                     	.dw MusicData_CourseSelect_FDS_1
09492                           	sound_play MusicData_CourseSelect_FDS_1
09492 2B 9D                     	.dw MusicData_CourseSelect_FDS_1
09494                           	sound_play MusicData_CourseSelect_FDS_1
09494 2B 9D                     	.dw MusicData_CourseSelect_FDS_1
09496                           	sound_play MusicData_CourseSelect_FDS_2
09496 38 9D                     	.dw MusicData_CourseSelect_FDS_2
09498                           	pat_ret
09498 00 00                     	.dw 0
0949A                           .include "src/music/pattern-data/final-trial-pat.asm"
0949A                           PD_FinalTrial_Pulse1:
0949A                           	pitch_inc_switch
0949A 00 E2                     	.db 0, TUNING_CMD
0949C                           	sound_play MusicData_FinalTrial_Pulse1
0949C 45 9D                     	.dw MusicData_FinalTrial_Pulse1
0949E                           	pat_ret
0949E 00 00                     	.dw 0
094A0                           
094A0                           PD_FinalTrial_Pulse2:
094A0                           	sound_play MusicData_FinalTrial_Pulse2
094A0 5E 9D                     	.dw MusicData_FinalTrial_Pulse2
094A2                           	pat_ret
094A2 00 00                     	.dw 0
094A4                           
094A4                           PD_FinalTrial_FDS:
094A4                           	sound_play MusicData_FinalTrial_FDS
094A4 76 9D                     	.dw MusicData_FinalTrial_FDS
094A6                           	pat_ret
094A6 00 00                     	.dw 0
094A8                           .include "src/music/pattern-data/game-over-pat.asm"
094A8                           PD_GameOver_Pulse1:
094A8                           	sound_play MusicData_GameOver_Pulse1
094A8 8F 9D                     	.dw MusicData_GameOver_Pulse1
094AA                           	pat_ret
094AA 00 00                     	.dw 0
094AC                           
094AC                           PD_GameOver_Pulse2:
094AC                           	sound_play MusicData_GameOver_Pulse2
094AC AA 9D                     	.dw MusicData_GameOver_Pulse2
094AE                           	pat_ret
094AE 00 00                     	.dw 0
094B0                           
094B0                           PD_GameOver_Hill:
094B0                           	sound_play MusicData_GameOver_Hill
094B0 C6 9D                     	.dw MusicData_GameOver_Hill
094B2                           	pat_ret
094B2 00 00                     	.dw 0
094B4                           
094B4                           PD_GameOver_Noise:
094B4                           	sound_play MusicData_GameOver_Noise
094B4 E1 9D                     	.dw MusicData_GameOver_Noise
094B6                           	pat_ret
094B6 00 00                     	.dw 0
094B8                           
094B8                           PD_GameOver_FDS:
094B8                           	sound_play MusicData_GameOver_FDS
094B8 EF 9D                     	.dw MusicData_GameOver_FDS
094BA                           	pat_ret
094BA 00 00                     	.dw 0
094BC                           .include "src/music/pattern-data/hurry-up-pat.asm"
094BC                           PD_HurryUp_Pulse1:
094BC                           	sound_play MusicData_HurryUp_Pulse1
094BC FF 9D                     	.dw MusicData_HurryUp_Pulse1
094BE                           	pat_ret
094BE 00 00                     	.dw 0
094C0                           
094C0                           PD_HurryUp_Pulse2:
094C0                           	sound_play MusicData_HurryUp_Pulse2
094C0 16 9E                     	.dw MusicData_HurryUp_Pulse2
094C2                           	pat_ret
094C2 00 00                     	.dw 0
094C4                           
094C4                           PD_HurryUp_Hill:
094C4                           	sound_play MusicData_HurryUp_Hill
094C4 23 9E                     	.dw MusicData_HurryUp_Hill
094C6                           	pat_ret
094C6 00 00                     	.dw 0
094C8                           
094C8                           PD_HurryUp_FDS:
094C8                           	sound_play MusicData_HurryUp_FDS
094C8 44 9E                     	.dw MusicData_HurryUp_FDS
094CA                           	pat_ret
094CA 00 00                     	.dw 0
094CC                           .include "src/music/pattern-data/level-clear-pat.asm"
094CC                           PD_Goal_Pulse1:
094CC                           	sound_play MusicData_LevelClear_Pulse1
094CC 54 9E                     	.dw MusicData_LevelClear_Pulse1
094CE                           	pat_ret
094CE 00 00                     	.dw 0
094D0                           
094D0                           PD_Goal_Pulse2:
094D0                           	sound_play MusicData_LevelClear_Pulse2
094D0 64 9E                     	.dw MusicData_LevelClear_Pulse2
094D2                           	pat_ret
094D2 00 00                     	.dw 0
094D4                           
094D4                           PD_Goal_Hill:
094D4                           	sound_play MusicData_LevelClear_Hill
094D4 6F 9E                     	.dw MusicData_LevelClear_Hill
094D6                           	pat_ret
094D6 00 00                     	.dw 0
094D8                           
094D8                           PD_Goal_FDS:
094D8                           	sound_play MusicData_LevelClear_FDS
094D8 7F 9E                     	.dw MusicData_LevelClear_FDS
094DA                           	pat_ret094DA 00 00                     	.dw 0
094DC                           .include "src/music/pattern-data/lucky-slot-pat.asm"
094DC                           PD_LS_Pulse1:
094DC                           	establish_loop
094DC 00 E1                     	.db 0, LOOP_CMD
094DE                           	sound_play MusicData_LuckySlot_Pulse1_1
094DE 8D 9E                     	.dw MusicData_LuckySlot_Pulse1_1
094E0                           	sound_play MusicData_LuckySlot_Pulse1_1
094E0 8D 9E                     	.dw MusicData_LuckySlot_Pulse1_1
094E2                           	sound_play MusicData_LuckySlot_Pulse1_1
094E2 8D 9E                     	.dw MusicData_LuckySlot_Pulse1_1
094E4                           	sound_play MusicData_LuckySlot_Pulse1_1
094E4 8D 9E                     	.dw MusicData_LuckySlot_Pulse1_1
094E6                           	sound_play MusicData_LuckySlot_Pulse1_2
094E6 99 9E                     	.dw MusicData_LuckySlot_Pulse1_2
094E8                           	pat_ret
094E8 00 00                     	.dw 0
094EA                           
094EA                           PD_LS_Pulse2:
094EA                           	pitch_inc_switch
094EA 00 E2                     	.db 0, TUNING_CMD
094EC                           	establish_loop
094EC 00 E1                     	.db 0, LOOP_CMD
094EE                           	sound_play MusicData_LuckySlot_Pulse2
094EE C7 9E                     	.dw MusicData_LuckySlot_Pulse2
094F0                           	pat_ret
094F0 00 00                     	.dw 0
094F2                           
094F2                           PD_LS_Hill:
094F2                           	establish_loop
094F2 00 E1                     	.db 0, LOOP_CMD
094F4                           	sound_play MusicData_LuckySlot_Hill_1
094F4 1B 9F                     	.dw MusicData_LuckySlot_Hill_1
094F6                           	sound_play MusicData_LuckySlot_Hill_1
094F6 1B 9F                     	.dw MusicData_LuckySlot_Hill_1
094F8                           	sound_play MusicData_LuckySlot_Hill_1
094F8 1B 9F                     	.dw MusicData_LuckySlot_Hill_1
094FA                           	sound_play MusicData_LuckySlot_Hill_1
094FA 1B 9F                     	.dw MusicData_LuckySlot_Hill_1
094FC                           	sound_play MusicData_LuckySlot_Hill_2
094FC 35 9F                     	.dw MusicData_LuckySlot_Hill_2
094FE                           	pat_ret
094FE 00 00                     	.dw 0
09500                           
09500                           PD_LS_Noise:
09500                           	establish_loop
09500 00 E1                     	.db 0, LOOP_CMD
09502                           	sound_play MusicData_LuckySlot_Noise
09502 62 9F                     	.dw MusicData_LuckySlot_Noise
09504                           	pat_ret
09504 00 00                     	.dw 0
09506                           
09506                           PD_LS_FDS:
09506                           	establish_loop
09506 00 E1                     	.db 0, LOOP_CMD
09508                           	sound_play MusicData_LuckySlot_FDS_1
09508 69 9F                     	.dw MusicData_LuckySlot_FDS_1
0950A                           	sound_play MusicData_LuckySlot_FDS_1
0950A 69 9F                     	.dw MusicData_LuckySlot_FDS_1
0950C                           	sound_play MusicData_LuckySlot_FDS_2
0950C 87 9F                     	.dw MusicData_LuckySlot_FDS_2
0950E                           	pat_ret
0950E 00 00                     	.dw 0
09510                           .include "src/music/pattern-data/menu-pat.asm"
09510                           PD_Menu_Pulse1:
09510                           	sound_play MusicData_Menu_Pulse1
09510 AA 9F                     	.dw MusicData_Menu_Pulse1
09512                           	pat_ret
09512 00 00                     	.dw 0
09514                           
09514                           PD_Menu_Pulse2:
09514                           	sound_play MusicData_Menu_Pulse2
09514 AF 9F                     	.dw MusicData_Menu_Pulse2
09516                           	pat_ret
09516 00 00                     	.dw 0
09518                           
09518                           PD_Menu_Hill:
09518                           	sound_play MusicData_Menu_Hill
09518 BC 9F                     	.dw MusicData_Menu_Hill
0951A                           	pat_ret
0951A 00 00                     	.dw 0
0951C                           
0951C                           PD_Menu_FDS:
0951C                           	sound_play MusicData_Menu_FDS
0951C C8 9F                     	.dw MusicData_Menu_FDS
0951E                           	pat_ret
0951E 00 00                     	.dw 0
09520                           .include "src/music/pattern-data/mountain-road-pat.asm"
09520                           PD_MR_Pulse1:
09520                           	sound_play MusicData_MountainRoad_Pulse1Pulse2
09520 D4 9F                     	.dw MusicData_MountainRoad_Pulse1Pulse2
09522                           	establish_loop
09522 00 E1                     	.db 0, LOOP_CMD
09524                           	sound_play MusicData_MountainRoad_Pulse1
09524 D7 9F                     	.dw MusicData_MountainRoad_Pulse1
09526                           	sound_play MusicData_MountainRoad_Pulse1
09526 D7 9F                     	.dw MusicData_MountainRoad_Pulse1
09528                           	sound_play MusicData_MountainRoad_Pulse1Pulse2
09528 D4 9F                     	.dw MusicData_MountainRoad_Pulse1Pulse2
0952A                           	sound_play MusicData_MountainRoad_Pulse1Pulse2
0952A D4 9F                     	.dw MusicData_MountainRoad_Pulse1Pulse2
0952C                           	pat_ret
0952C 00 00                     	.dw 0
0952E                           
0952E                           PD_MR_Pulse2:
0952E                           	sound_play MusicData_MountainRoad_Pulse1Pulse2
0952E D4 9F                     	.dw MusicData_MountainRoad_Pulse1Pulse2
09530                           	establish_loop
09530 00 E1                     	.db 0, LOOP_CMD
09532                           	sound_play MusicData_MountainRoad_Pulse2
09532 E0 9F                     	.dw MusicData_MountainRoad_Pulse2
09534                           	sound_play MusicData_MountainRoad_Pulse2
09534 E0 9F                     	.dw MusicData_MountainRoad_Pulse2
09536                           	sound_play MusicData_MountainRoad_Pulse1Pulse2
09536 D4 9F                     	.dw MusicData_MountainRoad_Pulse1Pulse2
09538                           	sound_play MusicData_MountainRoad_Pulse1Pulse2
09538 D4 9F                     	.dw MusicData_MountainRoad_Pulse1Pulse2
0953A                           	pat_ret
0953A 00 00                     	.dw 0
0953C                           
0953C                           PD_MR_Noise:
0953C                           	sound_play MusicData_MountainRoad_Noise_1
0953C 1E A0                     	.dw MusicData_MountainRoad_Noise_1
0953E                           	establish_loop
0953E 00 E1                     	.db 0, LOOP_CMD
09540                           	sound_play MusicData_MountainRoad_Noise_2
09540 21 A0                     	.dw MusicData_MountainRoad_Noise_2
09542                           	sound_play MusicData_MountainRoad_Noise_2
09542 21 A0                     	.dw MusicData_MountainRoad_Noise_2
09544                           	sound_play MusicData_MountainRoad_Noise_2
09544 21 A0                     	.dw MusicData_MountainRoad_Noise_2
09546                           	sound_play MusicData_MountainRoad_Noise_2
09546 21 A0                     	.dw MusicData_MountainRoad_Noise_2
09548                           	sound_play MusicData_MountainRoad_Noise_1
09548 1E A0                     	.dw MusicData_MountainRoad_Noise_1
0954A                           	sound_play MusicData_MountainRoad_Noise_1
0954A 1E A0                     	.dw MusicData_MountainRoad_Noise_1
0954C                           	pat_ret
0954C 00 00                     	.dw 0
0954E                           
0954E                           PD_MR_FDS:
0954E                           	sound_play MusicData_MountainRoad_FDS_1
0954E 2F A0                     	.dw MusicData_MountainRoad_FDS_1
09550                           	establish_loop
09550 00 E1                     	.db 0, LOOP_CMD
09552                           	sound_play MusicData_MountainRoad_FDS_2
09552 41 A0                     	.dw MusicData_MountainRoad_FDS_2
09554                           	sound_play MusicData_MountainRoad_FDS_2
09554 41 A0                     	.dw MusicData_MountainRoad_FDS_2
09556                           	sound_play MusicData_MountainRoad_FDS_3
09556 68 A0                     	.dw MusicData_MountainRoad_FDS_3
09558                           	pat_ret
09558 00 00                     	.dw 0
0955A                           .include "src/music/pattern-data/number-match-pat.asm"
0955A                           PD_NO_Match_Pulse1:
0955A                           	sound_play MusicData_NumberMatch_Pulse1
0955A 8F A0                     	.dw MusicData_NumberMatch_Pulse1
0955C                           	pat_ret
0955C 00 00                     	.dw 0
0955E                           
0955E                           PD_NO_Match_Pulse2:
0955E                           	sound_play MusicData_NumberMatch_Pulse2
0955E 9D A0                     	.dw MusicData_NumberMatch_Pulse2
09560                           	pat_ret
09560 00 00                     	.dw 0
09562                           
09562                           PD_NO_Match_Hill:
09562                           	sound_play MusicData_NumberMatch_Hill
09562 A8 A0                     	.dw MusicData_NumberMatch_Hill
09564                           	pat_ret
09564 00 00                     	.dw 0
09566                           
09566                           PD_NO_Match_FDS:
09566                           	sound_play MusicData_NumberMatch_FDS
09566 B5 A0                     	.dw MusicData_NumberMatch_FDS
09568                           	pat_ret09568 00 00                     	.dw 0
0956A                           .include "src/music/pattern-data/number-miss-pat.asm"
0956A                           PD_NO_Miss_Pulse1:
0956A                           	sound_play MusicData_NumberMiss_Pulse1
0956A CD A0                     	.dw MusicData_NumberMiss_Pulse1
0956C                           	pat_ret
0956C 00 00                     	.dw 0
0956E                           
0956E                           PD_NO_Miss_Pulse2:
0956E                           	sound_play MusicData_NumberMiss_Pulse2
0956E DD A0                     	.dw MusicData_NumberMiss_Pulse2
09570                           	pat_ret
09570 00 00                     	.dw 0
09572                           
09572                           PD_NO_Miss_Hill:
09572                           	sound_play MusicData_NumberMiss_Hill
09572 F0 A0                     	.dw MusicData_NumberMiss_Hill
09574                           	pat_ret
09574 00 00                     	.dw 0
09576                           
09576                           PD_NO_Miss_FDS:
09576                           	sound_play MusicData_NumberMiss_FDS
09576 FA A0                     	.dw MusicData_NumberMiss_FDS
09578                           	pat_ret
09578 00 00                     	.dw 0
0957A                           .include "src/music/pattern-data/super-sonic-break-pat.asm"
0957A                           PD_SSB_Pulse1:
0957A                           	establish_loop
0957A 00 E1                     	.db 0, LOOP_CMD
0957C                           	sound_play MusicData_SuperSonicBreak_Pulse1_1
0957C 09 A1                     	.dw MusicData_SuperSonicBreak_Pulse1_1
0957E                           	sound_play MusicData_SuperSonicBreak_Pulse1_2
0957E 18 A1                     	.dw MusicData_SuperSonicBreak_Pulse1_2
09580                           	sound_play MusicData_SuperSonicBreak_Pulse1_2
09580 18 A1                     	.dw MusicData_SuperSonicBreak_Pulse1_2
09582                           	sound_play MusicData_SuperSonicBreak_Pulse1_1
09582 09 A1                     	.dw MusicData_SuperSonicBreak_Pulse1_1
09584                           	sound_play MusicData_SuperSonicBreak_Pulse1_2
09584 18 A1                     	.dw MusicData_SuperSonicBreak_Pulse1_2
09586                           	sound_play MusicData_SuperSonicBreak_Pulse1_3
09586 21 A1                     	.dw MusicData_SuperSonicBreak_Pulse1_3
09588                           	sound_play MusicData_SuperSonicBreak_Pulse1Pulse2
09588 2A A1                     	.dw MusicData_SuperSonicBreak_Pulse1Pulse2
0958A                           	sound_play MusicData_SuperSonicBreak_Pulse1Pulse2
0958A 2A A1                     	.dw MusicData_SuperSonicBreak_Pulse1Pulse2
0958C                           	sound_play MusicData_SuperSonicBreak_Pulse1_4
0958C 5D A1                     	.dw MusicData_SuperSonicBreak_Pulse1_4
0958E                           	pat_ret
0958E 00 00                     	.dw 0
09590                           
09590                           PD_SSB_Pulse2:
09590                           	establish_loop
09590 00 E1                     	.db 0, LOOP_CMD
09592                           	sound_play MusicData_SuperSonicBreak_Pulse1Pulse2
09592 2A A1                     	.dw MusicData_SuperSonicBreak_Pulse1Pulse2
09594                           	sound_play MusicData_SuperSonicBreak_Pulse1Pulse2
09594 2A A1                     	.dw MusicData_SuperSonicBreak_Pulse1Pulse2
09596                           	sound_play MusicData_SuperSonicBreak_Pulse2_1
09596 7F A1                     	.dw MusicData_SuperSonicBreak_Pulse2_1
09598                           	sound_play MusicData_SuperSonicBreak_Pulse2_1
09598 7F A1                     	.dw MusicData_SuperSonicBreak_Pulse2_1
0959A                           	sound_play MusicData_SuperSonicBreak_Pulse2_2
0959A B2 A1                     	.dw MusicData_SuperSonicBreak_Pulse2_2
0959C                           	sound_play MusicData_SuperSonicBreak_Pulse2_2
0959C B2 A1                     	.dw MusicData_SuperSonicBreak_Pulse2_2
0959E                           	sound_play MusicData_SuperSonicBreak_Pulse1Pulse2
0959E 2A A1                     	.dw MusicData_SuperSonicBreak_Pulse1Pulse2
095A0                           	sound_play MusicData_SuperSonicBreak_Pulse1Pulse2
095A0 2A A1                     	.dw MusicData_SuperSonicBreak_Pulse1Pulse2
095A2                           	sound_play MusicData_SuperSonicBreak_Pulse1Pulse2
095A2 2A A1                     	.dw MusicData_SuperSonicBreak_Pulse1Pulse2
095A4                           	sound_play MusicData_SuperSonicBreak_Pulse1Pulse2
095A4 2A A1                     	.dw MusicData_SuperSonicBreak_Pulse1Pulse2
095A6                           	sound_play MusicData_SuperSonicBreak_Pulse2_1
095A6 7F A1                     	.dw MusicData_SuperSonicBreak_Pulse2_1
095A8                           	sound_play MusicData_SuperSonicBreak_Pulse2_1
095A8 7F A1                     	.dw MusicData_SuperSonicBreak_Pulse2_1
095AA                           	sound_play MusicData_SuperSonicBreak_Pulse2_2
095AA B2 A1                     	.dw MusicData_SuperSonicBreak_Pulse2_2
095AC                           	sound_play MusicData_SuperSonicBreak_Pulse2_2
095AC B2 A1                     	.dw MusicData_SuperSonicBreak_Pulse2_2
095AE                           	sound_play MusicData_SuperSonicBreak_Pulse1Pulse2
095AE 2A A1                     	.dw MusicData_SuperSonicBreak_Pulse1Pulse2
095B0                           	sound_play MusicData_SuperSonicBreak_Pulse1Pulse2
095B0 2A A1                     	.dw MusicData_SuperSonicBreak_Pulse1Pulse2
095B2                           	sound_play MusicData_SuperSonicBreak_Pulse2_3
095B2 E5 A1                     	.dw MusicData_SuperSonicBreak_Pulse2_3
095B4                           	sound_play MusicData_SuperSonicBreak_Pulse2_1
095B4 7F A1                     	.dw MusicData_SuperSonicBreak_Pulse2_1
095B6                           	sound_play MusicData_SuperSonicBreak_Pulse2_1
095B6 7F A1                     	.dw MusicData_SuperSonicBreak_Pulse2_1
095B8                           	sound_play MusicData_SuperSonicBreak_Pulse2_2
095B8 B2 A1                     	.dw MusicData_SuperSonicBreak_Pulse2_2
095BA                           	sound_play MusicData_SuperSonicBreak_Pulse2_2
095BA B2 A1                     	.dw MusicData_SuperSonicBreak_Pulse2_2
095BC                           	sound_play MusicData_SuperSonicBreak_Pulse1Pulse2
095BC 2A A1                     	.dw MusicData_SuperSonicBreak_Pulse1Pulse2
095BE                           	sound_play MusicData_SuperSonicBreak_Pulse1Pulse2
095BE 2A A1                     	.dw MusicData_SuperSonicBreak_Pulse1Pulse2
095C0                           	pat_ret
095C0 00 00                     	.dw 0
095C2                           
095C2                           PD_SSB_Hill:
095C2                           	establish_loop
095C2 00 E1                     	.db 0, LOOP_CMD
095C4                           	sound_play MusicData_SuperSonicBreak_Hill_1
095C4 EB A1                     	.dw MusicData_SuperSonicBreak_Hill_1
095C6                           	sound_play MusicData_SuperSonicBreak_Hill_2
095C6 36 A2                     	.dw MusicData_SuperSonicBreak_Hill_2
095C8                           	sound_play MusicData_SuperSonicBreak_Hill_1
095C8 EB A1                     	.dw MusicData_SuperSonicBreak_Hill_1
095CA                           	sound_play MusicData_SuperSonicBreak_Hill_2
095CA 36 A2                     	.dw MusicData_SuperSonicBreak_Hill_2
095CC                           	sound_play MusicData_SuperSonicBreak_Hill_1
095CC EB A1                     	.dw MusicData_SuperSonicBreak_Hill_1
095CE                           	sound_play MusicData_SuperSonicBreak_Hill_3
095CE 51 A2                     	.dw MusicData_SuperSonicBreak_Hill_3
095D0                           	pat_ret
095D0 00 00                     	.dw 0
095D2                           
095D2                           PD_SSB_Noise:
095D2                           	establish_loop
095D2 00 E1                     	.db 0, LOOP_CMD
095D4                           	sound_play MusicData_SuperSonicBreak_Noise
095D4 6C A2                     	.dw MusicData_SuperSonicBreak_Noise
095D6                           	pat_ret
095D6 00 00                     	.dw 0
095D8                           
095D8                           PD_SSB_FDS:
095D8                           	establish_loop
095D8 00 E1                     	.db 0, LOOP_CMD
095DA                           	sound_play MusicData_SuperSonicBreak_FDS_1
095DA 6F A2                     	.dw MusicData_SuperSonicBreak_FDS_1
095DC                           	sound_play MusicData_SuperSonicBreak_FDS_1
095DC 6F A2                     	.dw MusicData_SuperSonicBreak_FDS_1
095DE                           	sound_play MusicData_SuperSonicBreak_FDS_1
095DE 6F A2                     	.dw MusicData_SuperSonicBreak_FDS_1
095E0                           	sound_play MusicData_SuperSonicBreak_FDS_2
095E0 7B A2                     	.dw MusicData_SuperSonicBreak_FDS_2
095E2                           	pat_ret095E2 00 00                     	.dw 0
095E4                           .include "src/music/pattern-data/twuio-pat.asm"
095E4                           PD_TWUIO_Pulse1:
095E4                           	pitch_inc_switch
095E4 00 E2                     	.db 0, TUNING_CMD
095E6                           	establish_loop
095E6 00 E1                     	.db 0, LOOP_CMD
095E8                           	sound_play MusicData_TWUIO_Pulse1_1
095E8 84 A2                     	.dw MusicData_TWUIO_Pulse1_1
095EA                           	sound_play MusicData_TWUIO_Pulse1_2
095EA 89 A2                     	.dw MusicData_TWUIO_Pulse1_2
095EC                           	sound_play MusicData_TWUIO_Pulse1_1
095EC 84 A2                     	.dw MusicData_TWUIO_Pulse1_1
095EE                           	sound_play MusicData_TWUIO_Pulse1_3
095EE 95 A2                     	.dw MusicData_TWUIO_Pulse1_3
095F0                           	pat_ret
095F0 00 00                     	.dw 0
095F2                           
095F2                           PD_TWUIO_Pulse2:
095F2                           	establish_loop
095F2 00 E1                     	.db 0, LOOP_CMD
095F4                           	sound_play MusicData_TWUIO_Pulse2_1
095F4 DA A2                     	.dw MusicData_TWUIO_Pulse2_1
095F6                           	sound_play MusicData_TWUIO_Pulse2_1
095F6 DA A2                     	.dw MusicData_TWUIO_Pulse2_1
095F8                           	sound_play MusicData_TWUIO_Pulse2_1
095F8 DA A2                     	.dw MusicData_TWUIO_Pulse2_1
095FA                           	sound_play MusicData_TWUIO_Pulse2_2
095FA 5A A3                     	.dw MusicData_TWUIO_Pulse2_2
095FC                           	pat_ret
095FC 00 00                     	.dw 0
095FE                           
095FE                           PD_TWUIO_Hill:
095FE                           	establish_loop
095FE 00 E1                     	.db 0, LOOP_CMD
09600                           	sound_play MusicData_TWUIO_Hill_1
09600 A8 A3                     	.dw MusicData_TWUIO_Hill_1
09602                           	sound_play MusicData_TWUIO_Hill_2
09602 E1 A3                     	.dw MusicData_TWUIO_Hill_2
09604                           	sound_play MusicData_TWUIO_Hill_1
09604 A8 A3                     	.dw MusicData_TWUIO_Hill_1
09606                           	sound_play MusicData_TWUIO_Hill_3
09606 18 A4                     	.dw MusicData_TWUIO_Hill_3
09608                           	pat_ret
09608 00 00                     	.dw 0
0960A                           
0960A                           PD_TWUIO_Noise:
0960A                           	establish_loop
0960A 00 E1                     	.db 0, LOOP_CMD
0960C                           	sound_play MusicData_TWUIO_Noise
0960C 36 A5                     	.dw MusicData_TWUIO_Noise
0960E                           	pat_ret
0960E 00 00                     	.dw 0
09610                           
09610                           PD_TWUIO_FDS:
09610                           	establish_loop
09610 00 E1                     	.db 0, LOOP_CMD
09612                           	sound_play MusicData_TWUIO_FDS
09612 92 A5                     	.dw MusicData_TWUIO_FDS
09614                           	pat_ret
09614 00 00                     	.dw 0
09616                           .include "src/music/pattern-data/title-pat.asm"
09616                           PD_Title_Pulse1:
09616                           	pitch_inc_switch
09616 00 E2                     	.db 0, TUNING_CMD
09618                           	sound_play MusicData_Title_Pulse1
09618 71 A6                     	.dw MusicData_Title_Pulse1
0961A                           	pat_ret
0961A 00 00                     	.dw 0
0961C                           
0961C                           PD_Title_Pulse2:
0961C                           	sound_play MusicData_Title_Pulse2
0961C 86 A6                     	.dw MusicData_Title_Pulse2
0961E                           	pat_ret
0961E 00 00                     	.dw 0
09620                           
09620                           PD_Title_Hill:
09620                           	sound_play MusicData_Title_Hill
09620 9D A6                     	.dw MusicData_Title_Hill
09622                           	pat_ret
09622 00 00                     	.dw 0
09624                           
09624                           PD_Title_FDS:
09624                           	sound_play MusicData_Title_FDS
09624 BA A6                     	.dw MusicData_Title_FDS
09626                           	pat_ret
09626 00 00                     	.dw 0
09628                           .include "src/music/pattern-data/turn-and-try-pat.asm"
09628                           PD_TAT_Pulse1:
09628                           	sound_play MusicData_TurnAndTry_IntroSilence
09628 DD A6                     	.dw MusicData_TurnAndTry_IntroSilence
0962A                           	establish_loop
0962A 00 E1                     	.db 0, LOOP_CMD
0962C                           	sound_play MusicData_TurnAndTry_Silence
0962C E2 A6                     	.dw MusicData_TurnAndTry_Silence
0962E                           	sound_play MusicData_TurnAndTry_Silence
0962E E2 A6                     	.dw MusicData_TurnAndTry_Silence
09630                           	sound_play MusicData_TurnAndTry_Silence
09630 E2 A6                     	.dw MusicData_TurnAndTry_Silence
09632                           	sound_play MusicData_TurnAndTry_Silence
09632 E2 A6                     	.dw MusicData_TurnAndTry_Silence
09634                           	sound_play MusicData_TurnAndTry_Pulse1Pulse2
09634 E5 A6                     	.dw MusicData_TurnAndTry_Pulse1Pulse2
09636                           	sound_play MusicData_TurnAndTry_Pulse1Pulse2
09636 E5 A6                     	.dw MusicData_TurnAndTry_Pulse1Pulse2
09638                           	sound_play MusicData_TurnAndTry_Pulse1_1
09638 58 A7                     	.dw MusicData_TurnAndTry_Pulse1_1
0963A                           	sound_play MusicData_TurnAndTry_Pulse1_1
0963A 58 A7                     	.dw MusicData_TurnAndTry_Pulse1_1
0963C                           	sound_play MusicData_TurnAndTry_Pulse1_2
0963C 73 A7                     	.dw MusicData_TurnAndTry_Pulse1_2
0963E                           	sound_play MusicData_TurnAndTry_Pulse1_2
0963E 73 A7                     	.dw MusicData_TurnAndTry_Pulse1_2
09640                           	sound_play MusicData_TurnAndTry_Pulse1_2
09640 73 A7                     	.dw MusicData_TurnAndTry_Pulse1_2
09642                           	sound_play MusicData_TurnAndTry_Pulse1_2
09642 73 A7                     	.dw MusicData_TurnAndTry_Pulse1_2
09644                           	sound_play MusicData_TurnAndTry_Silence
09644 E2 A6                     	.dw MusicData_TurnAndTry_Silence
09646                           	sound_play MusicData_TurnAndTry_Pulse1_3
09646 90 A7                     	.dw MusicData_TurnAndTry_Pulse1_3
09648                           	pat_ret
09648 00 00                     	.dw 0
0964A                           
0964A                           PD_TAT_Pulse2:
0964A                           	sound_play MusicData_TurnAndTry_IntroSilence
0964A DD A6                     	.dw MusicData_TurnAndTry_IntroSilence
0964C                           	establish_loop
0964C 00 E1                     	.db 0, LOOP_CMD
0964E                           	sound_play MusicData_TurnAndTry_Silence
0964E E2 A6                     	.dw MusicData_TurnAndTry_Silence
09650                           	sound_play MusicData_TurnAndTry_Silence
09650 E2 A6                     	.dw MusicData_TurnAndTry_Silence
09652                           	sound_play MusicData_TurnAndTry_Silence
09652 E2 A6                     	.dw MusicData_TurnAndTry_Silence
09654                           	sound_play MusicData_TurnAndTry_Silence
09654 E2 A6                     	.dw MusicData_TurnAndTry_Silence
09656                           	sound_play MusicData_TurnAndTry_Silence
09656 E2 A6                     	.dw MusicData_TurnAndTry_Silence
09658                           	sound_play MusicData_TurnAndTry_Silence
09658 E2 A6                     	.dw MusicData_TurnAndTry_Silence
0965A                           	sound_play MusicData_TurnAndTry_Silence
0965A E2 A6                     	.dw MusicData_TurnAndTry_Silence
0965C                           	sound_play MusicData_TurnAndTry_Silence
0965C E2 A6                     	.dw MusicData_TurnAndTry_Silence
0965E                           	sound_play MusicData_TurnAndTry_Pulse1Pulse2
0965E E5 A6                     	.dw MusicData_TurnAndTry_Pulse1Pulse2
09660                           	sound_play MusicData_TurnAndTry_Pulse1Pulse2
09660 E5 A6                     	.dw MusicData_TurnAndTry_Pulse1Pulse2
09662                           	sound_play MusicData_TurnAndTry_Pulse2_1
09662 95 A7                     	.dw MusicData_TurnAndTry_Pulse2_1
09664                           	sound_play MusicData_TurnAndTry_Pulse2_1
09664 95 A7                     	.dw MusicData_TurnAndTry_Pulse2_1
09666                           	sound_play MusicData_TurnAndTry_Pulse2_1
09666 95 A7                     	.dw MusicData_TurnAndTry_Pulse2_1
09668                           	sound_play MusicData_TurnAndTry_Pulse2_1
09668 95 A7                     	.dw MusicData_TurnAndTry_Pulse2_1
0966A                           	sound_play MusicData_TurnAndTry_Silence
0966A E2 A6                     	.dw MusicData_TurnAndTry_Silence
0966C                           	sound_play MusicData_TurnAndTry_Pulse2_2
0966C B2 A7                     	.dw MusicData_TurnAndTry_Pulse2_2
0966E                           	pat_ret
0966E 00 00                     	.dw 0
09670                           
09670                           PD_TAT_Hill:
09670                           	sound_play MusicData_TurnAndTry_IntroSilence
09670 DD A6                     	.dw MusicData_TurnAndTry_IntroSilence
09672                           	establish_loop
09672 00 E1                     	.db 0, LOOP_CMD
09674                           	sound_play MusicData_TurnAndTry_Silence
09674 E2 A6                     	.dw MusicData_TurnAndTry_Silence
09676                           	sound_play MusicData_TurnAndTry_Silence
09676 E2 A6                     	.dw MusicData_TurnAndTry_Silence
09678                           	sound_play MusicData_TurnAndTry_Silence
09678 E2 A6                     	.dw MusicData_TurnAndTry_Silence
0967A                           	sound_play MusicData_TurnAndTry_Silence
0967A E2 A6                     	.dw MusicData_TurnAndTry_Silence
0967C                           	sound_play MusicData_TurnAndTry_Hill_1
0967C B7 A7                     	.dw MusicData_TurnAndTry_Hill_1
0967E                           	sound_play MusicData_TurnAndTry_Hill_1
0967E B7 A7                     	.dw MusicData_TurnAndTry_Hill_1
09680                           	sound_play MusicData_TurnAndTry_Hill_1
09680 B7 A7                     	.dw MusicData_TurnAndTry_Hill_1
09682                           	sound_play MusicData_TurnAndTry_Hill_1
09682 B7 A7                     	.dw MusicData_TurnAndTry_Hill_1
09684                           	sound_play MusicData_TurnAndTry_Hill_1
09684 B7 A7                     	.dw MusicData_TurnAndTry_Hill_1
09686                           	sound_play MusicData_TurnAndTry_Hill_1
09686 B7 A7                     	.dw MusicData_TurnAndTry_Hill_1
09688                           	sound_play MusicData_TurnAndTry_Hill_1
09688 B7 A7                     	.dw MusicData_TurnAndTry_Hill_1
0968A                           	sound_play MusicData_TurnAndTry_Hill_1
0968A B7 A7                     	.dw MusicData_TurnAndTry_Hill_1
0968C                           	sound_play MusicData_TurnAndTry_Hill_2
0968C DA A7                     	.dw MusicData_TurnAndTry_Hill_2
0968E                           	sound_play MusicData_TurnAndTry_Silence
0968E E2 A6                     	.dw MusicData_TurnAndTry_Silence
09690                           	sound_play MusicData_TurnAndTry_Silence
09690 E2 A6                     	.dw MusicData_TurnAndTry_Silence
09692                           	pat_ret
09692 00 00                     	.dw 0
09694                           
09694                           PD_TAT_Noise:
09694                           	sound_play MusicData_TurnAndTry_Noise_1
09694 E2 A7                     	.dw MusicData_TurnAndTry_Noise_1
09696                           	establish_loop
09696 00 E1                     	.db 0, LOOP_CMD
09698                           	sound_play MusicData_TurnAndTry_Noise_2
09698 F7 A7                     	.dw MusicData_TurnAndTry_Noise_2
0969A                           	sound_play MusicData_TurnAndTry_Noise_2
0969A F7 A7                     	.dw MusicData_TurnAndTry_Noise_2
0969C                           	sound_play MusicData_TurnAndTry_Noise_2
0969C F7 A7                     	.dw MusicData_TurnAndTry_Noise_2
0969E                           	sound_play MusicData_TurnAndTry_Noise_2
0969E F7 A7                     	.dw MusicData_TurnAndTry_Noise_2
096A0                           	sound_play MusicData_TurnAndTry_Noise_2
096A0 F7 A7                     	.dw MusicData_TurnAndTry_Noise_2
096A2                           	sound_play MusicData_TurnAndTry_Noise_2
096A2 F7 A7                     	.dw MusicData_TurnAndTry_Noise_2
096A4                           	sound_play MusicData_TurnAndTry_Noise_2
096A4 F7 A7                     	.dw MusicData_TurnAndTry_Noise_2
096A6                           	sound_play MusicData_TurnAndTry_Noise_2
096A6 F7 A7                     	.dw MusicData_TurnAndTry_Noise_2
096A8                           	sound_play MusicData_TurnAndTry_Noise_2
096A8 F7 A7                     	.dw MusicData_TurnAndTry_Noise_2
096AA                           	sound_play MusicData_TurnAndTry_Noise_2
096AA F7 A7                     	.dw MusicData_TurnAndTry_Noise_2
096AC                           	sound_play MusicData_TurnAndTry_Noise_3
096AC 16 A8                     	.dw MusicData_TurnAndTry_Noise_3
096AE                           	sound_play MusicData_TurnAndTry_Noise_2
096AE F7 A7                     	.dw MusicData_TurnAndTry_Noise_2
096B0                           	pat_ret
096B0 00 00                     	.dw 0
096B2                           
096B2                           PD_TAT_DPCM:
096B2                           	sound_play MusicData_TurnAndTry_IntroSilence
096B2 DD A6                     	.dw MusicData_TurnAndTry_IntroSilence
096B4                           	establish_loop
096B4 00 E1                     	.db 0, LOOP_CMD
096B6                           	sound_play MusicData_TurnAndTry_DPCM_1
096B6 19 A8                     	.dw MusicData_TurnAndTry_DPCM_1
096B8                           	sound_play MusicData_TurnAndTry_Silence
096B8 E2 A6                     	.dw MusicData_TurnAndTry_Silence
096BA                           	sound_play MusicData_TurnAndTry_Silence
096BA E2 A6                     	.dw MusicData_TurnAndTry_Silence
096BC                           	sound_play MusicData_TurnAndTry_Silence
096BC E2 A6                     	.dw MusicData_TurnAndTry_Silence
096BE                           	sound_play MusicData_TurnAndTry_Silence
096BE E2 A6                     	.dw MusicData_TurnAndTry_Silence
096C0                           	sound_play MusicData_TurnAndTry_Silence
096C0 E2 A6                     	.dw MusicData_TurnAndTry_Silence
096C2                           	sound_play MusicData_TurnAndTry_Silence
096C2 E2 A6                     	.dw MusicData_TurnAndTry_Silence
096C4                           	sound_play MusicData_TurnAndTry_Silence
096C4 E2 A6                     	.dw MusicData_TurnAndTry_Silence
096C6                           	sound_play MusicData_TurnAndTry_Silence
096C6 E2 A6                     	.dw MusicData_TurnAndTry_Silence
096C8                           	sound_play MusicData_TurnAndTry_DPCM_2
096C8 2B A8                     	.dw MusicData_TurnAndTry_DPCM_2
096CA                           	sound_play MusicData_TurnAndTry_Silence
096CA E2 A6                     	.dw MusicData_TurnAndTry_Silence
096CC                           	sound_play MusicData_TurnAndTry_Silence
096CC E2 A6                     	.dw MusicData_TurnAndTry_Silence
096CE                           	sound_play MusicData_TurnAndTry_Silence
096CE E2 A6                     	.dw MusicData_TurnAndTry_Silence
096D0                           	sound_play MusicData_TurnAndTry_DPCM_2
096D0 2B A8                     	.dw MusicData_TurnAndTry_DPCM_2
096D2                           	sound_play MusicData_TurnAndTry_Silence
096D2 E2 A6                     	.dw MusicData_TurnAndTry_Silence
096D4                           	sound_play MusicData_TurnAndTry_Silence
096D4 E2 A6                     	.dw MusicData_TurnAndTry_Silence
096D6                           	sound_play MusicData_TurnAndTry_Silence
096D6 E2 A6                     	.dw MusicData_TurnAndTry_Silence
096D8                           	sound_play MusicData_TurnAndTry_Silence
096D8 E2 A6                     	.dw MusicData_TurnAndTry_Silence
096DA                           	sound_play MusicData_TurnAndTry_Silence
096DA E2 A6                     	.dw MusicData_TurnAndTry_Silence
096DC                           	sound_play MusicData_TurnAndTry_Silence
096DC E2 A6                     	.dw MusicData_TurnAndTry_Silence
096DE                           	pat_ret
096DE 00 00                     	.dw 0
096E0                           
096E0                           PD_TAT_FDS:
096E0                           	sound_play MusicData_TurnAndTry_IntroSilence
096E0 DD A6                     	.dw MusicData_TurnAndTry_IntroSilence
096E2                           	establish_loop
096E2 00 E1                     	.db 0, LOOP_CMD
096E4                           	sound_play MusicData_TurnAndTry_FDS_1
096E4 32 A8                     	.dw MusicData_TurnAndTry_FDS_1
096E6                           	sound_play MusicData_TurnAndTry_FDS_1
096E6 32 A8                     	.dw MusicData_TurnAndTry_FDS_1
096E8                           	sound_play MusicData_TurnAndTry_FDS_1
096E8 32 A8                     	.dw MusicData_TurnAndTry_FDS_1
096EA                           	sound_play MusicData_TurnAndTry_FDS_2
096EA 46 A8                     	.dw MusicData_TurnAndTry_FDS_2
096EC                           	sound_play MusicData_TurnAndTry_FDS_1
096EC 32 A8                     	.dw MusicData_TurnAndTry_FDS_1
096EE                           	sound_play MusicData_TurnAndTry_FDS_1
096EE 32 A8                     	.dw MusicData_TurnAndTry_FDS_1
096F0                           	sound_play MusicData_TurnAndTry_FDS_1
096F0 32 A8                     	.dw MusicData_TurnAndTry_FDS_1
096F2                           	sound_play MusicData_TurnAndTry_FDS_1
096F2 32 A8                     	.dw MusicData_TurnAndTry_FDS_1
096F4                           	sound_play MusicData_TurnAndTry_FDS_1
096F4 32 A8                     	.dw MusicData_TurnAndTry_FDS_1
096F6                           	sound_play MusicData_TurnAndTry_FDS_1
096F6 32 A8                     	.dw MusicData_TurnAndTry_FDS_1
096F8                           	sound_play MusicData_TurnAndTry_FDS_1
096F8 32 A8                     	.dw MusicData_TurnAndTry_FDS_1
096FA                           	sound_play MusicData_TurnAndTry_FDS_3
096FA 5A A8                     	.dw MusicData_TurnAndTry_FDS_3
096FC                           	sound_play MusicData_TurnAndTry_FDS_1
096FC 32 A8                     	.dw MusicData_TurnAndTry_FDS_1
096FE                           	sound_play MusicData_TurnAndTry_FDS_1
096FE 32 A8                     	.dw MusicData_TurnAndTry_FDS_1
09700                           	sound_play MusicData_TurnAndTry_FDS_1
09700 32 A8                     	.dw MusicData_TurnAndTry_FDS_1
09702                           	sound_play MusicData_TurnAndTry_FDS_2
09702 46 A8                     	.dw MusicData_TurnAndTry_FDS_2
09704                           	sound_play MusicData_TurnAndTry_FDS_1
09704 32 A8                     	.dw MusicData_TurnAndTry_FDS_1
09706                           	sound_play MusicData_TurnAndTry_FDS_2
09706 46 A8                     	.dw MusicData_TurnAndTry_FDS_2
09708                           	sound_play MusicData_TurnAndTry_FDS_1
09708 32 A8                     	.dw MusicData_TurnAndTry_FDS_1
0970A                           	sound_play MusicData_TurnAndTry_FDS_1
0970A 32 A8                     	.dw MusicData_TurnAndTry_FDS_1
0970C                           	sound_play MusicData_TurnAndTry_FDS_4
0970C 71 A8                     	.dw MusicData_TurnAndTry_FDS_4
0970E                           	sound_play MusicData_TurnAndTry_FDS_4
0970E 71 A8                     	.dw MusicData_TurnAndTry_FDS_4
09710                           	sound_play MusicData_TurnAndTry_FDS_5
09710 7E A8                     	.dw MusicData_TurnAndTry_FDS_5
09712                           	sound_play MusicData_TurnAndTry_FDS_5
09712 7E A8                     	.dw MusicData_TurnAndTry_FDS_5
09714                           	pat_ret
09714 00 00                     	.dw 0
09716                           .include "src/music/pattern-data/tutorial-pat.asm"
09716                           PD_Tutorial_Pulse1:
09716                           	pitch_inc_switch
09716 00 E2                     	.db 0, TUNING_CMD
09718                           	establish_loop
09718 00 E1                     	.db 0, LOOP_CMD
0971A                           	sound_play MusicData_Tutorial_Pulse1
0971A 93 A8                     	.dw MusicData_Tutorial_Pulse1
0971C                           	pat_ret
0971C 00 00                     	.dw 0
0971E                           
0971E                           PD_Tutorial_Pulse2:
0971E                           	establish_loop
0971E 00 E1                     	.db 0, LOOP_CMD
09720                           	sound_play MusicData_Tutorial_Pulse2
09720 CF A8                     	.dw MusicData_Tutorial_Pulse2
09722                           	pat_ret
09722 00 00                     	.dw 0
09724                           
09724                           PD_Tutorial_Hill:
09724                           	establish_loop
09724 00 E1                     	.db 0, LOOP_CMD
09726                           	sound_play MusicData_Tutorial_Hill
09726 07 A9                     	.dw MusicData_Tutorial_Hill
09728                           	pat_ret
09728 00 00                     	.dw 0
0972A                           
0972A                           PD_Tutorial_Noise:
0972A                           	establish_loop
0972A 00 E1                     	.db 0, LOOP_CMD
0972C                           	sound_play MusicData_Tutorial_Noise
0972C 2A A9                     	.dw MusicData_Tutorial_Noise
0972E                           	pat_ret
0972E 00 00                     	.dw 0
09730                           
09730                           PD_Tutorial_FDS:
09730                           	establish_loop
09730 00 E1                     	.db 0, LOOP_CMD
09732                           	sound_play MusicData_Tutorial_FDS
09732 2D A9                     	.dw MusicData_Tutorial_FDS
09734                           	pat_ret
09734 00 00                     	.dw 0
09736                           .include "src/music/pattern-data/visionary-castle-pat.asm"09736                           PD_VC_Pulse1:
09736                           	establish_loop
09736 00 E1                     	.db 0, LOOP_CMD
09738                           	sound_play MusicData_VisionaryCastle_Pulse1_1
09738 6D A9                     	.dw MusicData_VisionaryCastle_Pulse1_1
0973A                           	sound_play MusicData_VisionaryCastle_Pulse1_1
0973A 6D A9                     	.dw MusicData_VisionaryCastle_Pulse1_1
0973C                           	sound_play MusicData_VisionaryCastle_Pulse1_1
0973C 6D A9                     	.dw MusicData_VisionaryCastle_Pulse1_1
0973E                           	sound_play MusicData_VisionaryCastle_Pulse1_2
0973E 85 A9                     	.dw MusicData_VisionaryCastle_Pulse1_2
09740                           	sound_play MusicData_VisionaryCastle_Pulse1_3
09740 9D A9                     	.dw MusicData_VisionaryCastle_Pulse1_3
09742                           	sound_play MusicData_VisionaryCastle_Pulse1_3
09742 9D A9                     	.dw MusicData_VisionaryCastle_Pulse1_3
09744                           	sound_play MusicData_VisionaryCastle_Pulse1_4
09744 F3 A9                     	.dw MusicData_VisionaryCastle_Pulse1_4
09746                           	sound_play MusicData_VisionaryCastle_Pulse1_4
09746 F3 A9                     	.dw MusicData_VisionaryCastle_Pulse1_4
09748                           	sound_play MusicData_VisionaryCastle_Pulse1_5
09748 1E AA                     	.dw MusicData_VisionaryCastle_Pulse1_5
0974A                           	pat_ret
0974A 00 00                     	.dw 0
0974C                           
0974C                           PD_VC_Pulse2:
0974C                           	pitch_inc_switch
0974C 00 E2                     	.db 0, TUNING_CMD
0974E                           	establish_loop
0974E 00 E1                     	.db 0, LOOP_CMD
09750                           	sound_play MusicData_VisionaryCastle_Pulse2_1
09750 79 A9                     	.dw MusicData_VisionaryCastle_Pulse2_1
09752                           	sound_play MusicData_VisionaryCastle_Pulse2_1
09752 79 A9                     	.dw MusicData_VisionaryCastle_Pulse2_1
09754                           	sound_play MusicData_VisionaryCastle_Pulse2_1
09754 79 A9                     	.dw MusicData_VisionaryCastle_Pulse2_1
09756                           	sound_play MusicData_VisionaryCastle_Pulse2_2
09756 91 A9                     	.dw MusicData_VisionaryCastle_Pulse2_2
09758                           	sound_play MusicData_VisionaryCastle_Pulse2_3
09758 C8 A9                     	.dw MusicData_VisionaryCastle_Pulse2_3
0975A                           	sound_play MusicData_VisionaryCastle_Pulse2_3
0975A C8 A9                     	.dw MusicData_VisionaryCastle_Pulse2_3
0975C                           	sound_play MusicData_VisionaryCastle_Pulse2_3
0975C C8 A9                     	.dw MusicData_VisionaryCastle_Pulse2_3
0975E                           	sound_play MusicData_VisionaryCastle_Pulse2_3
0975E C8 A9                     	.dw MusicData_VisionaryCastle_Pulse2_3
09760                           	sound_play MusicData_VisionaryCastle_Pulse2_4
09760 43 AA                     	.dw MusicData_VisionaryCastle_Pulse2_4
09762                           	pat_ret
09762 00 00                     	.dw 0
09764                           
09764                           PD_VC_Hill
09764                           	establish_loop
09764 00 E1                     	.db 0, LOOP_CMD
09766                           	sound_play MusicData_VisionaryCastle_Hill_1
09766 6A AA                     	.dw MusicData_VisionaryCastle_Hill_1
09768                           	sound_play MusicData_VisionaryCastle_Hill_2
09768 7A AA                     	.dw MusicData_VisionaryCastle_Hill_2
0976A                           	sound_play MusicData_VisionaryCastle_Hill_2
0976A 7A AA                     	.dw MusicData_VisionaryCastle_Hill_2
0976C                           	sound_play MusicData_VisionaryCastle_Hill_2
0976C 7A AA                     	.dw MusicData_VisionaryCastle_Hill_2
0976E                           	sound_play MusicData_VisionaryCastle_Hill_3
0976E BD AA                     	.dw MusicData_VisionaryCastle_Hill_3
09770                           	sound_play MusicData_VisionaryCastle_Hill_3
09770 BD AA                     	.dw MusicData_VisionaryCastle_Hill_3
09772                           	sound_play MusicData_VisionaryCastle_Hill_4
09772 CA AA                     	.dw MusicData_VisionaryCastle_Hill_4
09774                           	pat_ret
09774 00 00                     	.dw 0
09776                           
09776                           PD_VC_Noise:
09776                           	establish_loop
09776 00 E1                     	.db 0, LOOP_CMD
09778                           	sound_play MusicData_VisionaryCastle_Noise_1
09778 E7 AA                     	.dw MusicData_VisionaryCastle_Noise_1
0977A                           	sound_play MusicData_VisionaryCastle_Noise_2
0977A F9 AA                     	.dw MusicData_VisionaryCastle_Noise_2
0977C                           	sound_play MusicData_VisionaryCastle_Noise_1
0977C E7 AA                     	.dw MusicData_VisionaryCastle_Noise_1
0977E                           	sound_play MusicData_VisionaryCastle_Noise_1
0977E E7 AA                     	.dw MusicData_VisionaryCastle_Noise_1
09780                           	sound_play MusicData_VisionaryCastle_Noise_1
09780 E7 AA                     	.dw MusicData_VisionaryCastle_Noise_1
09782                           	sound_play MusicData_VisionaryCastle_Noise_3
09782 08 AB                     	.dw MusicData_VisionaryCastle_Noise_3
09784                           	sound_play MusicData_VisionaryCastle_Noise_1
09784 E7 AA                     	.dw MusicData_VisionaryCastle_Noise_1
09786                           	sound_play MusicData_VisionaryCastle_Noise_1
09786 E7 AA                     	.dw MusicData_VisionaryCastle_Noise_1
09788                           	sound_play MusicData_VisionaryCastle_Noise_1
09788 E7 AA                     	.dw MusicData_VisionaryCastle_Noise_1
0978A                           	sound_play MusicData_VisionaryCastle_Noise_1
0978A E7 AA                     	.dw MusicData_VisionaryCastle_Noise_1
0978C                           	sound_play MusicData_VisionaryCastle_Noise_1
0978C E7 AA                     	.dw MusicData_VisionaryCastle_Noise_1
0978E                           	sound_play MusicData_VisionaryCastle_Noise_1
0978E E7 AA                     	.dw MusicData_VisionaryCastle_Noise_1
09790                           	sound_play MusicData_VisionaryCastle_Noise_1
09790 E7 AA                     	.dw MusicData_VisionaryCastle_Noise_1
09792                           	sound_play MusicData_VisionaryCastle_Noise_1
09792 E7 AA                     	.dw MusicData_VisionaryCastle_Noise_1
09794                           	sound_play MusicData_VisionaryCastle_Noise_1
09794 E7 AA                     	.dw MusicData_VisionaryCastle_Noise_1
09796                           	sound_play MusicData_VisionaryCastle_Noise_1
09796 E7 AA                     	.dw MusicData_VisionaryCastle_Noise_1
09798                           	sound_play MusicData_VisionaryCastle_Noise_1
09798 E7 AA                     	.dw MusicData_VisionaryCastle_Noise_1
0979A                           	sound_play MusicData_VisionaryCastle_Noise_4
0979A 1A AB                     	.dw MusicData_VisionaryCastle_Noise_4
0979C                           	sound_play MusicData_VisionaryCastle_Noise_1
0979C E7 AA                     	.dw MusicData_VisionaryCastle_Noise_1
0979E                           	sound_play MusicData_VisionaryCastle_Noise_1
0979E E7 AA                     	.dw MusicData_VisionaryCastle_Noise_1
097A0                           	sound_play MusicData_VisionaryCastle_Noise_1
097A0 E7 AA                     	.dw MusicData_VisionaryCastle_Noise_1
097A2                           	sound_play MusicData_VisionaryCastle_Noise_5
097A2 2C AB                     	.dw MusicData_VisionaryCastle_Noise_5
097A4                           	pat_ret
097A4 00 00                     	.dw 0
097A6                           
097A6                           PD_VC_FDS:
097A6                           	establish_loop
097A6 00 E1                     	.db 0, LOOP_CMD
097A8                           	sound_play MusicData_VisionaryCastle_FDS_1
097A8 34 AB                     	.dw MusicData_VisionaryCastle_FDS_1
097AA                           	sound_play MusicData_VisionaryCastle_FDS_2
097AA 3E AB                     	.dw MusicData_VisionaryCastle_FDS_2
097AC                           	sound_play MusicData_VisionaryCastle_FDS_2
097AC 3E AB                     	.dw MusicData_VisionaryCastle_FDS_2
097AE                           	sound_play MusicData_VisionaryCastle_FDS_2
097AE 3E AB                     	.dw MusicData_VisionaryCastle_FDS_2
097B0                           	sound_play MusicData_VisionaryCastle_FDS_3
097B0 52 AB                     	.dw MusicData_VisionaryCastle_FDS_3
097B2                           	sound_play MusicData_VisionaryCastle_FDS_4
097B2 67 AB                     	.dw MusicData_VisionaryCastle_FDS_4
097B4                           	sound_play MusicData_VisionaryCastle_FDS_4
097B4 67 AB                     	.dw MusicData_VisionaryCastle_FDS_4
097B6                           	sound_play MusicData_VisionaryCastle_FDS_4
097B6 67 AB                     	.dw MusicData_VisionaryCastle_FDS_4
097B8                           	sound_play MusicData_VisionaryCastle_FDS_5
097B8 7A AB                     	.dw MusicData_VisionaryCastle_FDS_5
097BA                           	sound_play MusicData_VisionaryCastle_FDS_4
097BA 67 AB                     	.dw MusicData_VisionaryCastle_FDS_4
097BC                           	sound_play MusicData_VisionaryCastle_FDS_4
097BC 67 AB                     	.dw MusicData_VisionaryCastle_FDS_4
097BE                           	sound_play MusicData_VisionaryCastle_FDS_4
097BE 67 AB                     	.dw MusicData_VisionaryCastle_FDS_4
097C0                           	sound_play MusicData_VisionaryCastle_FDS_4
097C0 67 AB                     	.dw MusicData_VisionaryCastle_FDS_4
097C2                           	sound_play MusicData_VisionaryCastle_FDS_4
097C2 67 AB                     	.dw MusicData_VisionaryCastle_FDS_4
097C4                           	sound_play MusicData_VisionaryCastle_FDS_4
097C4 67 AB                     	.dw MusicData_VisionaryCastle_FDS_4
097C6                           	sound_play MusicData_VisionaryCastle_FDS_5
097C6 7A AB                     	.dw MusicData_VisionaryCastle_FDS_5
097C8                           	sound_play MusicData_VisionaryCastle_FDS_6
097C8 8D AB                     	.dw MusicData_VisionaryCastle_FDS_6
097CA                           	sound_play MusicData_VisionaryCastle_FDS_7
097CA A0 AB                     	.dw MusicData_VisionaryCastle_FDS_7
097CC                           	sound_play MusicData_VisionaryCastle_FDS_7
097CC A0 AB                     	.dw MusicData_VisionaryCastle_FDS_7
097CE                           	sound_play MusicData_VisionaryCastle_FDS_8
097CE AC AB                     	.dw MusicData_VisionaryCastle_FDS_8
097D0                           	pat_ret
097D0 00 00                     	.dw 0
097D2                           .include "src/music/music-data.asm"097D2                           .include "src/music/music-data/concrete-jungle.asm"
097D2                           MusicData_ConcreteJungle_Pulse1Pulse2:
097D2                           	instrument 11
097D2 CB                        	.db INSTRUMENT_CMD | 11
097D3                           	volume_const
097D3 EF                        	.db FADE_CTRL_CMD + F_IN - 1
097D4                           	note_length M4_5, S16
097D4 9A                        	.db NOTE_LENGTH_CMD | M4_5 | S16
097D5                           	note G_, 3
097D5 38                        	.db 3 << 4 | G_
097D6                           	note D_, 3
097D6 33                        	.db 3 << 4 | D_
097D7                           	note_length M3, S16
097D7 92                        	.db NOTE_LENGTH_CMD | M3 | S16
097D8                           	note F_, 3
097D8 36                        	.db 3 << 4 | F_
097D9                           	note_length M4_5, S16
097D9 9A                        	.db NOTE_LENGTH_CMD | M4_5 | S16
097DA                           	note G_, 3
097DA 38                        	.db 3 << 4 | G_
097DB                           	note D_, 3
097DB 33                        	.db 3 << 4 | D_
097DC                           	note_length M3, S16
097DC 92                        	.db NOTE_LENGTH_CMD | M3 | S16
097DD                           	note G_, 3
097DD 38                        	.db 3 << 4 | G_
097DE                           	note_length M4_5, S16
097DE 9A                        	.db NOTE_LENGTH_CMD | M4_5 | S16
097DF                           	note F_, 3
097DF 36                        	.db 3 << 4 | F_
097E0                           	note C_, 3
097E0 31                        	.db 3 << 4 | C_
097E1                           	note_length M3, S16
097E1 92                        	.db NOTE_LENGTH_CMD | M3 | S16
097E2                           	note D#, 3
097E2 34                        	.db 3 << 4 | D#
097E3                           	note_length M4_5, S16
097E3 9A                        	.db NOTE_LENGTH_CMD | M4_5 | S16
097E4                           	note F_, 3
097E4 36                        	.db 3 << 4 | F_
097E5                           	note C_, 3
097E5 31                        	.db 3 << 4 | C_
097E6                           	note_length M3, S16
097E6 92                        	.db NOTE_LENGTH_CMD | M3 | S16
097E7                           	note F_, 3
097E7 36                        	.db 3 << 4 | F_
097E8                           	sound_ret
097E8 FF                        	.db SOUND_RET_CMD
097E9                           
097E9                           MusicData_ConcreteJungle_Pulse1_1:
097E9                           	instrument 30
097E9 DE                        	.db INSTRUMENT_CMD | 30
097EA                           	volume_const
097EA EF                        	.db FADE_CTRL_CMD + F_IN - 1
097EB                           	note_length M3, S2
097EB 95                        	.db NOTE_LENGTH_CMD | M3 | S2
097EC                           	pitch_slide 1, B_, 3
097EC A1 3C                     	.db PITCH_BEND_CMD | 1, 3 << 4 | B_
097EE                           	note A_, 3
097EE 3A                        	.db 3 << 4 | A_
097EF                           	note A_, 3
097EF 3A                        	.db 3 << 4 | A_
097F0                           	sound_ret
097F0 FF                        	.db SOUND_RET_CMD
097F1                           
097F1                           MusicData_ConcreteJungle_Pulse1_2:
097F1                           	instrument 11
097F1 CB                        	.db INSTRUMENT_CMD | 11
097F2                           	volume_const
097F2 EF                        	.db FADE_CTRL_CMD + F_IN - 1
097F3                           	note_length M4_5, S2
097F3 9D                        	.db NOTE_LENGTH_CMD | M4_5 | S2
097F4                           	note G_, 3
097F4 38                        	.db 3 << 4 | G_
097F5                           	note_length M3, S32
097F5 91                        	.db NOTE_LENGTH_CMD | M3 | S32
097F6                           	rest
097F6 00                        	.db 0
097F7                           	note F#, 3
097F7 37                        	.db 3 << 4 | F#
097F8                           	rest
097F8 00                        	.db 0
097F9                           	note F#, 3
097F9 37                        	.db 3 << 4 | F#
097FA                           	rest
097FA 00                        	.db 0
097FB                           	note F#, 3
097FB 37                        	.db 3 << 4 | F#
097FC                           	rest
097FC 00                        	.db 0
097FD                           	note F#, 3
097FD 37                        	.db 3 << 4 | F#
097FE                           	sound_ret
097FE FF                        	.db SOUND_RET_CMD
097FF                           
097FF                           MusicData_ConcreteJungle_Pulse1_3:
097FF                           	instrument 28
097FF DC                        	.db INSTRUMENT_CMD | 28
09800                           	volume_const
09800 EF                        	.db FADE_CTRL_CMD + F_IN - 1
09801                           	note_length M3, S2
09801 95                        	.db NOTE_LENGTH_CMD | M3 | S2
09802                           	note B_, 2
09802 2C                        	.db 2 << 4 | B_
09803                           	note A_, 2
09803 2A                        	.db 2 << 4 | A_
09804                           	note A_, 2
09804 2A                        	.db 2 << 4 | A_
09805                           	sound_ret
09805 FF                        	.db SOUND_RET_CMD
09806                           
09806                           MusicData_ConcreteJungle_Pulse1_4:
09806                           	instrument 28
09806 DC                        	.db INSTRUMENT_CMD | 28
09807                           	volume_const
09807 EF                        	.db FADE_CTRL_CMD + F_IN - 1
09808                           	note_length M3, S2
09808 95                        	.db NOTE_LENGTH_CMD | M3 | S2
09809                           	pitch_slide 2, B_, 2
09809 A2 2C                     	.db PITCH_BEND_CMD | 2, 2 << 4 | B_
0980B                           	note A_, 2
0980B 2A                        	.db 2 << 4 | A_
0980C                           	sound_ret
0980C FF                        	.db SOUND_RET_CMD
0980D                           
0980D                           MusicData_ConcreteJungle_Pulse1_5:
0980D                           	instrument 19
0980D D3                        	.db INSTRUMENT_CMD | 19
0980E                           	volume_const
0980E EF                        	.db FADE_CTRL_CMD + F_IN - 1
0980F                           	note_length M1, S8
0980F 83                        	.db NOTE_LENGTH_CMD | M1 | S8
09810                           	note A#, 3
09810 3B                        	.db 3 << 4 | A#
09811                           	note F_, 3
09811 36                        	.db 3 << 4 | F_
09812                           	note G_, 3
09812 38                        	.db 3 << 4 | G_
09813                           	note D_, 3
09813 33                        	.db 3 << 4 | D_
09814                           	note C_, 3
09814 31                        	.db 3 << 4 | C_
09815                           	rest
09815 00                        	.db 0
09816                           	note_length M3, S4
09816 94                        	.db NOTE_LENGTH_CMD | M3 | S4
09817                           	rest
09817 00                        	.db 0
09818                           	sound_ret
09818 FF                        	.db SOUND_RET_CMD
09819                           
09819                           MusicData_ConcreteJungle_Pulse2_1:
09819                           	instrument 15
09819 CF                        	.db INSTRUMENT_CMD | 15
0981A                           	volume_const
0981A EF                        	.db FADE_CTRL_CMD + F_IN - 1
0981B                           	note_length M3, S8
0981B 93                        	.db NOTE_LENGTH_CMD | M3 | S8
0981C                           	note G_, 3
0981C 38                        	.db 3 << 4 | G_
0981D                           	note_length M4_5, S16
0981D 9A                        	.db NOTE_LENGTH_CMD | M4_5 | S16
0981E                           	note D_, 3
0981E 33                        	.db 3 << 4 | D_
0981F                           	note_length M3, S16
0981F 92                        	.db NOTE_LENGTH_CMD | M3 | S16
09820                           	note F_, 3
09820 36                        	.db 3 << 4 | F_
09821                           	note_length M4_5, S16
09821 9A                        	.db NOTE_LENGTH_CMD | M4_5 | S16
09822                           	note G_, 3
09822 38                        	.db 3 << 4 | G_
09823                           	note D_, 3
09823 33                        	.db 3 << 4 | D_
09824                           	note_length M3, S16
09824 92                        	.db NOTE_LENGTH_CMD | M3 | S16
09825                           	note G_, 3
09825 38                        	.db 3 << 4 | G_
09826                           	note_length M4_5, S16
09826 9A                        	.db NOTE_LENGTH_CMD | M4_5 | S16
09827                           	note F_, 3
09827 36                        	.db 3 << 4 | F_
09828                           	note C_, 3
09828 31                        	.db 3 << 4 | C_
09829                           	note_length M3, S16
09829 92                        	.db NOTE_LENGTH_CMD | M3 | S16
0982A                           	note D#, 3
0982A 34                        	.db 3 << 4 | D#
0982B                           	note_length M4_5, S16
0982B 9A                        	.db NOTE_LENGTH_CMD | M4_5 | S16
0982C                           	note F_, 3
0982C 36                        	.db 3 << 4 | F_
0982D                           	note C_, 3
0982D 31                        	.db 3 << 4 | C_
0982E                           	note_length M3, S16
0982E 92                        	.db NOTE_LENGTH_CMD | M3 | S16
0982F                           	note F_, 3
0982F 36                        	.db 3 << 4 | F_
09830                           	note_length M4_5, S16
09830 9A                        	.db NOTE_LENGTH_CMD | M4_5 | S16
09831                           	note G_, 3
09831 38                        	.db 3 << 4 | G_
09832                           	note D_, 3
09832 33                        	.db 3 << 4 | D_
09833                           	note_length M3, S16
09833 92                        	.db NOTE_LENGTH_CMD | M3 | S16
09834                           	note F_, 3
09834 36                        	.db 3 << 4 | F_
09835                           	note_length M4_5, S16
09835 9A                        	.db NOTE_LENGTH_CMD | M4_5 | S16
09836                           	note G_, 3
09836 38                        	.db 3 << 4 | G_
09837                           	note D_, 3
09837 33                        	.db 3 << 4 | D_
09838                           	note_length M3, S16
09838 92                        	.db NOTE_LENGTH_CMD | M3 | S16
09839                           	note G_, 3
09839 38                        	.db 3 << 4 | G_
0983A                           	note_length M4_5, S16
0983A 9A                        	.db NOTE_LENGTH_CMD | M4_5 | S16
0983B                           	note F_, 3
0983B 36                        	.db 3 << 4 | F_
0983C                           	note C_, 3
0983C 31                        	.db 3 << 4 | C_
0983D                           	note_length M3, S16
0983D 92                        	.db NOTE_LENGTH_CMD | M3 | S16
0983E                           	note D#, 3
0983E 34                        	.db 3 << 4 | D#
0983F                           	note_length M4_5, S16
0983F 9A                        	.db NOTE_LENGTH_CMD | M4_5 | S16
09840                           	note F_, 3
09840 36                        	.db 3 << 4 | F_
09841                           	note C_, 3
09841 31                        	.db 3 << 4 | C_
09842                           	note_length M3, S16
09842 92                        	.db NOTE_LENGTH_CMD | M3 | S16
09843                           	note F_, 3
09843 36                        	.db 3 << 4 | F_
09844                           	note_length M4_5, S16
09844 9A                        	.db NOTE_LENGTH_CMD | M4_5 | S16
09845                           	note G_, 3
09845 38                        	.db 3 << 4 | G_
09846                           	note D_, 3
09846 33                        	.db 3 << 4 | D_
09847                           	note_length M3, S16
09847 92                        	.db NOTE_LENGTH_CMD | M3 | S16
09848                           	note F_, 3
09848 36                        	.db 3 << 4 | F_
09849                           	note_length M4_5, S16
09849 9A                        	.db NOTE_LENGTH_CMD | M4_5 | S16
0984A                           	note G_, 3
0984A 38                        	.db 3 << 4 | G_
0984B                           	note D_, 3
0984B 33                        	.db 3 << 4 | D_
0984C                           	note_length M3, S16
0984C 92                        	.db NOTE_LENGTH_CMD | M3 | S16
0984D                           	note G_, 3
0984D 38                        	.db 3 << 4 | G_
0984E                           	note_length M4_5, S16
0984E 9A                        	.db NOTE_LENGTH_CMD | M4_5 | S16
0984F                           	note F_, 3
0984F 36                        	.db 3 << 4 | F_
09850                           	note C_, 3
09850 31                        	.db 3 << 4 | C_
09851                           	note_length M3, S16
09851 92                        	.db NOTE_LENGTH_CMD | M3 | S16
09852                           	note D#, 3
09852 34                        	.db 3 << 4 | D#
09853                           	note_length M4_5, S16
09853 9A                        	.db NOTE_LENGTH_CMD | M4_5 | S16
09854                           	note F_, 3
09854 36                        	.db 3 << 4 | F_
09855                           	note C_, 3
09855 31                        	.db 3 << 4 | C_
09856                           	note_length M3, S32
09856 91                        	.db NOTE_LENGTH_CMD | M3 | S32
09857                           	note F_, 3
09857 36                        	.db 3 << 4 | F_
09858                           	sound_ret
09858 FF                        	.db SOUND_RET_CMD
09859                           
09859                           MusicData_ConcreteJungle_Pulse2_2:
09859                           	instrument 19
09859 D3                        	.db INSTRUMENT_CMD | 19
0985A                           	volume_const
0985A EF                        	.db FADE_CTRL_CMD + F_IN - 1
0985B                           	note_length M4_5, S2
0985B 9D                        	.db NOTE_LENGTH_CMD | M4_5 | S2
0985C                           	note A#, 3
0985C 3B                        	.db 3 << 4 | A#
0985D                           	note_length M3, S32
0985D 91                        	.db NOTE_LENGTH_CMD | M3 | S32
0985E                           	rest
0985E 00                        	.db 0
0985F                           	note C_, 4
0985F 41                        	.db 4 << 4 | C_
09860                           	rest
09860 00                        	.db 0
09861                           	note C_, 4
09861 41                        	.db 4 << 4 | C_
09862                           	rest
09862 00                        	.db 0
09863                           	note C_, 4
09863 41                        	.db 4 << 4 | C_
09864                           	rest
09864 00                        	.db 0
09865                           	note C_, 4
09865 41                        	.db 4 << 4 | C_
09866                           	note_length M4_5, S4
09866 9C                        	.db NOTE_LENGTH_CMD | M4_5 | S4
09867                           	note G_, 3
09867 38                        	.db 3 << 4 | G_
09868                           	note_length M3, S16
09868 92                        	.db NOTE_LENGTH_CMD | M3 | S16
09869                           	note B_, 3
09869 3C                        	.db 3 << 4 | B_
0986A                           	note G_, 3
0986A 38                        	.db 3 << 4 | G_
0986B                           	note_length M4_5, S4
0986B 9C                        	.db NOTE_LENGTH_CMD | M4_5 | S4
0986C                           	note F_, 3
0986C 36                        	.db 3 << 4 | F_
0986D                           	note_length M3, S16
0986D 92                        	.db NOTE_LENGTH_CMD | M3 | S16
0986E                           	note B_, 3
0986E 3C                        	.db 3 << 4 | B_
0986F                           	note G_, 3
0986F 38                        	.db 3 << 4 | G_
09870                           	note_length M4_5, S4
09870 9C                        	.db NOTE_LENGTH_CMD | M4_5 | S4
09871                           	note F_, 3
09871 36                        	.db 3 << 4 | F_
09872                           	note_length M3, S16
09872 92                        	.db NOTE_LENGTH_CMD | M3 | S16
09873                           	note B_, 3
09873 3C                        	.db 3 << 4 | B_
09874                           	note G_, 3
09874 38                        	.db 3 << 4 | G_
09875                           	note_length M3, S4
09875 94                        	.db NOTE_LENGTH_CMD | M3 | S4
09876                           	pitch_slide 1, D_, 4
09876 A1 43                     	.db PITCH_BEND_CMD | 1, 4 << 4 | D_
09878                           	note C_, 3
09878 31                        	.db 3 << 4 | C_
09879                           	note_length M4_5, S8
09879 9B                        	.db NOTE_LENGTH_CMD | M4_5 | S8
0987A                           	tie
0987A 0F                        	.db NOTE_MASK
0987B                           	note_length M3, S16
0987B 92                        	.db NOTE_LENGTH_CMD | M3 | S16
0987C                           	rest
0987C 00                        	.db 0
0987D                           	instrument 30
0987D DE                        	.db INSTRUMENT_CMD | 30
0987E                           	note_length M3, S4
0987E 94                        	.db NOTE_LENGTH_CMD | M3 | S4
0987F                           	note D_, 3
0987F 33                        	.db 3 << 4 | D_
09880                           	note_length M3, S16
09880 92                        	.db NOTE_LENGTH_CMD | M3 | S16
09881                           	rest
09881 00                        	.db 0
09882                           	note D_, 3
09882 33                        	.db 3 << 4 | D_
09883                           	note D_, 3
09883 33                        	.db 3 << 4 | D_
09884                           	note D_, 3
09884 33                        	.db 3 << 4 | D_
09885                           	note_length M3, S4
09885 94                        	.db NOTE_LENGTH_CMD | M3 | S4
09886                           	pitch_slide 2, D_, 4
09886 A2 43                     	.db PITCH_BEND_CMD | 2, 4 << 4 | D_
09888                           	note C_, 3
09888 31                        	.db 3 << 4 | C_
09889                           	note_length M3, S16
09889 92                        	.db NOTE_LENGTH_CMD | M3 | S16
0988A                           	rest
0988A 00                        	.db 0
0988B                           	note D_, 3
0988B 33                        	.db 3 << 4 | D_
0988C                           	note D_, 3
0988C 33                        	.db 3 << 4 | D_
0988D                           	note D_, 3
0988D 33                        	.db 3 << 4 | D_
0988E                           	note_length M3, S4
0988E 94                        	.db NOTE_LENGTH_CMD | M3 | S4
0988F                           	pitch_slide 2, D_, 4
0988F A2 43                     	.db PITCH_BEND_CMD | 2, 4 << 4 | D_
09891                           	note C_, 3
09891 31                        	.db 3 << 4 | C_
09892                           	note_length M3, S16
09892 92                        	.db NOTE_LENGTH_CMD | M3 | S16
09893                           	rest
09893 00                        	.db 0
09894                           	note D_, 3
09894 33                        	.db 3 << 4 | D_
09895                           	note D_, 3
09895 33                        	.db 3 << 4 | D_
09896                           	note D_, 3
09896 33                        	.db 3 << 4 | D_
09897                           	note_length M3, S32
09897 91                        	.db NOTE_LENGTH_CMD | M3 | S32
09898                           	rest
09898 00                        	.db 0
09899                           	instrument 20
09899 D4                        	.db INSTRUMENT_CMD | 20
0989A                           	note_length M1, S8
0989A 83                        	.db NOTE_LENGTH_CMD | M1 | S8
0989B                           	note A#, 3
0989B 3B                        	.db 3 << 4 | A#
0989C                           	note F_, 3
0989C 36                        	.db 3 << 4 | F_
0989D                           	note G_, 3
0989D 38                        	.db 3 << 4 | G_
0989E                           	note D_, 3
0989E 33                        	.db 3 << 4 | D_
0989F                           	note C_, 3
0989F 31                        	.db 3 << 4 | C_
098A0                           	rest
098A0 00                        	.db 0
098A1                           	note_length M4_5, S16
098A1 9A                        	.db NOTE_LENGTH_CMD | M4_5 | S16
098A2                           	rest
098A2 00                        	.db 0
098A3                           	note_length M1, S8
098A3 83                        	.db NOTE_LENGTH_CMD | M1 | S8
098A4                           	rest
098A4 00                        	.db 0
098A5                           	sound_ret
098A5 FF                        	.db SOUND_RET_CMD
098A6                           
098A6                           MusicData_ConcreteJungle_Hill_1:
098A6                           	instrument 0
098A6 C0                        	.db INSTRUMENT_CMD | 0
098A7                           	note_length M4_5, S32
098A7 99                        	.db NOTE_LENGTH_CMD | M4_5 | S32
098A8                           	note G_, 3
098A8 38                        	.db 3 << 4 | G_
098A9                           	note_length M3, S64
098A9 90                        	.db NOTE_LENGTH_CMD | M3 | S64
098AA                           	rest
098AA 00                        	.db 0
098AB                           	note_length M4_5, S32
098AB 99                        	.db NOTE_LENGTH_CMD | M4_5 | S32
098AC                           	note G_, 3
098AC 38                        	.db 3 << 4 | G_
098AD                           	note_length M3, S64
098AD 90                        	.db NOTE_LENGTH_CMD | M3 | S64
098AE                           	rest
098AE 00                        	.db 0
098AF                           	note_length M3, S16
098AF 92                        	.db NOTE_LENGTH_CMD | M3 | S16
098B0                           	note G_, 3
098B0 38                        	.db 3 << 4 | G_
098B1                           	note_length M3, S64
098B1 90                        	.db NOTE_LENGTH_CMD | M3 | S64
098B2                           	tie
098B2 0F                        	.db NOTE_MASK
098B3                           	rest
098B3 00                        	.db 0
098B4                           	instrument 21
098B4 D5                        	.db INSTRUMENT_CMD | 21
098B5                           	note_length M3, S32
098B5 91                        	.db NOTE_LENGTH_CMD | M3 | S32
098B6                           	note G_, 3
098B6 38                        	.db 3 << 4 | G_
098B7                           	rest
098B7 00                        	.db 0
098B8                           	note G_, 3
098B8 38                        	.db 3 << 4 | G_
098B9                           	note_length M3, S16
098B9 92                        	.db NOTE_LENGTH_CMD | M3 | S16
098BA                           	note G_, 3
098BA 38                        	.db 3 << 4 | G_
098BB                           	note_length M3, S32
098BB 91                        	.db NOTE_LENGTH_CMD | M3 | S32
098BC                           	note G_, 3
098BC 38                        	.db 3 << 4 | G_
098BD                           	note D_, 3
098BD 33                        	.db 3 << 4 | D_
098BE                           	note F_, 3
098BE 36                        	.db 3 << 4 | F_
098BF                           	note G_, 3
098BF 38                        	.db 3 << 4 | G_
098C0                           	instrument 0
098C0 C0                        	.db INSTRUMENT_CMD | 0
098C1                           	note_length M4_5, S32
098C1 99                        	.db NOTE_LENGTH_CMD | M4_5 | S32
098C2                           	note F_, 3
098C2 36                        	.db 3 << 4 | F_
098C3                           	note_length M3, S64
098C3 90                        	.db NOTE_LENGTH_CMD | M3 | S64
098C4                           	rest
098C4 00                        	.db 0
098C5                           	note_length M4_5, S32
098C5 99                        	.db NOTE_LENGTH_CMD | M4_5 | S32
098C6                           	note F_, 3
098C6 36                        	.db 3 << 4 | F_
098C7                           	note_length M3, S64
098C7 90                        	.db NOTE_LENGTH_CMD | M3 | S64
098C8                           	rest
098C8 00                        	.db 0
098C9                           	note_length M3, S16
098C9 92                        	.db NOTE_LENGTH_CMD | M3 | S16
098CA                           	note F_, 3
098CA 36                        	.db 3 << 4 | F_
098CB                           	note_length M3, S64
098CB 90                        	.db NOTE_LENGTH_CMD | M3 | S64
098CC                           	tie
098CC 0F                        	.db NOTE_MASK
098CD                           	rest
098CD 00                        	.db 0
098CE                           	instrument 21
098CE D5                        	.db INSTRUMENT_CMD | 21
098CF                           	note_length M3, S32
098CF 91                        	.db NOTE_LENGTH_CMD | M3 | S32
098D0                           	note F_, 3
098D0 36                        	.db 3 << 4 | F_
098D1                           	rest
098D1 00                        	.db 0
098D2                           	note F_, 3
098D2 36                        	.db 3 << 4 | F_
098D3                           	note_length M3, S16
098D3 92                        	.db NOTE_LENGTH_CMD | M3 | S16
098D4                           	note F_, 3
098D4 36                        	.db 3 << 4 | F_
098D5                           	note F_, 3
098D5 36                        	.db 3 << 4 | F_
098D6                           	note F_, 3
098D6 36                        	.db 3 << 4 | F_
098D7                           	sound_ret
098D7 FF                        	.db SOUND_RET_CMD
098D8                           
098D8                           MusicData_ConcreteJungle_Hill_2:
098D8                           	instrument 0
098D8 C0                        	.db INSTRUMENT_CMD | 0
098D9                           	note_length M4_5, S2
098D9 9D                        	.db NOTE_LENGTH_CMD | M4_5 | S2
098DA                           	note E_, 3
098DA 35                        	.db 3 << 4 | E_
098DB                           	note_length M3, S32
098DB 91                        	.db NOTE_LENGTH_CMD | M3 | S32
098DC                           	rest
098DC 00                        	.db 0
098DD                           	note D_, 3
098DD 33                        	.db 3 << 4 | D_
098DE                           	rest
098DE 00                        	.db 0
098DF                           	note D_, 3
098DF 33                        	.db 3 << 4 | D_
098E0                           	rest
098E0 00                        	.db 0
098E1                           	note D_, 3
098E1 33                        	.db 3 << 4 | D_
098E2                           	rest
098E2 00                        	.db 0
098E3                           	note D_, 3
098E3 33                        	.db 3 << 4 | D_
098E4                           	sound_ret
098E4 FF                        	.db SOUND_RET_CMD
098E5                           
098E5                           MusicData_ConcreteJungle_Hill_3:
098E5                           	instrument 0
098E5 C0                        	.db INSTRUMENT_CMD | 0
098E6                           	note_length M4_5, S32
098E6 99                        	.db NOTE_LENGTH_CMD | M4_5 | S32
098E7                           	note F_, 3
098E7 36                        	.db 3 << 4 | F_
098E8                           	note_length M3, S64
098E8 90                        	.db NOTE_LENGTH_CMD | M3 | S64
098E9                           	rest
098E9 00                        	.db 0
098EA                           	note_length M4_5, S32
098EA 99                        	.db NOTE_LENGTH_CMD | M4_5 | S32
098EB                           	note F_, 3
098EB 36                        	.db 3 << 4 | F_
098EC                           	note_length M3, S64
098EC 90                        	.db NOTE_LENGTH_CMD | M3 | S64
098ED                           	rest
098ED 00                        	.db 0
098EE                           	note_length M3, S16
098EE 92                        	.db NOTE_LENGTH_CMD | M3 | S16
098EF                           	note F_, 3
098EF 36                        	.db 3 << 4 | F_
098F0                           	note_length M3, S64
098F0 90                        	.db NOTE_LENGTH_CMD | M3 | S64
098F1                           	tie
098F1 0F                        	.db NOTE_MASK
098F2                           	rest
098F2 00                        	.db 0
098F3                           	instrument 21
098F3 D5                        	.db INSTRUMENT_CMD | 21
098F4                           	note_length M3, S32
098F4 91                        	.db NOTE_LENGTH_CMD | M3 | S32
098F5                           	note F_, 3
098F5 36                        	.db 3 << 4 | F_
098F6                           	rest
098F6 00                        	.db 0
098F7                           	note F_, 3
098F7 36                        	.db 3 << 4 | F_
098F8                           	note_length M3, S16
098F8 92                        	.db NOTE_LENGTH_CMD | M3 | S16
098F9                           	note F_, 3
098F9 36                        	.db 3 << 4 | F_
098FA                           	note_length M3, S32
098FA 91                        	.db NOTE_LENGTH_CMD | M3 | S32
098FB                           	note F_, 3
098FB 36                        	.db 3 << 4 | F_
098FC                           	note C_, 3
098FC 31                        	.db 3 << 4 | C_
098FD                           	note D#, 3
098FD 34                        	.db 3 << 4 | D#
098FE                           	note F_, 3
098FE 36                        	.db 3 << 4 | F_
098FF                           	sound_ret
098FF FF                        	.db SOUND_RET_CMD
09900                           
09900                           MusicData_ConcreteJungle_Hill_4:
09900                           	instrument 0
09900 C0                        	.db INSTRUMENT_CMD | 0
09901                           	note_length M4_5, S32
09901 99                        	.db NOTE_LENGTH_CMD | M4_5 | S32
09902                           	note G_, 3
09902 38                        	.db 3 << 4 | G_
09903                           	note_length M3, S64
09903 90                        	.db NOTE_LENGTH_CMD | M3 | S64
09904                           	rest
09904 00                        	.db 0
09905                           	note_length M4_5, S32
09905 99                        	.db NOTE_LENGTH_CMD | M4_5 | S32
09906                           	note G_, 3
09906 38                        	.db 3 << 4 | G_
09907                           	note_length M3, S64
09907 90                        	.db NOTE_LENGTH_CMD | M3 | S64
09908                           	rest
09908 00                        	.db 0
09909                           	note_length M3, S16
09909 92                        	.db NOTE_LENGTH_CMD | M3 | S16
0990A                           	note G_, 3
0990A 38                        	.db 3 << 4 | G_
0990B                           	note_length M3, S64
0990B 90                        	.db NOTE_LENGTH_CMD | M3 | S64
0990C                           	tie
0990C 0F                        	.db NOTE_MASK
0990D                           	rest
0990D 00                        	.db 0
0990E                           	instrument 21
0990E D5                        	.db INSTRUMENT_CMD | 21
0990F                           	note_length M3, S32
0990F 91                        	.db NOTE_LENGTH_CMD | M3 | S32
09910                           	note G_, 3
09910 38                        	.db 3 << 4 | G_
09911                           	rest
09911 00                        	.db 0
09912                           	note G_, 3
09912 38                        	.db 3 << 4 | G_
09913                           	note_length M3, S16
09913 92                        	.db NOTE_LENGTH_CMD | M3 | S16
09914                           	note G_, 3
09914 38                        	.db 3 << 4 | G_
09915                           	note G_, 3
09915 38                        	.db 3 << 4 | G_
09916                           	note G_, 3
09916 38                        	.db 3 << 4 | G_
09917                           	sound_ret
09917 FF                        	.db SOUND_RET_CMD
09918                           
09918                           MusicData_ConcreteJungle_Hill_5:
09918                           	instrument 21
09918 D5                        	.db INSTRUMENT_CMD | 21
09919                           	note_length M1, S8
09919 83                        	.db NOTE_LENGTH_CMD | M1 | S8
0991A                           	note A#, 3
0991A 3B                        	.db 3 << 4 | A#
0991B                           	note F_, 3
0991B 36                        	.db 3 << 4 | F_
0991C                           	note G_, 3
0991C 38                        	.db 3 << 4 | G_
0991D                           	note D_, 3
0991D 33                        	.db 3 << 4 | D_
0991E                           	note C_, 3
0991E 31                        	.db 3 << 4 | C_
0991F                           	rest
0991F 00                        	.db 0
09920                           	note_length M3, S4
09920 94                        	.db NOTE_LENGTH_CMD | M3 | S4
09921                           	rest
09921 00                        	.db 0
09922                           	sound_ret
09922 FF                        	.db SOUND_RET_CMD
09923                           
09923                           MusicData_ConcreteJungle_Noise_1:
09923                           	drum_envelope DR1, M3, S8
09923 B3                        	.db NOTE_LENGTH_CMD | DR1 | M3 | S8
09924                           	drum_note 3
09924 03                        	.db 3
09925                           	drum_note 3
09925 03                        	.db 3
09926                           	drum_note 3
09926 03                        	.db 3
09927                           	drum_note 3
09927 03                        	.db 3
09928                           	drum_envelope DR1, M3, S16
09928 B2                        	.db NOTE_LENGTH_CMD | DR1 | M3 | S16
09929                           	drum_note 3
09929 03                        	.db 3
0992A                           	drum_envelope DR1, M3, S32
0992A B1                        	.db NOTE_LENGTH_CMD | DR1 | M3 | S32
0992B                           	drum_note 4
0992B 04                        	.db 4
0992C                           	drum_note 4
0992C 04                        	.db 4
0992D                           	rest
0992D 00                        	.db 0
0992E                           	drum_note 4
0992E 04                        	.db 4
0992F                           	drum_note 5
0992F 05                        	.db 5
09930                           	drum_note 5
09930 05                        	.db 5
09931                           	drum_note 5
09931 05                        	.db 5
09932                           	drum_note 5
09932 05                        	.db 5
09933                           	drum_note 5
09933 05                        	.db 5
09934                           	drum_note 6
09934 06                        	.db 6
09935                           	drum_note 6
09935 06                        	.db 6
09936                           	rest
09936 00                        	.db 0
09937                           	drum_note 6
09937 06                        	.db 6
09938                           	drum_note 6
09938 06                        	.db 6
09939                           	sound_ret
09939 FF                        	.db SOUND_RET_CMD
0993A                           
0993A                           MusicData_ConcreteJungle_Noise_2:
0993A                           	drum_envelope DR1, M3, S8
0993A B3                        	.db NOTE_LENGTH_CMD | DR1 | M3 | S8
0993B                           	drum_note 3
0993B 03                        	.db 3
0993C                           	drum_note 3
0993C 03                        	.db 3
0993D                           	drum_note 3
0993D 03                        	.db 3
0993E                           	drum_note 3
0993E 03                        	.db 3
0993F                           	drum_note 3
0993F 03                        	.db 3
09940                           	drum_note 3
09940 03                        	.db 3
09941                           	drum_note 3
09941 03                        	.db 3
09942                           	drum_envelope DR1, M3, S32
09942 B1                        	.db NOTE_LENGTH_CMD | DR1 | M3 | S32
09943                           	rest
09943 00                        	.db 0
09944                           	rest
09944 00                        	.db 0
09945                           	drum_note 3
09945 03                        	.db 3
09946                           	drum_note 3
09946 03                        	.db 3
09947                           	sound_ret
09947 FF                        	.db SOUND_RET_CMD
09948                           
09948                           MusicData_ConcreteJungle_Noise_3:
09948                           	drum_envelope DR1, M3, S8
09948 B3                        	.db NOTE_LENGTH_CMD | DR1 | M3 | S8
09949                           	drum_note 3
09949 03                        	.db 3
0994A                           	drum_note 3
0994A 03                        	.db 3
0994B                           	drum_note 3
0994B 03                        	.db 3
0994C                           	drum_note 3
0994C 03                        	.db 3
0994D                           	drum_note 3
0994D 03                        	.db 3
0994E                           	drum_note 3
0994E 03                        	.db 3
0994F                           	drum_envelope DR1, M3, S32
0994F B1                        	.db NOTE_LENGTH_CMD | DR1 | M3 | S32
09950                           	rest
09950 00                        	.db 0
09951                           	drum_note 3
09951 03                        	.db 3
09952                           	rest
09952 00                        	.db 0
09953                           	drum_note 3
09953 03                        	.db 3
09954                           	rest
09954 00                        	.db 0
09955                           	drum_note 3
09955 03                        	.db 3
09956                           	rest
09956 00                        	.db 0
09957                           	drum_note 3
09957 03                        	.db 3
09958                           	sound_ret
09958 FF                        	.db SOUND_RET_CMD
09959                           
09959                           MusicData_ConcreteJungle_FDS_1:
09959                           	instrument 6
09959 C6                        	.db INSTRUMENT_CMD | 6
0995A                           	volume_const
0995A EF                        	.db FADE_CTRL_CMD + F_IN - 1
0995B                           	note_length M3, S8
0995B 93                        	.db NOTE_LENGTH_CMD | M3 | S8
0995C                           	note F_, 2
0995C 26                        	.db 2 << 4 | F_
0995D                           	note F_, 2
0995D 26                        	.db 2 << 4 | F_
0995E                           	note F_, 2
0995E 26                        	.db 2 << 4 | F_
0995F                           	note F_, 2
0995F 26                        	.db 2 << 4 | F_
09960                           	note F_, 2
09960 26                        	.db 2 << 4 | F_
09961                           	note F_, 2
09961 26                        	.db 2 << 4 | F_
09962                           	note F_, 2
09962 26                        	.db 2 << 4 | F_
09963                           	note F_, 2
09963 26                        	.db 2 << 4 | F_
09964                           	sound_ret
09964 FF                        	.db SOUND_RET_CMD
09965                           
09965                           MusicData_ConcreteJungle_FDS_2:
09965                           	instrument 6
09965 C6                        	.db INSTRUMENT_CMD | 6
09966                           	volume_const
09966 EF                        	.db FADE_CTRL_CMD + F_IN - 1
09967                           	note_length M3, S8
09967 93                        	.db NOTE_LENGTH_CMD | M3 | S8
09968                           	note F_, 2
09968 26                        	.db 2 << 4 | F_
09969                           	note_length M3, S16
09969 92                        	.db NOTE_LENGTH_CMD | M3 | S16
0996A                           	note F_, 2
0996A 26                        	.db 2 << 4 | F_
0996B                           	note F_, 2
0996B 26                        	.db 2 << 4 | F_
0996C                           	instrument 0
0996C C0                        	.db INSTRUMENT_CMD | 0
0996D                           	note E_, 4
0996D 45                        	.db 4 << 4 | E_
0996E                           	tie
0996E 0F                        	.db NOTE_MASK
0996F                           	instrument 6
0996F C6                        	.db INSTRUMENT_CMD | 6
09970                           	note F_, 2
09970 26                        	.db 2 << 4 | F_
09971                           	note F_, 2
09971 26                        	.db 2 << 4 | F_
09972                           	tie
09972 0F                        	.db NOTE_MASK
09973                           	note F_, 2
09973 26                        	.db 2 << 4 | F_
09974                           	note F_, 2
09974 26                        	.db 2 << 4 | F_
09975                           	tie
09975 0F                        	.db NOTE_MASK
09976                           	instrument 0
09976 C0                        	.db INSTRUMENT_CMD | 0
09977                           	note E_, 4
09977 45                        	.db 4 << 4 | E_
09978                           	tie
09978 0F                        	.db NOTE_MASK
09979                           	instrument 6
09979 C6                        	.db INSTRUMENT_CMD | 6
0997A                           	note F_, 2
0997A 26                        	.db 2 << 4 | F_
0997B                           	note F_, 2
0997B 26                        	.db 2 << 4 | F_
0997C                           	sound_ret
0997C FF                        	.db SOUND_RET_CMD
0997D                           
0997D                           MusicData_ConcreteJungle_FDS_3:
0997D                           	instrument 6
0997D C6                        	.db INSTRUMENT_CMD | 6
0997E                           	volume_const
0997E EF                        	.db FADE_CTRL_CMD + F_IN - 1
0997F                           	note_length M3, S8
0997F 93                        	.db NOTE_LENGTH_CMD | M3 | S8
09980                           	note F_, 2
09980 26                        	.db 2 << 4 | F_
09981                           	note_length M3, S16
09981 92                        	.db NOTE_LENGTH_CMD | M3 | S16
09982                           	note F_, 2
09982 26                        	.db 2 << 4 | F_
09983                           	note F_, 2
09983 26                        	.db 2 << 4 | F_
09984                           	instrument 0
09984 C0                        	.db INSTRUMENT_CMD | 0
09985                           	note E_, 4
09985 45                        	.db 4 << 4 | E_
09986                           	tie
09986 0F                        	.db NOTE_MASK
09987                           	instrument 6
09987 C6                        	.db INSTRUMENT_CMD | 6
09988                           	note F_, 2
09988 26                        	.db 2 << 4 | F_
09989                           	note F_, 2
09989 26                        	.db 2 << 4 | F_
0998A                           	tie
0998A 0F                        	.db NOTE_MASK
0998B                           	note F_, 2
0998B 26                        	.db 2 << 4 | F_
0998C                           	note F_, 2
0998C 26                        	.db 2 << 4 | F_
0998D                           	tie
0998D 0F                        	.db NOTE_MASK
0998E                           	instrument 0
0998E C0                        	.db INSTRUMENT_CMD | 0
0998F                           	note E_, 4
0998F 45                        	.db 4 << 4 | E_
09990                           	note E_, 4
09990 45                        	.db 4 << 4 | E_
09991                           	note E_, 4
09991 45                        	.db 4 << 4 | E_
09992                           	note E_, 4
09992 45                        	.db 4 << 4 | E_
09993                           	sound_ret
09993 FF                        	.db SOUND_RET_CMD
09994                           
09994                           MusicData_ConcreteJungle_FDS_4:
09994                           	instrument 6
09994 C6                        	.db INSTRUMENT_CMD | 6
09995                           	volume_const
09995 EF                        	.db FADE_CTRL_CMD + F_IN - 1
09996                           	note_length M3, S8
09996 93                        	.db NOTE_LENGTH_CMD | M3 | S8
09997                           	note F_, 2
09997 26                        	.db 2 << 4 | F_
09998                           	note_length M3, S16
09998 92                        	.db NOTE_LENGTH_CMD | M3 | S16
09999                           	note F_, 2
09999 26                        	.db 2 << 4 | F_
0999A                           	note F_, 2
0999A 26                        	.db 2 << 4 | F_
0999B                           	instrument 0
0999B C0                        	.db INSTRUMENT_CMD | 0
0999C                           	note_length M4_5, S8
0999C 9B                        	.db NOTE_LENGTH_CMD | M4_5 | S8
0999D                           	note E_, 4
0999D 45                        	.db 4 << 4 | E_
0999E                           	instrument 6
0999E C6                        	.db INSTRUMENT_CMD | 6
0999F                           	note_length M3, S8
0999F 93                        	.db NOTE_LENGTH_CMD | M3 | S8
099A0                           	note F_, 2
099A0 26                        	.db 2 << 4 | F_
099A1                           	instrument 0
099A1 C0                        	.db INSTRUMENT_CMD | 0
099A2                           	note E_, 4
099A2 45                        	.db 4 << 4 | E_
099A3                           	note E_, 4
099A3 45                        	.db 4 << 4 | E_
099A4                           	note E_, 4
099A4 45                        	.db 4 << 4 | E_
099A5                           	note_length M3, S16
099A5 92                        	.db NOTE_LENGTH_CMD | M3 | S16
099A6                           	note E_, 4
099A6 45                        	.db 4 << 4 | E_
099A7                           	sound_ret
099A7 FF                        	.db SOUND_RET_CMD
099A8                           
099A8                           MusicData_ConcreteJungle_FDS_5:
099A8                           	instrument 6
099A8 C6                        	.db INSTRUMENT_CMD | 6
099A9                           	volume_const
099A9 EF                        	.db FADE_CTRL_CMD + F_IN - 1
099AA                           	note_length M1, S8
099AA 83                        	.db NOTE_LENGTH_CMD | M1 | S8
099AB                           	note F_, 2
099AB 26                        	.db 2 << 4 | F_
099AC                           	note F_, 2
099AC 26                        	.db 2 << 4 | F_
099AD                           	note F_, 2
099AD 26                        	.db 2 << 4 | F_
099AE                           	note F_, 2
099AE 26                        	.db 2 << 4 | F_
099AF                           	note F_, 2
099AF 26                        	.db 2 << 4 | F_
099B0                           	tie
099B0 0F                        	.db NOTE_MASK
099B1                           	note_length M3, S4
099B1 94                        	.db NOTE_LENGTH_CMD | M3 | S4
099B2                           	tie
099B2 0F                        	.db NOTE_MASK
099B3                           	sound_ret
099B3 FF                        	.db SOUND_RET_CMD
099B4                           .include "src/music/music-data/congrats.asm"
099B4                           MusicData_Congrats_Pulse1:
099B4                           	instrument 6
099B4 C6                        	.db INSTRUMENT_CMD | 6
099B5                           	volume_const
099B5 EF                        	.db FADE_CTRL_CMD + F_IN - 1
099B6                           	note_length M3, S2
099B6 95                        	.db NOTE_LENGTH_CMD | M3 | S2
099B7                           	pitch_slide 2, B_, 3
099B7 A2 3C                     	.db PITCH_BEND_CMD | 2, 3 << 4 | B_
099B9                           	note A_, 3
099B9 3A                        	.db 3 << 4 | A_
099BA                           	note_length M4_5, S8
099BA 9B                        	.db NOTE_LENGTH_CMD | M4_5 | S8
099BB                           	tie
099BB 0F                        	.db NOTE_MASK
099BC                           	note_length M3, S32
099BC 91                        	.db NOTE_LENGTH_CMD | M3 | S32
099BD                           	rest
099BD 00                        	.db 0
099BE                           	note_length M3, S8
099BE 93                        	.db NOTE_LENGTH_CMD | M3 | S8
099BF                           	note A_, 3
099BF 3A                        	.db 3 << 4 | A_
099C0                           	note_length M4_5, S16
099C0 9A                        	.db NOTE_LENGTH_CMD | M4_5 | S16
099C1                           	tie
099C1 0F                        	.db NOTE_MASK
099C2                           	note_length M3, S32
099C2 91                        	.db NOTE_LENGTH_CMD | M3 | S32
099C3                           	rest
099C3 00                        	.db 0
099C4                           	note G#, 3
099C4 39                        	.db 3 << 4 | G#
099C5                           
099C5                           	note_length M3, S8
099C5 93                        	.db NOTE_LENGTH_CMD | M3 | S8
099C6                           	tie
099C6 0F                        	.db NOTE_MASK
099C7                           	note_length M4_5, S16
099C7 9A                        	.db NOTE_LENGTH_CMD | M4_5 | S16
099C8                           	tie
099C8 0F                        	.db NOTE_MASK
099C9                           	note_length M3, S64
099C9 90                        	.db NOTE_LENGTH_CMD | M3 | S64
099CA                           	rest
099CA 00                        	.db 0
099CB                           	note_length M3, S2
099CB 95                        	.db NOTE_LENGTH_CMD | M3 | S2
099CC                           	note C#, 3
099CC 32                        	.db 3 << 4 | C#
099CD                           	note_length M3, S8
099CD 93                        	.db NOTE_LENGTH_CMD | M3 | S8
099CE                           	tie
099CE 0F                        	.db NOTE_MASK
099CF                           	rest
099CF 00                        	.db 0
099D0                           
099D0                           	note_length M3, S16
099D0 92                        	.db NOTE_LENGTH_CMD | M3 | S16
099D1                           	rest
099D1 00                        	.db 0
099D2                           	note_length M4_5, S16
099D2 9A                        	.db NOTE_LENGTH_CMD | M4_5 | S16
099D3                           	note B_, 2
099D3 2C                        	.db 2 << 4 | B_
099D4                           	note_length M3, S32
099D4 91                        	.db NOTE_LENGTH_CMD | M3 | S32
099D5                           	rest
099D5 00                        	.db 0
099D6                           	note_length M4_5, S16
099D6 9A                        	.db NOTE_LENGTH_CMD | M4_5 | S16
099D7                           	note B_, 2
099D7 2C                        	.db 2 << 4 | B_
099D8                           	note_length M3, S32
099D8 91                        	.db NOTE_LENGTH_CMD | M3 | S32
099D9                           	rest
099D9 00                        	.db 0
099DA                           	note_length M4_5, S16
099DA 9A                        	.db NOTE_LENGTH_CMD | M4_5 | S16
099DB                           	note C_, 3
099DB 31                        	.db 3 << 4 | C_
099DC                           	note_length M3, S32
099DC 91                        	.db NOTE_LENGTH_CMD | M3 | S32
099DD                           	rest
099DD 00                        	.db 0
099DE                           	note_length M4_5, S16
099DE 9A                        	.db NOTE_LENGTH_CMD | M4_5 | S16
099DF                           	note C_, 3
099DF 31                        	.db 3 << 4 | C_
099E0                           	note_length M3, S32
099E0 91                        	.db NOTE_LENGTH_CMD | M3 | S32
099E1                           	rest
099E1 00                        	.db 0
099E2                           	note_length M4_5, S16
099E2 9A                        	.db NOTE_LENGTH_CMD | M4_5 | S16
099E3                           	note C#, 3
099E3 32                        	.db 3 << 4 | C#
099E4                           	note_length M3, S32
099E4 91                        	.db NOTE_LENGTH_CMD | M3 | S32
099E5                           	rest
099E5 00                        	.db 0
099E6                           	note_length M4_5, S16
099E6 9A                        	.db NOTE_LENGTH_CMD | M4_5 | S16
099E7                           	note D_, 3
099E7 33                        	.db 3 << 4 | D_
099E8                           	note_length M3, S32
099E8 91                        	.db NOTE_LENGTH_CMD | M3 | S32
099E9                           	rest
099E9 00                        	.db 0
099EA                           	note_length M4_5, S16
099EA 9A                        	.db NOTE_LENGTH_CMD | M4_5 | S16
099EB                           	note D#, 3
099EB 34                        	.db 3 << 4 | D#
099EC                           	note_length M3, S32
099EC 91                        	.db NOTE_LENGTH_CMD | M3 | S32
099ED                           	rest
099ED 00                        	.db 0
099EE                           	note_length M4_5, S32
099EE 99                        	.db NOTE_LENGTH_CMD | M4_5 | S32
099EF                           	note E_, 3
099EF 35                        	.db 3 << 4 | E_
099F0                           	note_length M3, S64
099F0 90                        	.db NOTE_LENGTH_CMD | M3 | S64
099F1                           	rest
099F1 00                        	.db 0
099F2                           
099F2                           	note_length M3, S16
099F2 92                        	.db NOTE_LENGTH_CMD | M3 | S16
099F3                           	note B_, 3
099F3 3C                        	.db 3 << 4 | B_
099F4                           	note_length M3, S64
099F4 90                        	.db NOTE_LENGTH_CMD | M3 | S64
099F5                           	tie
099F5 0F                        	.db NOTE_MASK
099F6                           	note_length M4_5, S32
099F6 99                        	.db NOTE_LENGTH_CMD | M4_5 | S32
099F7                           	pitch_slide 12, E_, 3
099F7 AC 35                     	.db PITCH_BEND_CMD | 12, 3 << 4 | E_
099F9                           	tie
099F9 0F                        	.db NOTE_MASK
099FA                           	instrument 17
099FA D1                        	.db INSTRUMENT_CMD | 17
099FB                           	note_length M3, S32
099FB 91                        	.db NOTE_LENGTH_CMD | M3 | S32
099FC                           	note A#, 3
099FC 3B                        	.db 3 << 4 | A#
099FD                           	instrument 16
099FD D0                        	.db INSTRUMENT_CMD | 16
099FE                           	note B_, 3
099FE 3C                        	.db 3 << 4 | B_
099FF                           	instrument 15
099FF CF                        	.db INSTRUMENT_CMD | 15
09A00                           	note A#, 3
09A00 3B                        	.db 3 << 4 | A#
09A01                           	instrument 14
09A01 CE                        	.db INSTRUMENT_CMD | 14
09A02                           	note B_, 3
09A02 3C                        	.db 3 << 4 | B_
09A03                           	instrument 13
09A03 CD                        	.db INSTRUMENT_CMD | 13
09A04                           	note A#, 3
09A04 3B                        	.db 3 << 4 | A#
09A05                           	instrument 12
09A05 CC                        	.db INSTRUMENT_CMD | 12
09A06                           	note B_, 3
09A06 3C                        	.db 3 << 4 | B_
09A07                           	instrument 11
09A07 CB                        	.db INSTRUMENT_CMD | 11
09A08                           	note A#, 3
09A08 3B                        	.db 3 << 4 | A#
09A09                           	instrument 10
09A09 CA                        	.db INSTRUMENT_CMD | 10
09A0A                           	note B_, 3
09A0A 3C                        	.db 3 << 4 | B_
09A0B                           	instrument 9
09A0B C9                        	.db INSTRUMENT_CMD | 9
09A0C                           	note A#, 3
09A0C 3B                        	.db 3 << 4 | A#
09A0D                           	instrument 8
09A0D C8                        	.db INSTRUMENT_CMD | 8
09A0E                           	note B_, 3
09A0E 3C                        	.db 3 << 4 | B_
09A0F                           	instrument 7
09A0F C7                        	.db INSTRUMENT_CMD | 7
09A10                           	note A#, 3
09A10 3B                        	.db 3 << 4 | A#
09A11                           	instrument 6
09A11 C6                        	.db INSTRUMENT_CMD | 6
09A12                           	note B_, 3
09A12 3C                        	.db 3 << 4 | B_
09A13                           	note_length M4_5, S16
09A13 9A                        	.db NOTE_LENGTH_CMD | M4_5 | S16
09A14                           	note A_, 3
09A14 3A                        	.db 3 << 4 | A_
09A15                           	note_length M3, S64
09A15 90                        	.db NOTE_LENGTH_CMD | M3 | S64
09A16                           	rest
09A16 00                        	.db 0
09A17                           	note_length M4_5, S16
09A17 9A                        	.db NOTE_LENGTH_CMD | M4_5 | S16
09A18                           	note A#, 3
09A18 3B                        	.db 3 << 4 | A#
09A19                           	note_length M3, S64
09A19 90                        	.db NOTE_LENGTH_CMD | M3 | S64
09A1A                           	rest
09A1A 00                        	.db 0
09A1B                           	note_length M4_5, S16
09A1B 9A                        	.db NOTE_LENGTH_CMD | M4_5 | S16
09A1C                           	note B_, 3
09A1C 3C                        	.db 3 << 4 | B_
09A1D                           	note_length M3, S64
09A1D 90                        	.db NOTE_LENGTH_CMD | M3 | S64
09A1E                           	rest
09A1E 00                        	.db 0
09A1F                           	note_length M4_5, S16
09A1F 9A                        	.db NOTE_LENGTH_CMD | M4_5 | S16
09A20                           	note C_, 4
09A20 41                        	.db 4 << 4 | C_
09A21                           	note_length M3, S64
09A21 90                        	.db NOTE_LENGTH_CMD | M3 | S64
09A22                           	rest
09A22 00                        	.db 0
09A23                           
09A23                           	note_length M3, S4
09A23 94                        	.db NOTE_LENGTH_CMD | M3 | S4
09A24                           	note C#, 4
09A24 42                        	.db 4 << 4 | C#
09A25                           	volume_fade 0, 10
09A25 EA                        	.db FADE_CTRL_CMD | 0 | 10
09A26                           	note_length M4_5, S2
09A26 9D                        	.db NOTE_LENGTH_CMD | M4_5 | S2
09A27                           	tie
09A27 0F                        	.db NOTE_MASK
09A28                           	sound_ret
09A28 FF                        	.db SOUND_RET_CMD
09A29                           
09A29                           MusicData_Congrats_Pulse2:
09A29                           	instrument 0
09A29 C0                        	.db INSTRUMENT_CMD | 0
09A2A                           	volume_const
09A2A EF                        	.db FADE_CTRL_CMD + F_IN - 1
09A2B                           	note_length M3, S2
09A2B 95                        	.db NOTE_LENGTH_CMD | M3 | S2
09A2C                           	pitch_slide 2, D_, 4
09A2C A2 43                     	.db PITCH_BEND_CMD | 2, 4 << 4 | D_
09A2E                           	note C_, 4
09A2E 41                        	.db 4 << 4 | C_
09A2F                           	note_length M4_5, S8
09A2F 9B                        	.db NOTE_LENGTH_CMD | M4_5 | S8
09A30                           	tie
09A30 0F                        	.db NOTE_MASK
09A31                           	note_length M3, S32
09A31 91                        	.db NOTE_LENGTH_CMD | M3 | S32
09A32                           	rest
09A32 00                        	.db 0
09A33                           	note_length M3, S8
09A33 93                        	.db NOTE_LENGTH_CMD | M3 | S8
09A34                           	note C#, 4
09A34 42                        	.db 4 << 4 | C#
09A35                           	note_length M4_5, S16
09A35 9A                        	.db NOTE_LENGTH_CMD | M4_5 | S16
09A36                           	tie
09A36 0F                        	.db NOTE_MASK
09A37                           	note_length M3, S32
09A37 91                        	.db NOTE_LENGTH_CMD | M3 | S32
09A38                           	rest
09A38 00                        	.db 0
09A39                           	note B_, 3
09A39 3C                        	.db 3 << 4 | B_
09A3A                           
09A3A                           	note_length M3, S8
09A3A 93                        	.db NOTE_LENGTH_CMD | M3 | S8
09A3B                           	tie
09A3B 0F                        	.db NOTE_MASK
09A3C                           	note_length M4_5, S16
09A3C 9A                        	.db NOTE_LENGTH_CMD | M4_5 | S16
09A3D                           	tie
09A3D 0F                        	.db NOTE_MASK
09A3E                           	note_length M3, S64
09A3E 90                        	.db NOTE_LENGTH_CMD | M3 | S64
09A3F                           	rest
09A3F 00                        	.db 0
09A40                           	note_length M3, S2
09A40 95                        	.db NOTE_LENGTH_CMD | M3 | S2
09A41                           	pitch_slide 2, G#, 3
09A41 A2 39                     	.db PITCH_BEND_CMD | 2, 3 << 4 | G#
09A43                           	note F#, 3
09A43 37                        	.db 3 << 4 | F#
09A44                           	note_length M3, S8
09A44 93                        	.db NOTE_LENGTH_CMD | M3 | S8
09A45                           	tie
09A45 0F                        	.db NOTE_MASK
09A46                           	rest
09A46 00                        	.db 0
09A47                           
09A47                           	note_length M3, S16
09A47 92                        	.db NOTE_LENGTH_CMD | M3 | S16
09A48                           	rest
09A48 00                        	.db 0
09A49                           	note_length M4_5, S16
09A49 9A                        	.db NOTE_LENGTH_CMD | M4_5 | S16
09A4A                           	note E_, 3
09A4A 35                        	.db 3 << 4 | E_
09A4B                           	note_length M3, S32
09A4B 91                        	.db NOTE_LENGTH_CMD | M3 | S32
09A4C                           	rest
09A4C 00                        	.db 0
09A4D                           	note_length M4_5, S16
09A4D 9A                        	.db NOTE_LENGTH_CMD | M4_5 | S16
09A4E                           	note F#, 3
09A4E 37                        	.db 3 << 4 | F#
09A4F                           	note_length M3, S32
09A4F 91                        	.db NOTE_LENGTH_CMD | M3 | S32
09A50                           	rest
09A50 00                        	.db 0
09A51                           	note_length M4_5, S16
09A51 9A                        	.db NOTE_LENGTH_CMD | M4_5 | S16
09A52                           	note G_, 3
09A52 38                        	.db 3 << 4 | G_
09A53                           	note_length M3, S32
09A53 91                        	.db NOTE_LENGTH_CMD | M3 | S32
09A54                           	rest
09A54 00                        	.db 0
09A55                           	note_length M4_5, S16
09A55 9A                        	.db NOTE_LENGTH_CMD | M4_5 | S16
09A56                           	note A_, 3
09A56 3A                        	.db 3 << 4 | A_
09A57                           	note_length M3, S32
09A57 91                        	.db NOTE_LENGTH_CMD | M3 | S32
09A58                           	rest
09A58 00                        	.db 0
09A59                           	note_length M4_5, S16
09A59 9A                        	.db NOTE_LENGTH_CMD | M4_5 | S16
09A5A                           	note A#, 3
09A5A 3B                        	.db 3 << 4 | A#
09A5B                           	note_length M3, S32
09A5B 91                        	.db NOTE_LENGTH_CMD | M3 | S32
09A5C                           	rest
09A5C 00                        	.db 0
09A5D                           	note_length M4_5, S16
09A5D 9A                        	.db NOTE_LENGTH_CMD | M4_5 | S16
09A5E                           	note B_, 3
09A5E 3C                        	.db 3 << 4 | B_
09A5F                           	note_length M3, S32
09A5F 91                        	.db NOTE_LENGTH_CMD | M3 | S32
09A60                           	rest
09A60 00                        	.db 0
09A61                           	note_length M4_5, S16
09A61 9A                        	.db NOTE_LENGTH_CMD | M4_5 | S16
09A62                           	note C#, 4
09A62 42                        	.db 4 << 4 | C#
09A63                           	note_length M3, S32
09A63 91                        	.db NOTE_LENGTH_CMD | M3 | S32
09A64                           	rest
09A64 00                        	.db 0
09A65                           	note_length M4_5, S32
09A65 99                        	.db NOTE_LENGTH_CMD | M4_5 | S32
09A66                           	note B_, 3
09A66 3C                        	.db 3 << 4 | B_
09A67                           	note_length M3, S64
09A67 90                        	.db NOTE_LENGTH_CMD | M3 | S64
09A68                           	rest
09A68 00                        	.db 0
09A69                           
09A69                           	note_length M3, S16
09A69 92                        	.db NOTE_LENGTH_CMD | M3 | S16
09A6A                           	note E_, 4
09A6A 45                        	.db 4 << 4 | E_
09A6B                           	note_length M3, S64
09A6B 90                        	.db NOTE_LENGTH_CMD | M3 | S64
09A6C                           	tie
09A6C 0F                        	.db NOTE_MASK
09A6D                           	note_length M4_5, S32
09A6D 99                        	.db NOTE_LENGTH_CMD | M4_5 | S32
09A6E                           	pitch_slide 4, B_, 3
09A6E A4 3C                     	.db PITCH_BEND_CMD | 4, 3 << 4 | B_
09A70                           	tie
09A70 0F                        	.db NOTE_MASK
09A71                           	note_length M4_5, S4
09A71 9C                        	.db NOTE_LENGTH_CMD | M4_5 | S4
09A72                           	rest
09A72 00                        	.db 0
09A73                           	note_length M4_5, S16
09A73 9A                        	.db NOTE_LENGTH_CMD | M4_5 | S16
09A74                           	note B_, 3
09A74 3C                        	.db 3 << 4 | B_
09A75                           	note_length M3, S64
09A75 90                        	.db NOTE_LENGTH_CMD | M3 | S64
09A76                           	rest
09A76 00                        	.db 0
09A77                           	note_length M4_5, S16
09A77 9A                        	.db NOTE_LENGTH_CMD | M4_5 | S16
09A78                           	note C_, 4
09A78 41                        	.db 4 << 4 | C_
09A79                           	note_length M3, S64
09A79 90                        	.db NOTE_LENGTH_CMD | M3 | S64
09A7A                           	rest
09A7A 00                        	.db 0
09A7B                           	note_length M4_5, S16
09A7B 9A                        	.db NOTE_LENGTH_CMD | M4_5 | S16
09A7C                           	note C#, 4
09A7C 42                        	.db 4 << 4 | C#
09A7D                           	note_length M3, S32
09A7D 91                        	.db NOTE_LENGTH_CMD | M3 | S32
09A7E                           	rest
09A7E 00                        	.db 0
09A7F                           	note_length M4_5, S16
09A7F 9A                        	.db NOTE_LENGTH_CMD | M4_5 | S16
09A80                           	note D_, 4
09A80 43                        	.db 4 << 4 | D_
09A81                           	note_length M3, S32
09A81 91                        	.db NOTE_LENGTH_CMD | M3 | S32
09A82                           	rest
09A82 00                        	.db 0
09A83                           
09A83                           	note_length M3, S4
09A83 94                        	.db NOTE_LENGTH_CMD | M3 | S4
09A84                           	note D#, 4
09A84 44                        	.db 4 << 4 | D#
09A85                           	volume_fade 0, 14
09A85 EE                        	.db FADE_CTRL_CMD | 0 | 14
09A86                           	note_length M4_5, S2
09A86 9D                        	.db NOTE_LENGTH_CMD | M4_5 | S2
09A87                           	tie
09A87 0F                        	.db NOTE_MASK
09A88                           	sound_ret
09A88 FF                        	.db SOUND_RET_CMD
09A89                           
09A89                           MusicData_Congrats_Hill_1:
09A89                           	instrument 21
09A89 D5                        	.db INSTRUMENT_CMD | 21
09A8A                           	note_length M3, S32
09A8A 91                        	.db NOTE_LENGTH_CMD | M3 | S32
09A8B                           	note D_, 3
09A8B 33                        	.db 3 << 4 | D_
09A8C                           	note E_, 3
09A8C 35                        	.db 3 << 4 | E_
09A8D                           	note E_, 2
09A8D 25                        	.db 2 << 4 | E_
09A8E                           	note_length M3, S16
09A8E 92                        	.db NOTE_LENGTH_CMD | M3 | S16
09A8F                           	note E_, 2
09A8F 25                        	.db 2 << 4 | E_
09A90                           	note_length M3, S32
09A90 91                        	.db NOTE_LENGTH_CMD | M3 | S32
09A91                           	note E_, 2
09A91 25                        	.db 2 << 4 | E_
09A92                           	note B_, 2
09A92 2C                        	.db 2 << 4 | B_
09A93                           	note D_, 3
09A93 33                        	.db 3 << 4 | D_
09A94                           	note D_, 3
09A94 33                        	.db 3 << 4 | D_
09A95                           	note E_, 3
09A95 35                        	.db 3 << 4 | E_
09A96                           	note E_, 2
09A96 25                        	.db 2 << 4 | E_
09A97                           	note_length M3, S16
09A97 92                        	.db NOTE_LENGTH_CMD | M3 | S16
09A98                           	note E_, 2
09A98 25                        	.db 2 << 4 | E_
09A99                           	note_length M3, S32
09A99 91                        	.db NOTE_LENGTH_CMD | M3 | S32
09A9A                           	note E_, 2
09A9A 25                        	.db 2 << 4 | E_
09A9B                           	note B_, 2
09A9B 2C                        	.db 2 << 4 | B_
09A9C                           	note D_, 3
09A9C 33                        	.db 3 << 4 | D_
09A9D                           	note D_, 3
09A9D 33                        	.db 3 << 4 | D_
09A9E                           	note E_, 3
09A9E 35                        	.db 3 << 4 | E_
09A9F                           	note E_, 2
09A9F 25                        	.db 2 << 4 | E_
09AA0                           	note_length M3, S16
09AA0 92                        	.db NOTE_LENGTH_CMD | M3 | S16
09AA1                           	note E_, 2
09AA1 25                        	.db 2 << 4 | E_
09AA2                           	note_length M3, S32
09AA2 91                        	.db NOTE_LENGTH_CMD | M3 | S32
09AA3                           	note E_, 2
09AA3 25                        	.db 2 << 4 | E_
09AA4                           	note B_, 2
09AA4 2C                        	.db 2 << 4 | B_
09AA5                           	note D_, 3
09AA5 33                        	.db 3 << 4 | D_
09AA6                           	note_length M3, S16
09AA6 92                        	.db NOTE_LENGTH_CMD | M3 | S16
09AA7                           	note E_, 2
09AA7 25                        	.db 2 << 4 | E_
09AA8                           	note E_, 2
09AA8 25                        	.db 2 << 4 | E_
09AA9                           	note_length M3, S32
09AA9 91                        	.db NOTE_LENGTH_CMD | M3 | S32
09AAA                           	note E_, 2
09AAA 25                        	.db 2 << 4 | E_
09AAB                           	note_length M3, S16
09AAB 92                        	.db NOTE_LENGTH_CMD | M3 | S16
09AAC                           	note E_, 2
09AAC 25                        	.db 2 << 4 | E_
09AAD                           	note_length M3, S32
09AAD 91                        	.db NOTE_LENGTH_CMD | M3 | S32
09AAE                           	note E_, 2
09AAE 25                        	.db 2 << 4 | E_
09AAF                           	sound_ret
09AAF FF                        	.db SOUND_RET_CMD
09AB0                           
09AB0                           MusicData_Congrats_Hill_2:
09AB0                           	instrument 21
09AB0 D5                        	.db INSTRUMENT_CMD | 21
09AB1                           	note_length M3, S16
09AB1 92                        	.db NOTE_LENGTH_CMD | M3 | S16
09AB2                           	note E_, 2
09AB2 25                        	.db 2 << 4 | E_
09AB3                           	note_length M3, S32
09AB3 91                        	.db NOTE_LENGTH_CMD | M3 | S32
09AB4                           	note D_, 3
09AB4 33                        	.db 3 << 4 | D_
09AB5                           	note E_, 3
09AB5 35                        	.db 3 << 4 | E_
09AB6                           	note_length M3, S16
09AB6 92                        	.db NOTE_LENGTH_CMD | M3 | S16
09AB7                           	note E_, 2
09AB7 25                        	.db 2 << 4 | E_
09AB8                           	note_length M3, S32
09AB8 91                        	.db NOTE_LENGTH_CMD | M3 | S32
09AB9                           	note D_, 3
09AB9 33                        	.db 3 << 4 | D_
09ABA                           	note E_, 3
09ABA 35                        	.db 3 << 4 | E_
09ABB                           	note_length M3, S16
09ABB 92                        	.db NOTE_LENGTH_CMD | M3 | S16
09ABC                           	note E_, 2
09ABC 25                        	.db 2 << 4 | E_
09ABD                           	note_length M3, S32
09ABD 91                        	.db NOTE_LENGTH_CMD | M3 | S32
09ABE                           	note D_, 3
09ABE 33                        	.db 3 << 4 | D_
09ABF                           	note E_, 3
09ABF 35                        	.db 3 << 4 | E_
09AC0                           	note_length M3, S16
09AC0 92                        	.db NOTE_LENGTH_CMD | M3 | S16
09AC1                           	note E_, 2
09AC1 25                        	.db 2 << 4 | E_
09AC2                           	note_length M3, S32
09AC2 91                        	.db NOTE_LENGTH_CMD | M3 | S32
09AC3                           	note D_, 3
09AC3 33                        	.db 3 << 4 | D_
09AC4                           	note E_, 3
09AC4 35                        	.db 3 << 4 | E_
09AC5                           	note_length M3, S16
09AC5 92                        	.db NOTE_LENGTH_CMD | M3 | S16
09AC6                           	note E_, 2
09AC6 25                        	.db 2 << 4 | E_
09AC7                           	note_length M3, S32
09AC7 91                        	.db NOTE_LENGTH_CMD | M3 | S32
09AC8                           	note D_, 3
09AC8 33                        	.db 3 << 4 | D_
09AC9                           	note E_, 3
09AC9 35                        	.db 3 << 4 | E_
09ACA                           	note_length M3, S16
09ACA 92                        	.db NOTE_LENGTH_CMD | M3 | S16
09ACB                           	note E_, 2
09ACB 25                        	.db 2 << 4 | E_
09ACC                           	note_length M3, S32
09ACC 91                        	.db NOTE_LENGTH_CMD | M3 | S32
09ACD                           	note D_, 3
09ACD 33                        	.db 3 << 4 | D_
09ACE                           	note E_, 3
09ACE 35                        	.db 3 << 4 | E_
09ACF                           	note_length M3, S16
09ACF 92                        	.db NOTE_LENGTH_CMD | M3 | S16
09AD0                           	note E_, 2
09AD0 25                        	.db 2 << 4 | E_
09AD1                           	note_length M3, S32
09AD1 91                        	.db NOTE_LENGTH_CMD | M3 | S32
09AD2                           	note D_, 3
09AD2 33                        	.db 3 << 4 | D_
09AD3                           	note E_, 3
09AD3 35                        	.db 3 << 4 | E_
09AD4                           	note_length M3, S16
09AD4 92                        	.db NOTE_LENGTH_CMD | M3 | S16
09AD5                           	note D_, 2
09AD5 23                        	.db 2 << 4 | D_
09AD6                           	note_length M3, S32
09AD6 91                        	.db NOTE_LENGTH_CMD | M3 | S32
09AD7                           	note C#, 3
09AD7 32                        	.db 3 << 4 | C#
09AD8                           	note D_, 3
09AD8 33                        	.db 3 << 4 | D_
09AD9                           
09AD9                           	note_length M3, S8
09AD9 93                        	.db NOTE_LENGTH_CMD | M3 | S8
09ADA                           	note E_, 3
09ADA 35                        	.db 3 << 4 | E_
09ADB                           	note D_, 3
09ADB 33                        	.db 3 << 4 | D_
09ADC                           	note B_, 2
09ADC 2C                        	.db 2 << 4 | B_
09ADD                           	note A#, 2
09ADD 2B                        	.db 2 << 4 | A#
09ADE                           	note_length M1, S8
09ADE 83                        	.db NOTE_LENGTH_CMD | M1 | S8
09ADF                           	note A_, 3
09ADF 3A                        	.db 3 << 4 | A_
09AE0                           	note A_, 3
09AE0 3A                        	.db 3 << 4 | A_
09AE1                           	note A_, 3
09AE1 3A                        	.db 3 << 4 | A_
09AE2                           	note G#, 3
09AE2 39                        	.db 3 << 4 | G#
09AE3                           	note G#, 3
09AE3 39                        	.db 3 << 4 | G#
09AE4                           	note G#, 3
09AE4 39                        	.db 3 << 4 | G#
09AE5                           	note G_, 3
09AE5 38                        	.db 3 << 4 | G_
09AE6                           	note G_, 3
09AE6 38                        	.db 3 << 4 | G_
09AE7                           	note G_, 3
09AE7 38                        	.db 3 << 4 | G_
09AE8                           	note F#, 3
09AE8 37                        	.db 3 << 4 | F#
09AE9                           	note F#, 3
09AE9 37                        	.db 3 << 4 | F#
09AEA                           	note F#, 3
09AEA 37                        	.db 3 << 4 | F#
09AEB                           
09AEB                           	instrument 0
09AEB C0                        	.db INSTRUMENT_CMD | 0
09AEC                           	note_length M3, S2
09AEC 95                        	.db NOTE_LENGTH_CMD | M3 | S2
09AED                           	note F_, 3
09AED 36                        	.db 3 << 4 | F_
09AEE                           	note_length M4_5, S4
09AEE 9C                        	.db NOTE_LENGTH_CMD | M4_5 | S4
09AEF                           	tie
09AEF 0F                        	.db NOTE_MASK
09AF0                           	note_length M3, S32
09AF0 91                        	.db NOTE_LENGTH_CMD | M3 | S32
09AF1                           	tie
09AF1 0F                        	.db NOTE_MASK
09AF2                           	note_length M4_5, S16
09AF2 9A                        	.db NOTE_LENGTH_CMD | M4_5 | S16
09AF3                           	rest
09AF3 00                        	.db 0
09AF4                           	sound_ret
09AF4 FF                        	.db SOUND_RET_CMD
09AF5                           
09AF5                           MusicData_Congrats_Noise_1:
09AF5                           	drum_envelope DR3, M3, S16
09AF5 F2                        	.db NOTE_LENGTH_CMD | DR3 | M3 | S16
09AF6                           	drum_note 14
09AF6 0E                        	.db 14
09AF7                           	drum_envelope DR3, M3, S32
09AF7 F1                        	.db NOTE_LENGTH_CMD | DR3 | M3 | S32
09AF8                           	drum_note 14
09AF8 0E                        	.db 14
09AF9                           	drum_note 14
09AF9 0E                        	.db 14
09AFA                           	rest
09AFA 00                        	.db 0
09AFB                           	drum_note 14
09AFB 0E                        	.db 14
09AFC                           	drum_note 14
09AFC 0E                        	.db 14
09AFD                           	drum_note 14
09AFD 0E                        	.db 14
09AFE                           	drum_envelope DR3, M3, S16
09AFE F2                        	.db NOTE_LENGTH_CMD | DR3 | M3 | S16
09AFF                           	drum_note 14
09AFF 0E                        	.db 14
09B00                           	drum_envelope DR3, M3, S32
09B00 F1                        	.db NOTE_LENGTH_CMD | DR3 | M3 | S32
09B01                           	drum_note 14
09B01 0E                        	.db 14
09B02                           	drum_note 14
09B02 0E                        	.db 14
09B03                           	drum_envelope DR3, M3, S16
09B03 F2                        	.db NOTE_LENGTH_CMD | DR3 | M3 | S16
09B04                           	drum_note 14
09B04 0E                        	.db 14
09B05                           	drum_envelope DR3, M3, S32
09B05 F1                        	.db NOTE_LENGTH_CMD | DR3 | M3 | S32
09B06                           	drum_note 14
09B06 0E                        	.db 14
09B07                           	drum_note 14
09B07 0E                        	.db 14
09B08                           	sound_ret
09B08 FF                        	.db SOUND_RET_CMD
09B09                           
09B09                           MusicData_Congrats_Noise_2:
09B09                           	drum_envelope DR3, M3, S16
09B09 F2                        	.db NOTE_LENGTH_CMD | DR3 | M3 | S16
09B0A                           	drum_note 14
09B0A 0E                        	.db 14
09B0B                           	drum_envelope DR3, M3, S32
09B0B F1                        	.db NOTE_LENGTH_CMD | DR3 | M3 | S32
09B0C                           	drum_note 14
09B0C 0E                        	.db 14
09B0D                           	drum_note 14
09B0D 0E                        	.db 14
09B0E                           	drum_envelope DR3, M3, S16
09B0E F2                        	.db NOTE_LENGTH_CMD | DR3 | M3 | S16
09B0F                           	drum_note 14
09B0F 0E                        	.db 14
09B10                           	drum_envelope DR3, M3, S32
09B10 F1                        	.db NOTE_LENGTH_CMD | DR3 | M3 | S32
09B11                           	drum_note 14
09B11 0E                        	.db 14
09B12                           	drum_note 14
09B12 0E                        	.db 14
09B13                           	drum_envelope DR3, M3, S16
09B13 F2                        	.db NOTE_LENGTH_CMD | DR3 | M3 | S16
09B14                           	drum_note 14
09B14 0E                        	.db 14
09B15                           	drum_envelope DR3, M3, S32
09B15 F1                        	.db NOTE_LENGTH_CMD | DR3 | M3 | S32
09B16                           	drum_note 14
09B16 0E                        	.db 14
09B17                           	drum_note 14
09B17 0E                        	.db 14
09B18                           	drum_envelope DR3, M3, S16
09B18 F2                        	.db NOTE_LENGTH_CMD | DR3 | M3 | S16
09B19                           	drum_note 14
09B19 0E                        	.db 14
09B1A                           	drum_envelope DR3, M3, S32
09B1A F1                        	.db NOTE_LENGTH_CMD | DR3 | M3 | S32
09B1B                           	drum_note 14
09B1B 0E                        	.db 14
09B1C                           	drum_note 14
09B1C 0E                        	.db 14
09B1D                           	drum_envelope DR3, M3, S16
09B1D F2                        	.db NOTE_LENGTH_CMD | DR3 | M3 | S16
09B1E                           	drum_note 14
09B1E 0E                        	.db 14
09B1F                           	drum_envelope DR3, M3, S32
09B1F F1                        	.db NOTE_LENGTH_CMD | DR3 | M3 | S32
09B20                           	drum_note 14
09B20 0E                        	.db 14
09B21                           	drum_note 14
09B21 0E                        	.db 14
09B22                           	drum_envelope DR3, M3, S16
09B22 F2                        	.db NOTE_LENGTH_CMD | DR3 | M3 | S16
09B23                           	drum_note 14
09B23 0E                        	.db 14
09B24                           	drum_envelope DR3, M3, S32
09B24 F1                        	.db NOTE_LENGTH_CMD | DR3 | M3 | S32
09B25                           	drum_note 14
09B25 0E                        	.db 14
09B26                           	drum_note 14
09B26 0E                        	.db 14
09B27                           	drum_envelope DR3, M3, S16
09B27 F2                        	.db NOTE_LENGTH_CMD | DR3 | M3 | S16
09B28                           	drum_note 14
09B28 0E                        	.db 14
09B29                           	drum_envelope DR3, M3, S32
09B29 F1                        	.db NOTE_LENGTH_CMD | DR3 | M3 | S32
09B2A                           	drum_note 14
09B2A 0E                        	.db 14
09B2B                           	drum_note 14
09B2B 0E                        	.db 14
09B2C                           	drum_envelope DR3, M3, S16
09B2C F2                        	.db NOTE_LENGTH_CMD | DR3 | M3 | S16
09B2D                           	drum_note 14
09B2D 0E                        	.db 14
09B2E                           	drum_envelope DR3, M3, S32
09B2E F1                        	.db NOTE_LENGTH_CMD | DR3 | M3 | S32
09B2F                           	drum_note 14
09B2F 0E                        	.db 14
09B30                           	drum_note 14
09B30 0E                        	.db 14
09B31                           
09B31                           	drum_envelope DR3, M3, S2
09B31 F5                        	.db NOTE_LENGTH_CMD | DR3 | M3 | S2
09B32                           	drum_note 14
09B32 0E                        	.db 14
09B33                           	drum_envelope DR3, M3, S8
09B33 F3                        	.db NOTE_LENGTH_CMD | DR3 | M3 | S8
09B34                           	drum_note 14
09B34 0E                        	.db 14
09B35                           	drum_note 14
09B35 0E                        	.db 14
09B36                           	drum_note 14
09B36 0E                        	.db 14
09B37                           	drum_note 14
09B37 0E                        	.db 14
09B38                           
09B38                           	drum_envelope DR3, M3, S2
09B38 F5                        	.db NOTE_LENGTH_CMD | DR3 | M3 | S2
09B39                           	drum_note 14
09B39 0E                        	.db 14
09B3A                           	drum_envelope DR2, M3, S32
09B3A D1                        	.db NOTE_LENGTH_CMD | DR2 | M3 | S32
09B3B                           	drum_note 3
09B3B 03                        	.db 3
09B3C                           	drum_note 3
09B3C 03                        	.db 3
09B3D                           	drum_note 3
09B3D 03                        	.db 3
09B3E                           	drum_note 3
09B3E 03                        	.db 3
09B3F                           	drum_note 4
09B3F 04                        	.db 4
09B40                           	drum_note 4
09B40 04                        	.db 4
09B41                           	drum_note 4
09B41 04                        	.db 4
09B42                           	drum_note 4
09B42 04                        	.db 4
09B43                           	drum_note 5
09B43 05                        	.db 5
09B44                           	drum_note 5
09B44 05                        	.db 5
09B45                           	drum_note 5
09B45 05                        	.db 5
09B46                           	drum_note 5
09B46 05                        	.db 5
09B47                           	drum_note 6
09B47 06                        	.db 6
09B48                           	drum_note 6
09B48 06                        	.db 6
09B49                           	drum_note 6
09B49 06                        	.db 6
09B4A                           	drum_note 6
09B4A 06                        	.db 6
09B4B                           	sound_ret
09B4B FF                        	.db SOUND_RET_CMD
09B4C                           
09B4C                           MusicData_Congrats_DPCM:
09B4C                           	note_length M3, S1
09B4C 96                        	.db NOTE_LENGTH_CMD | M3 | S1
09B4D                           	rest
09B4D 00                        	.db 0
09B4E                           
09B4E                           	rest
09B4E 00                        	.db 0
09B4F                           
09B4F                           	rest
09B4F 00                        	.db 0
09B50                           
09B50                           	note_length M3, S16
09B50 92                        	.db NOTE_LENGTH_CMD | M3 | S16
09B51                           	dpcm_note 5
09B51 A5                        	.db DPCM_ID_CMD + 5
09B52                           	dpcm_note 0
09B52 A0                        	.db DPCM_ID_CMD + 0
09B53                           	note_length M4_5, S4
09B53 9C                        	.db NOTE_LENGTH_CMD | M4_5 | S4
09B54                           	rest
09B54 00                        	.db 0
09B55                           	note_length M3, S2
09B55 95                        	.db NOTE_LENGTH_CMD | M3 | S2
09B56                           	rest
09B56 00                        	.db 0
09B57                           
09B57                           	note_length M3, S1
09B57 96                        	.db NOTE_LENGTH_CMD | M3 | S1
09B58                           	rest
09B58 00                        	.db 0
09B59                           	sound_ret
09B59 FF                        	.db SOUND_RET_CMD
09B5A                           
09B5A                           MusicData_Congrats_FDS:
09B5A                           	instrument 0
09B5A C0                        	.db INSTRUMENT_CMD | 0
09B5B                           	volume_const
09B5B EF                        	.db FADE_CTRL_CMD + F_IN - 1
09B5C                           	note_length M3, S8
09B5C 93                        	.db NOTE_LENGTH_CMD | M3 | S8
09B5D                           	rest
09B5D 00                        	.db 0
09B5E                           	note_length M3, S32
09B5E 91                        	.db NOTE_LENGTH_CMD | M3 | S32
09B5F                           	note E_, 4
09B5F 45                        	.db 4 << 4 | E_
09B60                           	note_length M4_5, S16
09B60 9A                        	.db NOTE_LENGTH_CMD | M4_5 | S16
09B61                           	note E_, 4
09B61 45                        	.db 4 << 4 | E_
09B62                           	note_length M3, S8
09B62 93                        	.db NOTE_LENGTH_CMD | M3 | S8
09B63                           	tie
09B63 0F                        	.db NOTE_MASK
09B64                           	note_length M3, S32
09B64 91                        	.db NOTE_LENGTH_CMD | M3 | S32
09B65                           	note E_, 4
09B65 45                        	.db 4 << 4 | E_
09B66                           	note_length M4_5, S16
09B66 9A                        	.db NOTE_LENGTH_CMD | M4_5 | S16
09B67                           	note E_, 4
09B67 45                        	.db 4 << 4 | E_
09B68                           	note_length M3, S8
09B68 93                        	.db NOTE_LENGTH_CMD | M3 | S8
09B69                           	tie
09B69 0F                        	.db NOTE_MASK
09B6A                           	note_length M3, S32
09B6A 91                        	.db NOTE_LENGTH_CMD | M3 | S32
09B6B                           	note E_, 4
09B6B 45                        	.db 4 << 4 | E_
09B6C                           	note_length M4_5, S16
09B6C 9A                        	.db NOTE_LENGTH_CMD | M4_5 | S16
09B6D                           	note E_, 4
09B6D 45                        	.db 4 << 4 | E_
09B6E                           	note_length M3, S16
09B6E 92                        	.db NOTE_LENGTH_CMD | M3 | S16
09B6F                           	note E_, 4
09B6F 45                        	.db 4 << 4 | E_
09B70                           	note E_, 4
09B70 45                        	.db 4 << 4 | E_
09B71                           	note_length M3, S32
09B71 91                        	.db NOTE_LENGTH_CMD | M3 | S32
09B72                           	note E_, 4
09B72 45                        	.db 4 << 4 | E_
09B73                           	note E_, 4
09B73 45                        	.db 4 << 4 | E_
09B74                           	tie
09B74 0F                        	.db NOTE_MASK
09B75                           	note E_, 4
09B75 45                        	.db 4 << 4 | E_
09B76                           
09B76                           	note_length M3, S8
09B76 93                        	.db NOTE_LENGTH_CMD | M3 | S8
09B77                           	rest
09B77 00                        	.db 0
09B78                           	note_length M3, S32
09B78 91                        	.db NOTE_LENGTH_CMD | M3 | S32
09B79                           	note E_, 4
09B79 45                        	.db 4 << 4 | E_
09B7A                           	note_length M4_5, S16
09B7A 9A                        	.db NOTE_LENGTH_CMD | M4_5 | S16
09B7B                           	note E_, 4
09B7B 45                        	.db 4 << 4 | E_
09B7C                           	note_length M3, S8
09B7C 93                        	.db NOTE_LENGTH_CMD | M3 | S8
09B7D                           	tie
09B7D 0F                        	.db NOTE_MASK
09B7E                           	note_length M3, S32
09B7E 91                        	.db NOTE_LENGTH_CMD | M3 | S32
09B7F                           	note E_, 4
09B7F 45                        	.db 4 << 4 | E_
09B80                           	note_length M4_5, S16
09B80 9A                        	.db NOTE_LENGTH_CMD | M4_5 | S16
09B81                           	note E_, 4
09B81 45                        	.db 4 << 4 | E_
09B82                           	note_length M3, S8
09B82 93                        	.db NOTE_LENGTH_CMD | M3 | S8
09B83                           	tie
09B83 0F                        	.db NOTE_MASK
09B84                           	note_length M3, S32
09B84 91                        	.db NOTE_LENGTH_CMD | M3 | S32
09B85                           	note E_, 4
09B85 45                        	.db 4 << 4 | E_
09B86                           	note_length M4_5, S16
09B86 9A                        	.db NOTE_LENGTH_CMD | M4_5 | S16
09B87                           	note E_, 4
09B87 45                        	.db 4 << 4 | E_
09B88                           	note_length M3, S16
09B88 92                        	.db NOTE_LENGTH_CMD | M3 | S16
09B89                           	note E_, 4
09B89 45                        	.db 4 << 4 | E_
09B8A                           	note_length M3, S32
09B8A 91                        	.db NOTE_LENGTH_CMD | M3 | S32
09B8B                           	note E_, 4
09B8B 45                        	.db 4 << 4 | E_
09B8C                           	note E_, 4
09B8C 45                        	.db 4 << 4 | E_
09B8D                           	note E_, 4
09B8D 45                        	.db 4 << 4 | E_
09B8E                           	note E_, 4
09B8E 45                        	.db 4 << 4 | E_
09B8F                           	note E_, 4
09B8F 45                        	.db 4 << 4 | E_
09B90                           	note E_, 4
09B90 45                        	.db 4 << 4 | E_
09B91                           
09B91                           	note_length M3, S16
09B91 92                        	.db NOTE_LENGTH_CMD | M3 | S16
09B92                           	note E_, 4
09B92 45                        	.db 4 << 4 | E_
09B93                           	instrument 15
09B93 CF                        	.db INSTRUMENT_CMD | 15
09B94                           	note D_, 5
09B94 53                        	.db 5 << 4 | D_
09B95                           	instrument 0
09B95 C0                        	.db INSTRUMENT_CMD | 0
09B96                           	note E_, 4
09B96 45                        	.db 4 << 4 | E_
09B97                           	instrument 15
09B97 CF                        	.db INSTRUMENT_CMD | 15
09B98                           	note E_, 5
09B98 55                        	.db 5 << 4 | E_
09B99                           	instrument 0
09B99 C0                        	.db INSTRUMENT_CMD | 0
09B9A                           	note E_, 4
09B9A 45                        	.db 4 << 4 | E_
09B9B                           	instrument 15
09B9B CF                        	.db INSTRUMENT_CMD | 15
09B9C                           	note E_, 5
09B9C 55                        	.db 5 << 4 | E_
09B9D                           	instrument 0
09B9D C0                        	.db INSTRUMENT_CMD | 0
09B9E                           	note E_, 4
09B9E 45                        	.db 4 << 4 | E_
09B9F                           	instrument 15
09B9F CF                        	.db INSTRUMENT_CMD | 15
09BA0                           	note F#, 5
09BA0 57                        	.db 5 << 4 | F#
09BA1                           	instrument 0
09BA1 C0                        	.db INSTRUMENT_CMD | 0
09BA2                           	note E_, 4
09BA2 45                        	.db 4 << 4 | E_
09BA3                           	instrument 15
09BA3 CF                        	.db INSTRUMENT_CMD | 15
09BA4                           	note G_, 5
09BA4 58                        	.db 5 << 4 | G_
09BA5                           	instrument 0
09BA5 C0                        	.db INSTRUMENT_CMD | 0
09BA6                           	note E_, 4
09BA6 45                        	.db 4 << 4 | E_
09BA7                           	instrument 15
09BA7 CF                        	.db INSTRUMENT_CMD | 15
09BA8                           	note G#, 5
09BA8 59                        	.db 5 << 4 | G#
09BA9                           	instrument 0
09BA9 C0                        	.db INSTRUMENT_CMD | 0
09BAA                           	note_length M3, S32
09BAA 91                        	.db NOTE_LENGTH_CMD | M3 | S32
09BAB                           	note E_, 4
09BAB 45                        	.db 4 << 4 | E_
09BAC                           	note E_, 4
09BAC 45                        	.db 4 << 4 | E_
09BAD                           	note E_, 4
09BAD 45                        	.db 4 << 4 | E_
09BAE                           	note E_, 4
09BAE 45                        	.db 4 << 4 | E_
09BAF                           	note E_, 4
09BAF 45                        	.db 4 << 4 | E_
09BB0                           	note E_, 4
09BB0 45                        	.db 4 << 4 | E_
09BB1                           	note_length M3, S16
09BB1 92                        	.db NOTE_LENGTH_CMD | M3 | S16
09BB2                           	note E_, 4
09BB2 45                        	.db 4 << 4 | E_
09BB3                           
09BB3                           	instrument 15
09BB3 CF                        	.db INSTRUMENT_CMD | 15
09BB4                           	note F_, 5
09BB4 56                        	.db 5 << 4 | F_
09BB5                           	note_length M3, S64
09BB5 90                        	.db NOTE_LENGTH_CMD | M3 | S64
09BB6                           	tie
09BB6 0F                        	.db NOTE_MASK
09BB7                           	note_length M4_5, S32
09BB7 99                        	.db NOTE_LENGTH_CMD | M4_5 | S32
09BB8                           	pitch_slide 31, F_, 4
09BB8 BF 46                     	.db PITCH_BEND_CMD | 31, 4 << 4 | F_
09BBA                           	tie
09BBA 0F                        	.db NOTE_MASK
09BBB                           	note_length M4_5, S4
09BBB 9C                        	.db NOTE_LENGTH_CMD | M4_5 | S4
09BBC                           	rest
09BBC 00                        	.db 0
09BBD                           	instrument 0
09BBD C0                        	.db INSTRUMENT_CMD | 0
09BBE                           	note_length M1, S8
09BBE 83                        	.db NOTE_LENGTH_CMD | M1 | S8
09BBF                           	note E_, 4
09BBF 45                        	.db 4 << 4 | E_
09BC0                           	note E_, 4
09BC0 45                        	.db 4 << 4 | E_
09BC1                           	note E_, 4
09BC1 45                        	.db 4 << 4 | E_
09BC2                           	note E_, 4
09BC2 45                        	.db 4 << 4 | E_
09BC3                           	note E_, 4
09BC3 45                        	.db 4 << 4 | E_
09BC4                           	note E_, 4
09BC4 45                        	.db 4 << 4 | E_
09BC5                           	note E_, 4
09BC5 45                        	.db 4 << 4 | E_
09BC6                           	note E_, 4
09BC6 45                        	.db 4 << 4 | E_
09BC7                           	note E_, 4
09BC7 45                        	.db 4 << 4 | E_
09BC8                           	note_length M3, S32
09BC8 91                        	.db NOTE_LENGTH_CMD | M3 | S32
09BC9                           	note E_, 4
09BC9 45                        	.db 4 << 4 | E_
09BCA                           	note E_, 4
09BCA 45                        	.db 4 << 4 | E_
09BCB                           	note E_, 4
09BCB 45                        	.db 4 << 4 | E_
09BCC                           	note E_, 4
09BCC 45                        	.db 4 << 4 | E_
09BCD                           
09BCD                           	note_length M1, S4
09BCD 84                        	.db NOTE_LENGTH_CMD | M1 | S4
09BCE                           	note E_, 4
09BCE 45                        	.db 4 << 4 | E_
09BCF                           	note_length M3, S32
09BCF 91                        	.db NOTE_LENGTH_CMD | M3 | S32
09BD0                           	note E_, 4
09BD0 45                        	.db 4 << 4 | E_
09BD1                           	note E_, 4
09BD1 45                        	.db 4 << 4 | E_
09BD2                           	note E_, 4
09BD2 45                        	.db 4 << 4 | E_
09BD3                           	note E_, 4
09BD3 45                        	.db 4 << 4 | E_
09BD4                           	note E_, 4
09BD4 45                        	.db 4 << 4 | E_
09BD5                           	tie
09BD5 0F                        	.db NOTE_MASK
09BD6                           	note E_, 4
09BD6 45                        	.db 4 << 4 | E_
09BD7                           	note E_, 4
09BD7 45                        	.db 4 << 4 | E_
09BD8                           	note_length M1, S2
09BD8 85                        	.db NOTE_LENGTH_CMD | M1 | S2
09BD9                           	rest
09BD9 00                        	.db 0
09BDA                           	sound_ret
09BDA FF                        	.db SOUND_RET_CMD
09BDB                           .include "src/music/music-data/countdown.asm"
09BDB                           MusicData_Countdown:
09BDB                           	instrument 14
09BDB CE                        	.db INSTRUMENT_CMD | 14
09BDC                           	volume_fade 0, 1
09BDC E1                        	.db FADE_CTRL_CMD | 0 | 1
09BDD                           	note_length M1, S2
09BDD 85                        	.db NOTE_LENGTH_CMD | M1 | S2
09BDE                           	note C_, 6
09BDE 61                        	.db 6 << 4 | C_
09BDF                           	note C_, 6
09BDF 61                        	.db 6 << 4 | C_
09BE0                           	volume_fade 0, 2
09BE0 E2                        	.db FADE_CTRL_CMD | 0 | 2
09BE1                           	note C_, 7
09BE1 71                        	.db 7 << 4 | C_
09BE2                           	sound_ret
09BE2 FF                        	.db SOUND_RET_CMD
09BE3                           .include "src/music/music-data/course-select.asm"
09BE3                           MusicData_CourseSelect_Pulse1:
09BE3                           	instrument 4
09BE3 C4                        	.db INSTRUMENT_CMD | 4
09BE4                           	volume_const
09BE4 EF                        	.db FADE_CTRL_CMD + F_IN - 1
09BE5                           	note_length M1, S32
09BE5 81                        	.db NOTE_LENGTH_CMD | M1 | S32
09BE6                           	note A_, 5
09BE6 5A                        	.db 5 << 4 | A_
09BE7                           	rest
09BE7 00                        	.db 0
09BE8                           	note A_, 5
09BE8 5A                        	.db 5 << 4 | A_
09BE9                           	rest
09BE9 00                        	.db 0
09BEA                           	note A_, 4
09BEA 4A                        	.db 4 << 4 | A_
09BEB                           	rest
09BEB 00                        	.db 0
09BEC                           	note A_, 4
09BEC 4A                        	.db 4 << 4 | A_
09BED                           	rest
09BED 00                        	.db 0
09BEE                           	note A_, 5
09BEE 5A                        	.db 5 << 4 | A_
09BEF                           	rest
09BEF 00                        	.db 0
09BF0                           	note A_, 4
09BF0 4A                        	.db 4 << 4 | A_
09BF1                           	rest
09BF1 00                        	.db 0
09BF2                           	note A_, 5
09BF2 5A                        	.db 5 << 4 | A_
09BF3                           	rest
09BF3 00                        	.db 0
09BF4                           	note A_, 5
09BF4 5A                        	.db 5 << 4 | A_
09BF5                           	rest
09BF5 00                        	.db 0
09BF6                           	note A_, 5
09BF6 5A                        	.db 5 << 4 | A_
09BF7                           	rest
09BF7 00                        	.db 0
09BF8                           	note A_, 5
09BF8 5A                        	.db 5 << 4 | A_
09BF9                           	rest
09BF9 00                        	.db 0
09BFA                           	note A_, 4
09BFA 4A                        	.db 4 << 4 | A_
09BFB                           	rest
09BFB 00                        	.db 0
09BFC                           	note A_, 4
09BFC 4A                        	.db 4 << 4 | A_
09BFD                           	rest
09BFD 00                        	.db 0
09BFE                           	note A_, 4
09BFE 4A                        	.db 4 << 4 | A_
09BFF                           	rest
09BFF 00                        	.db 0
09C00                           	note A_, 4
09C00 4A                        	.db 4 << 4 | A_
09C01                           	rest
09C01 00                        	.db 0
09C02                           	note A_, 5
09C02 5A                        	.db 5 << 4 | A_
09C03                           	rest
09C03 00                        	.db 0
09C04                           	note A_, 5
09C04 5A                        	.db 5 << 4 | A_
09C05                           	rest
09C05 00                        	.db 0
09C06                           	note A_, 5
09C06 5A                        	.db 5 << 4 | A_
09C07                           	rest
09C07 00                        	.db 0
09C08                           	note A_, 4
09C08 4A                        	.db 4 << 4 | A_
09C09                           	rest
09C09 00                        	.db 0
09C0A                           	note A_, 5
09C0A 5A                        	.db 5 << 4 | A_
09C0B                           	rest
09C0B 00                        	.db 0
09C0C                           	note A_, 4
09C0C 4A                        	.db 4 << 4 | A_
09C0D                           	rest
09C0D 00                        	.db 0
09C0E                           	note A_, 5
09C0E 5A                        	.db 5 << 4 | A_
09C0F                           	rest
09C0F 00                        	.db 0
09C10                           	note A_, 4
09C10 4A                        	.db 4 << 4 | A_
09C11                           	rest
09C11 00                        	.db 0
09C12                           	note A_, 5
09C12 5A                        	.db 5 << 4 | A_
09C13                           	rest
09C13 00                        	.db 0
09C14                           	note A_, 5
09C14 5A                        	.db 5 << 4 | A_
09C15                           	rest
09C15 00                        	.db 0
09C16                           	note A_, 5
09C16 5A                        	.db 5 << 4 | A_
09C17                           	rest
09C17 00                        	.db 0
09C18                           	note A_, 4
09C18 4A                        	.db 4 << 4 | A_
09C19                           	rest
09C19 00                        	.db 0
09C1A                           	note A_, 5
09C1A 5A                        	.db 5 << 4 | A_
09C1B                           	rest
09C1B 00                        	.db 0
09C1C                           	note A_, 4
09C1C 4A                        	.db 4 << 4 | A_
09C1D                           	rest
09C1D 00                        	.db 0
09C1E                           	note A_, 5
09C1E 5A                        	.db 5 << 4 | A_
09C1F                           	rest
09C1F 00                        	.db 0
09C20                           	note A_, 4
09C20 4A                        	.db 4 << 4 | A_
09C21                           	rest
09C21 00                        	.db 0
09C22                           	note A_, 5
09C22 5A                        	.db 5 << 4 | A_
09C23                           	rest
09C23 00                        	.db 0
09C24                           	note A_, 5
09C24 5A                        	.db 5 << 4 | A_
09C25                           	rest
09C25 00                        	.db 0
09C26                           	note G_, 5
09C26 58                        	.db 5 << 4 | G_
09C27                           	rest
09C27 00                        	.db 0
09C28                           	note G_, 5
09C28 58                        	.db 5 << 4 | G_
09C29                           	rest
09C29 00                        	.db 0
09C2A                           	note G_, 4
09C2A 48                        	.db 4 << 4 | G_
09C2B                           	rest
09C2B 00                        	.db 0
09C2C                           	note G_, 4
09C2C 48                        	.db 4 << 4 | G_
09C2D                           	rest
09C2D 00                        	.db 0
09C2E                           	note G_, 5
09C2E 58                        	.db 5 << 4 | G_
09C2F                           	rest
09C2F 00                        	.db 0
09C30                           	note G_, 4
09C30 48                        	.db 4 << 4 | G_
09C31                           	rest
09C31 00                        	.db 0
09C32                           	note G_, 5
09C32 58                        	.db 5 << 4 | G_
09C33                           	rest
09C33 00                        	.db 0
09C34                           	note G_, 5
09C34 58                        	.db 5 << 4 | G_
09C35                           	rest
09C35 00                        	.db 0
09C36                           	note G_, 5
09C36 58                        	.db 5 << 4 | G_
09C37                           	rest
09C37 00                        	.db 0
09C38                           	note G_, 5
09C38 58                        	.db 5 << 4 | G_
09C39                           	rest
09C39 00                        	.db 0
09C3A                           	note G_, 4
09C3A 48                        	.db 4 << 4 | G_
09C3B                           	rest
09C3B 00                        	.db 0
09C3C                           	note G_, 4
09C3C 48                        	.db 4 << 4 | G_
09C3D                           	rest
09C3D 00                        	.db 0
09C3E                           	note G_, 4
09C3E 48                        	.db 4 << 4 | G_
09C3F                           	rest
09C3F 00                        	.db 0
09C40                           	note G_, 4
09C40 48                        	.db 4 << 4 | G_
09C41                           	rest
09C41 00                        	.db 0
09C42                           	note G_, 5
09C42 58                        	.db 5 << 4 | G_
09C43                           	rest
09C43 00                        	.db 0
09C44                           	note G_, 5
09C44 58                        	.db 5 << 4 | G_
09C45                           	rest
09C45 00                        	.db 0
09C46                           	note G_, 5
09C46 58                        	.db 5 << 4 | G_
09C47                           	rest
09C47 00                        	.db 0
09C48                           	note G_, 4
09C48 48                        	.db 4 << 4 | G_
09C49                           	rest
09C49 00                        	.db 0
09C4A                           	note G_, 5
09C4A 58                        	.db 5 << 4 | G_
09C4B                           	rest
09C4B 00                        	.db 0
09C4C                           	note G_, 4
09C4C 48                        	.db 4 << 4 | G_
09C4D                           	rest
09C4D 00                        	.db 0
09C4E                           	note G_, 5
09C4E 58                        	.db 5 << 4 | G_
09C4F                           	rest
09C4F 00                        	.db 0
09C50                           	note G_, 4
09C50 48                        	.db 4 << 4 | G_
09C51                           	rest
09C51 00                        	.db 0
09C52                           	note G_, 5
09C52 58                        	.db 5 << 4 | G_
09C53                           	rest
09C53 00                        	.db 0
09C54                           	note G_, 5
09C54 58                        	.db 5 << 4 | G_
09C55                           	rest
09C55 00                        	.db 0
09C56                           	note G_, 5
09C56 58                        	.db 5 << 4 | G_
09C57                           	rest
09C57 00                        	.db 0
09C58                           	note G_, 4
09C58 48                        	.db 4 << 4 | G_
09C59                           	rest
09C59 00                        	.db 0
09C5A                           	note G_, 5
09C5A 58                        	.db 5 << 4 | G_
09C5B                           	rest
09C5B 00                        	.db 0
09C5C                           	note G_, 4
09C5C 48                        	.db 4 << 4 | G_
09C5D                           	rest
09C5D 00                        	.db 0
09C5E                           	note G_, 5
09C5E 58                        	.db 5 << 4 | G_
09C5F                           	rest
09C5F 00                        	.db 0
09C60                           	note G_, 4
09C60 48                        	.db 4 << 4 | G_
09C61                           	rest
09C61 00                        	.db 0
09C62                           	note G_, 5
09C62 58                        	.db 5 << 4 | G_
09C63                           	rest
09C63 00                        	.db 0
09C64                           	note G_, 5
09C64 58                        	.db 5 << 4 | G_
09C65                           	rest
09C65 00                        	.db 0
09C66                           	sound_ret
09C66 FF                        	.db SOUND_RET_CMD
09C67                           
09C67                           MusicData_CourseSelect_Pulse2:
09C67                           	instrument 4
09C67 C4                        	.db INSTRUMENT_CMD | 4
09C68                           	volume_const
09C68 EF                        	.db FADE_CTRL_CMD + F_IN - 1
09C69                           	note_length M1, S32
09C69 81                        	.db NOTE_LENGTH_CMD | M1 | S32
09C6A                           	rest
09C6A 00                        	.db 0
09C6B                           	rest
09C6B 00                        	.db 0
09C6C                           	note A_, 5
09C6C 5A                        	.db 5 << 4 | A_
09C6D                           	rest
09C6D 00                        	.db 0
09C6E                           	note A_, 5
09C6E 5A                        	.db 5 << 4 | A_
09C6F                           	rest
09C6F 00                        	.db 0
09C70                           	note A_, 4
09C70 4A                        	.db 4 << 4 | A_
09C71                           	rest
09C71 00                        	.db 0
09C72                           	note A_, 4
09C72 4A                        	.db 4 << 4 | A_
09C73                           	rest
09C73 00                        	.db 0
09C74                           	note A_, 5
09C74 5A                        	.db 5 << 4 | A_
09C75                           	rest
09C75 00                        	.db 0
09C76                           	note A_, 4
09C76 4A                        	.db 4 << 4 | A_
09C77                           	rest
09C77 00                        	.db 0
09C78                           	note A_, 5
09C78 5A                        	.db 5 << 4 | A_
09C79                           	rest
09C79 00                        	.db 0
09C7A                           	note A_, 5
09C7A 5A                        	.db 5 << 4 | A_
09C7B                           	rest
09C7B 00                        	.db 0
09C7C                           	note A_, 5
09C7C 5A                        	.db 5 << 4 | A_
09C7D                           	rest
09C7D 00                        	.db 0
09C7E                           	note A_, 5
09C7E 5A                        	.db 5 << 4 | A_
09C7F                           	rest
09C7F 00                        	.db 0
09C80                           	note A_, 4
09C80 4A                        	.db 4 << 4 | A_
09C81                           	rest
09C81 00                        	.db 0
09C82                           	note A_, 4
09C82 4A                        	.db 4 << 4 | A_
09C83                           	rest
09C83 00                        	.db 0
09C84                           	note A_, 4
09C84 4A                        	.db 4 << 4 | A_
09C85                           	rest
09C85 00                        	.db 0
09C86                           	note A_, 4
09C86 4A                        	.db 4 << 4 | A_
09C87                           	rest
09C87 00                        	.db 0
09C88                           	note A_, 5
09C88 5A                        	.db 5 << 4 | A_
09C89                           	rest
09C89 00                        	.db 0
09C8A                           	note A_, 5
09C8A 5A                        	.db 5 << 4 | A_
09C8B                           	rest
09C8B 00                        	.db 0
09C8C                           	note A_, 5
09C8C 5A                        	.db 5 << 4 | A_
09C8D                           	rest
09C8D 00                        	.db 0
09C8E                           	note A_, 4
09C8E 4A                        	.db 4 << 4 | A_
09C8F                           	rest
09C8F 00                        	.db 0
09C90                           	note A_, 5
09C90 5A                        	.db 5 << 4 | A_
09C91                           	rest
09C91 00                        	.db 0
09C92                           	note A_, 4
09C92 4A                        	.db 4 << 4 | A_
09C93                           	rest
09C93 00                        	.db 0
09C94                           	note A_, 5
09C94 5A                        	.db 5 << 4 | A_
09C95                           	rest
09C95 00                        	.db 0
09C96                           	note A_, 4
09C96 4A                        	.db 4 << 4 | A_
09C97                           	rest
09C97 00                        	.db 0
09C98                           	note A_, 5
09C98 5A                        	.db 5 << 4 | A_
09C99                           	rest
09C99 00                        	.db 0
09C9A                           	note A_, 5
09C9A 5A                        	.db 5 << 4 | A_
09C9B                           	rest
09C9B 00                        	.db 0
09C9C                           	note A_, 5
09C9C 5A                        	.db 5 << 4 | A_
09C9D                           	rest
09C9D 00                        	.db 0
09C9E                           	note A_, 4
09C9E 4A                        	.db 4 << 4 | A_
09C9F                           	rest
09C9F 00                        	.db 0
09CA0                           	note A_, 5
09CA0 5A                        	.db 5 << 4 | A_
09CA1                           	rest
09CA1 00                        	.db 0
09CA2                           	note A_, 4
09CA2 4A                        	.db 4 << 4 | A_
09CA3                           	rest
09CA3 00                        	.db 0
09CA4                           	note A_, 5
09CA4 5A                        	.db 5 << 4 | A_
09CA5                           	rest
09CA5 00                        	.db 0
09CA6                           	note A_, 4
09CA6 4A                        	.db 4 << 4 | A_
09CA7                           	rest
09CA7 00                        	.db 0
09CA8                           	note A_, 5
09CA8 5A                        	.db 5 << 4 | A_
09CA9                           	rest
09CA9 00                        	.db 0
09CAA                           	note A_, 5
09CAA 5A                        	.db 5 << 4 | A_
09CAB                           	rest
09CAB 00                        	.db 0
09CAC                           	note G_, 5
09CAC 58                        	.db 5 << 4 | G_
09CAD                           	rest
09CAD 00                        	.db 0
09CAE                           	note G_, 5
09CAE 58                        	.db 5 << 4 | G_
09CAF                           	rest
09CAF 00                        	.db 0
09CB0                           	note G_, 4
09CB0 48                        	.db 4 << 4 | G_
09CB1                           	rest
09CB1 00                        	.db 0
09CB2                           	note G_, 4
09CB2 48                        	.db 4 << 4 | G_
09CB3                           	rest
09CB3 00                        	.db 0
09CB4                           	note G_, 5
09CB4 58                        	.db 5 << 4 | G_
09CB5                           	rest
09CB5 00                        	.db 0
09CB6                           	note G_, 4
09CB6 48                        	.db 4 << 4 | G_
09CB7                           	rest
09CB7 00                        	.db 0
09CB8                           	note G_, 5
09CB8 58                        	.db 5 << 4 | G_
09CB9                           	rest
09CB9 00                        	.db 0
09CBA                           	note G_, 5
09CBA 58                        	.db 5 << 4 | G_
09CBB                           	rest
09CBB 00                        	.db 0
09CBC                           	note G_, 5
09CBC 58                        	.db 5 << 4 | G_
09CBD                           	rest
09CBD 00                        	.db 0
09CBE                           	note G_, 5
09CBE 58                        	.db 5 << 4 | G_
09CBF                           	rest
09CBF 00                        	.db 0
09CC0                           	note G_, 4
09CC0 48                        	.db 4 << 4 | G_
09CC1                           	rest
09CC1 00                        	.db 0
09CC2                           	note G_, 4
09CC2 48                        	.db 4 << 4 | G_
09CC3                           	rest
09CC3 00                        	.db 0
09CC4                           	note G_, 4
09CC4 48                        	.db 4 << 4 | G_
09CC5                           	rest
09CC5 00                        	.db 0
09CC6                           	note G_, 4
09CC6 48                        	.db 4 << 4 | G_
09CC7                           	rest
09CC7 00                        	.db 0
09CC8                           	note G_, 5
09CC8 58                        	.db 5 << 4 | G_
09CC9                           	rest
09CC9 00                        	.db 0
09CCA                           	note G_, 5
09CCA 58                        	.db 5 << 4 | G_
09CCB                           	rest
09CCB 00                        	.db 0
09CCC                           	note G_, 5
09CCC 58                        	.db 5 << 4 | G_
09CCD                           	rest
09CCD 00                        	.db 0
09CCE                           	note G_, 4
09CCE 48                        	.db 4 << 4 | G_
09CCF                           	rest
09CCF 00                        	.db 0
09CD0                           	note G_, 5
09CD0 58                        	.db 5 << 4 | G_
09CD1                           	rest
09CD1 00                        	.db 0
09CD2                           	note G_, 4
09CD2 48                        	.db 4 << 4 | G_
09CD3                           	rest
09CD3 00                        	.db 0
09CD4                           	note G_, 5
09CD4 58                        	.db 5 << 4 | G_
09CD5                           	rest
09CD5 00                        	.db 0
09CD6                           	note G_, 4
09CD6 48                        	.db 4 << 4 | G_
09CD7                           	rest
09CD7 00                        	.db 0
09CD8                           	note G_, 5
09CD8 58                        	.db 5 << 4 | G_
09CD9                           	rest
09CD9 00                        	.db 0
09CDA                           	note G_, 5
09CDA 58                        	.db 5 << 4 | G_
09CDB                           	rest
09CDB 00                        	.db 0
09CDC                           	note G_, 5
09CDC 58                        	.db 5 << 4 | G_
09CDD                           	rest
09CDD 00                        	.db 0
09CDE                           	note G_, 4
09CDE 48                        	.db 4 << 4 | G_
09CDF                           	rest
09CDF 00                        	.db 0
09CE0                           	note G_, 5
09CE0 58                        	.db 5 << 4 | G_
09CE1                           	rest
09CE1 00                        	.db 0
09CE2                           	note G_, 4
09CE2 48                        	.db 4 << 4 | G_
09CE3                           	rest
09CE3 00                        	.db 0
09CE4                           	note G_, 5
09CE4 58                        	.db 5 << 4 | G_
09CE5                           	rest
09CE5 00                        	.db 0
09CE6                           	note G_, 4
09CE6 48                        	.db 4 << 4 | G_
09CE7                           	rest
09CE7 00                        	.db 0
09CE8                           	note G_, 5
09CE8 58                        	.db 5 << 4 | G_
09CE9                           	rest
09CE9 00                        	.db 0
09CEA                           	sound_ret
09CEA FF                        	.db SOUND_RET_CMD
09CEB                           
09CEB                           MusicData_CourseSelect_Hill:
09CEB                           	instrument 21
09CEB D5                        	.db INSTRUMENT_CMD | 21
09CEC                           	note_length M1, S8
09CEC 83                        	.db NOTE_LENGTH_CMD | M1 | S8
09CED                           	note A_, 3
09CED 3A                        	.db 3 << 4 | A_
09CEE                           	note A_, 3
09CEE 3A                        	.db 3 << 4 | A_
09CEF                           	note G_, 3
09CEF 38                        	.db 3 << 4 | G_
09CF0                           	note A_, 3
09CF0 3A                        	.db 3 << 4 | A_
09CF1                           	note_length M1, S4
09CF1 84                        	.db NOTE_LENGTH_CMD | M1 | S4
09CF2                           	pitch_slide 2, C_, 4
09CF2 A2 41                     	.db PITCH_BEND_CMD | 2, 4 << 4 | C_
09CF4                           	note B_, 3
09CF4 3C                        	.db 3 << 4 | B_
09CF5                           	note_length M1, S16
09CF5 82                        	.db NOTE_LENGTH_CMD | M1 | S16
09CF6                           	note A_, 3
09CF6 3A                        	.db 3 << 4 | A_
09CF7                           	rest
09CF7 00                        	.db 0
09CF8                           	note_length M1, S8
09CF8 83                        	.db NOTE_LENGTH_CMD | M1 | S8
09CF9                           	note G_, 3
09CF9 38                        	.db 3 << 4 | G_
09CFA                           	rest
09CFA 00                        	.db 0
09CFB                           	note A_, 3
09CFB 3A                        	.db 3 << 4 | A_
09CFC                           	note A_, 3
09CFC 3A                        	.db 3 << 4 | A_
09CFD                           	note G_, 3
09CFD 38                        	.db 3 << 4 | G_
09CFE                           	note_length M1, S4
09CFE 84                        	.db NOTE_LENGTH_CMD | M1 | S4
09CFF                           	note A_, 3
09CFF 3A                        	.db 3 << 4 | A_
09D00                           	note G_, 3
09D00 38                        	.db 3 << 4 | G_
09D01                           	note_length M1, S8
09D01 83                        	.db NOTE_LENGTH_CMD | M1 | S8
09D02                           	note E_, 3
09D02 35                        	.db 3 << 4 | E_
09D03                           	note E_, 3
09D03 35                        	.db 3 << 4 | E_
09D04                           	note D_, 3
09D04 33                        	.db 3 << 4 | D_
09D05                           	note E_, 3
09D05 35                        	.db 3 << 4 | E_
09D06                           	note_length M1, S4
09D06 84                        	.db NOTE_LENGTH_CMD | M1 | S4
09D07                           	pitch_slide 4, G_, 4
09D07 A4 48                     	.db PITCH_BEND_CMD | 4, 4 << 4 | G_
09D09                           	note F#, 3
09D09 37                        	.db 3 << 4 | F#
09D0A                           	note_length M1, S16
09D0A 82                        	.db NOTE_LENGTH_CMD | M1 | S16
09D0B                           	note E_, 3
09D0B 35                        	.db 3 << 4 | E_
09D0C                           	rest
09D0C 00                        	.db 0
09D0D                           	note_length M1, S8
09D0D 83                        	.db NOTE_LENGTH_CMD | M1 | S8
09D0E                           	note D_, 3
09D0E 33                        	.db 3 << 4 | D_
09D0F                           	rest
09D0F 00                        	.db 0
09D10                           	note E_, 3
09D10 35                        	.db 3 << 4 | E_
09D11                           	rest
09D11 00                        	.db 0
09D12                           	note E_, 3
09D12 35                        	.db 3 << 4 | E_
09D13                           	note_length M1, S4
09D13 84                        	.db NOTE_LENGTH_CMD | M1 | S4
09D14                           	note E_, 3
09D14 35                        	.db 3 << 4 | E_
09D15                           	note G_, 3
09D15 38                        	.db 3 << 4 | G_
09D16                           	sound_ret
09D16 FF                        	.db SOUND_RET_CMD
09D17                           
09D17                           MusicData_CourseSelect_Noise:
09D17                           	drum_envelope DR1, M1, S4
09D17 A4                        	.db NOTE_LENGTH_CMD | DR1 | M1 | S4
09D18                           	drum_note 3
09D18 03                        	.db 3
09D19                           	drum_note 3
09D19 03                        	.db 3
09D1A                           	drum_note 3
09D1A 03                        	.db 3
09D1B                           	drum_note 3
09D1B 03                        	.db 3
09D1C                           	drum_note 3
09D1C 03                        	.db 3
09D1D                           	drum_note 3
09D1D 03                        	.db 3
09D1E                           	drum_note 3
09D1E 03                        	.db 3
09D1F                           	drum_note 3
09D1F 03                        	.db 3
09D20                           	drum_note 3
09D20 03                        	.db 3
09D21                           	drum_note 3
09D21 03                        	.db 3
09D22                           	drum_note 3
09D22 03                        	.db 3
09D23                           	drum_note 3
09D23 03                        	.db 3
09D24                           	drum_note 3
09D24 03                        	.db 3
09D25                           	drum_note 3
09D25 03                        	.db 3
09D26                           	drum_note 3
09D26 03                        	.db 3
09D27                           	drum_envelope DR1, M1, S8
09D27 A3                        	.db NOTE_LENGTH_CMD | DR1 | M1 | S8
09D28                           	drum_note 3
09D28 03                        	.db 3
09D29                           	drum_note 3
09D29 03                        	.db 3
09D2A                           	sound_ret
09D2A FF                        	.db SOUND_RET_CMD
09D2B                           
09D2B                           MusicData_CourseSelect_FDS_1:
09D2B                           	instrument 6
09D2B C6                        	.db INSTRUMENT_CMD | 6
09D2C                           	note_length M1, S4
09D2C 84                        	.db NOTE_LENGTH_CMD | M1 | S4
09D2D                           	note F_, 2
09D2D 26                        	.db 2 << 4 | F_
09D2E                           	instrument 0
09D2E C0                        	.db INSTRUMENT_CMD | 0
09D2F                           	note E_, 4
09D2F 45                        	.db 4 << 4 | E_
09D30                           	instrument 6
09D30 C6                        	.db INSTRUMENT_CMD | 6
09D31                           	note_length M1, S8
09D31 83                        	.db NOTE_LENGTH_CMD | M1 | S8
09D32                           	note F_, 2
09D32 26                        	.db 2 << 4 | F_
09D33                           	note F_, 2
09D33 26                        	.db 2 << 4 | F_
09D34                           	note_length M1, S4
09D34 84                        	.db NOTE_LENGTH_CMD | M1 | S4
09D35                           	instrument 0
09D35 C0                        	.db INSTRUMENT_CMD | 0
09D36                           	note E_, 4
09D36 45                        	.db 4 << 4 | E_
09D37                           	sound_ret
09D37 FF                        	.db SOUND_RET_CMD
09D38                           
09D38                           MusicData_CourseSelect_FDS_2:
09D38                           	instrument 6
09D38 C6                        	.db INSTRUMENT_CMD | 6
09D39                           	note_length M1, S4
09D39 84                        	.db NOTE_LENGTH_CMD | M1 | S4
09D3A                           	note F_, 2
09D3A 26                        	.db 2 << 4 | F_
09D3B                           	instrument 0
09D3B C0                        	.db INSTRUMENT_CMD | 0
09D3C                           	note E_, 4
09D3C 45                        	.db 4 << 4 | E_
09D3D                           	instrument 6
09D3D C6                        	.db INSTRUMENT_CMD | 6
09D3E                           	note_length M1, S8
09D3E 83                        	.db NOTE_LENGTH_CMD | M1 | S8
09D3F                           	note F_, 2
09D3F 26                        	.db 2 << 4 | F_
09D40                           	note F_, 2
09D40 26                        	.db 2 << 4 | F_
09D41                           	instrument 0
09D41 C0                        	.db INSTRUMENT_CMD | 0
09D42                           	note E_, 4
09D42 45                        	.db 4 << 4 | E_
09D43                           	note E_, 4
09D43 45                        	.db 4 << 4 | E_
09D44                           	sound_ret
09D44 FF                        	.db SOUND_RET_CMD
09D45                           .include "src/music/music-data/final-trial.asm"
09D45                           MusicData_FinalTrial_Pulse1:
09D45                           	instrument 0
09D45 C0                        	.db INSTRUMENT_CMD | 0
09D46                           	volume_const
09D46 EF                        	.db FADE_CTRL_CMD + F_IN - 1
09D47                           	note_length M1, S32
09D47 81                        	.db NOTE_LENGTH_CMD | M1 | S32
09D48                           	note B_, 3
09D48 3C                        	.db 3 << 4 | B_
09D49                           	note_length M1_5, S8
09D49 8B                        	.db NOTE_LENGTH_CMD | M1_5 | S8
09D4A                           	pitch_slide 4, C_, 4
09D4A A4 41                     	.db PITCH_BEND_CMD | 4, 4 << 4 | C_
09D4C                           	tie
09D4C 0F                        	.db NOTE_MASK
09D4D                           	note_length M1, S32
09D4D 81                        	.db NOTE_LENGTH_CMD | M1 | S32
09D4E                           	rest
09D4E 00                        	.db 0
09D4F                           	instrument 21
09D4F D5                        	.db INSTRUMENT_CMD | 21
09D50                           	note_length M1, S16
09D50 82                        	.db NOTE_LENGTH_CMD | M1 | S16
09D51                           	note D_, 4
09D51 43                        	.db 4 << 4 | D_
09D52                           	note C_, 4
09D52 41                        	.db 4 << 4 | C_
09D53                           	note B_, 3
09D53 3C                        	.db 3 << 4 | B_
09D54                           	note A_, 3
09D54 3A                        	.db 3 << 4 | A_
09D55                           	note G_, 3
09D55 38                        	.db 3 << 4 | G_
09D56                           	note_length M1_5, S16
09D56 8A                        	.db NOTE_LENGTH_CMD | M1_5 | S16
09D57                           	note B_, 3
09D57 3C                        	.db 3 << 4 | B_
09D58                           	note_length M1, S32
09D58 81                        	.db NOTE_LENGTH_CMD | M1 | S32
09D59                           	rest
09D59 00                        	.db 0
09D5A                           	volume_fade 0, 3
09D5A E3                        	.db FADE_CTRL_CMD | 0 | 3
09D5B                           	note_length M1, S2
09D5B 85                        	.db NOTE_LENGTH_CMD | M1 | S2
09D5C                           	note C_, 4
09D5C 41                        	.db 4 << 4 | C_
09D5D                           	sound_ret
09D5D FF                        	.db SOUND_RET_CMD
09D5E                           
09D5E                           MusicData_FinalTrial_Pulse2:
09D5E                           	instrument 0
09D5E C0                        	.db INSTRUMENT_CMD | 0
09D5F                           	volume_const
09D5F EF                        	.db FADE_CTRL_CMD + F_IN - 1
09D60                           	note_length M1_5, S8
09D60 8B                        	.db NOTE_LENGTH_CMD | M1_5 | S8
09D61                           	pitch_slide 4, E_, 4
09D61 A4 45                     	.db PITCH_BEND_CMD | 4, 4 << 4 | E_
09D63                           	note D_, 4
09D63 43                        	.db 4 << 4 | D_
09D64                           	note_length M1, S32
09D64 81                        	.db NOTE_LENGTH_CMD | M1 | S32
09D65                           	tie
09D65 0F                        	.db NOTE_MASK
09D66                           	rest
09D66 00                        	.db 0
09D67                           	instrument 21
09D67 D5                        	.db INSTRUMENT_CMD | 21
09D68                           	note_length M1, S16
09D68 82                        	.db NOTE_LENGTH_CMD | M1 | S16
09D69                           	note F_, 4
09D69 46                        	.db 4 << 4 | F_
09D6A                           	note E_, 4
09D6A 45                        	.db 4 << 4 | E_
09D6B                           	note D_, 4
09D6B 43                        	.db 4 << 4 | D_
09D6C                           	note C_, 4
09D6C 41                        	.db 4 << 4 | C_
09D6D                           	note B_, 3
09D6D 3C                        	.db 3 << 4 | B_
09D6E                           	note_length M1_5, S16
09D6E 8A                        	.db NOTE_LENGTH_CMD | M1_5 | S16
09D6F                           	note D_, 4
09D6F 43                        	.db 4 << 4 | D_
09D70                           	note_length M1, S32
09D70 81                        	.db NOTE_LENGTH_CMD | M1 | S32
09D71                           	rest
09D71 00                        	.db 0
09D72                           	volume_fade 0, 3
09D72 E3                        	.db FADE_CTRL_CMD | 0 | 3
09D73                           	note_length M1, S2
09D73 85                        	.db NOTE_LENGTH_CMD | M1 | S2
09D74                           	note G_, 4
09D74 48                        	.db 4 << 4 | G_
09D75                           	sound_ret
09D75 FF                        	.db SOUND_RET_CMD
09D76                           
09D76                           MusicData_FinalTrial_FDS:
09D76                           	instrument 17
09D76 D1                        	.db INSTRUMENT_CMD | 17
09D77                           	volume_const
09D77 EF                        	.db FADE_CTRL_CMD + F_IN - 1
09D78                           	note_length M1, S32
09D78 81                        	.db NOTE_LENGTH_CMD | M1 | S32
09D79                           	note B_, 3
09D79 3C                        	.db 3 << 4 | B_
09D7A                           	note_length M1_5, S8
09D7A 8B                        	.db NOTE_LENGTH_CMD | M1_5 | S8
09D7B                           	pitch_slide 4, C_, 4
09D7B A4 41                     	.db PITCH_BEND_CMD | 4, 4 << 4 | C_
09D7D                           	tie
09D7D 0F                        	.db NOTE_MASK
09D7E                           	note_length M1, S32
09D7E 81                        	.db NOTE_LENGTH_CMD | M1 | S32
09D7F                           	rest
09D7F 00                        	.db 0
09D80                           	instrument 18
09D80 D2                        	.db INSTRUMENT_CMD | 18
09D81                           	note_length M1, S16
09D81 82                        	.db NOTE_LENGTH_CMD | M1 | S16
09D82                           	note D_, 4
09D82 43                        	.db 4 << 4 | D_
09D83                           	note C_, 4
09D83 41                        	.db 4 << 4 | C_
09D84                           	note B_, 3
09D84 3C                        	.db 3 << 4 | B_
09D85                           	note A_, 3
09D85 3A                        	.db 3 << 4 | A_
09D86                           	note G_, 3
09D86 38                        	.db 3 << 4 | G_
09D87                           	note_length M1_5, S16
09D87 8A                        	.db NOTE_LENGTH_CMD | M1_5 | S16
09D88                           	note B_, 3
09D88 3C                        	.db 3 << 4 | B_
09D89                           	note_length M1, S32
09D89 81                        	.db NOTE_LENGTH_CMD | M1 | S32
09D8A                           	rest
09D8A 00                        	.db 0
09D8B                           	volume_fade 0, 3
09D8B E3                        	.db FADE_CTRL_CMD | 0 | 3
09D8C                           	note_length M1, S2
09D8C 85                        	.db NOTE_LENGTH_CMD | M1 | S2
09D8D                           	note D_, 4
09D8D 43                        	.db 4 << 4 | D_
09D8E                           	sound_ret
09D8E FF                        	.db SOUND_RET_CMD
09D8F                           .include "src/music/music-data/game-over.asm"
09D8F                           MusicData_GameOver_Pulse1:
09D8F                           	instrument 0
09D8F C0                        	.db INSTRUMENT_CMD | 0
09D90                           	volume_const
09D90 EF                        	.db FADE_CTRL_CMD + F_IN - 1
09D91                           	note_length M1, S16
09D91 82                        	.db NOTE_LENGTH_CMD | M1 | S16
09D92                           	note F_, 3
09D92 36                        	.db 3 << 4 | F_
09D93                           	note A_, 3
09D93 3A                        	.db 3 << 4 | A_
09D94                           	note C_, 4
09D94 41                        	.db 4 << 4 | C_
09D95                           	note F_, 3
09D95 36                        	.db 3 << 4 | F_
09D96                           	note A_, 3
09D96 3A                        	.db 3 << 4 | A_
09D97                           	note C#, 4
09D97 42                        	.db 4 << 4 | C#
09D98                           	note F_, 3
09D98 36                        	.db 3 << 4 | F_
09D99                           	note A_, 3
09D99 3A                        	.db 3 << 4 | A_
09D9A                           	note D_, 4
09D9A 43                        	.db 4 << 4 | D_
09D9B                           	note F_, 3
09D9B 36                        	.db 3 << 4 | F_
09D9C                           	note A_, 3
09D9C 3A                        	.db 3 << 4 | A_
09D9D                           	note D#, 4
09D9D 44                        	.db 4 << 4 | D#
09D9E                           	note F_, 3
09D9E 36                        	.db 3 << 4 | F_
09D9F                           	note A_, 3
09D9F 3A                        	.db 3 << 4 | A_
09DA0                           	note E_, 4
09DA0 45                        	.db 4 << 4 | E_
09DA1                           	note F_, 3
09DA1 36                        	.db 3 << 4 | F_
09DA2                           	note A_, 3
09DA2 3A                        	.db 3 << 4 | A_
09DA3                           	note F_, 4
09DA3 46                        	.db 4 << 4 | F_
09DA4                           	note_length M3, S16
09DA4 92                        	.db NOTE_LENGTH_CMD | M3 | S16
09DA5                           	tie
09DA5 0F                        	.db NOTE_MASK
09DA6                           	pitch_slide 1, D#, 4
09DA6 A1 44                     	.db PITCH_BEND_CMD | 1, 4 << 4 | D#
09DA8                           	tie
09DA8 0F                        	.db NOTE_MASK
09DA9                           	sound_ret
09DA9 FF                        	.db SOUND_RET_CMD
09DAA                           
09DAA                           MusicData_GameOver_Pulse2:
09DAA                           	instrument 21
09DAA D5                        	.db INSTRUMENT_CMD | 21
09DAB                           	volume_const
09DAB EF                        	.db FADE_CTRL_CMD + F_IN - 1
09DAC                           	note_length M3, S32
09DAC 91                        	.db NOTE_LENGTH_CMD | M3 | S32
09DAD                           	note C_, 3
09DAD 31                        	.db 3 << 4 | C_
09DAE                           	note C_, 3
09DAE 31                        	.db 3 << 4 | C_
09DAF                           	note_length M4_5, S32
09DAF 99                        	.db NOTE_LENGTH_CMD | M4_5 | S32
09DB0                           	note C_, 3
09DB0 31                        	.db 3 << 4 | C_
09DB1                           	note_length M3, S64
09DB1 90                        	.db NOTE_LENGTH_CMD | M3 | S64
09DB2                           	rest
09DB2 00                        	.db 0
09DB3                           	note_length M4_5, S32
09DB3 99                        	.db NOTE_LENGTH_CMD | M4_5 | S32
09DB4                           	note C_, 3
09DB4 31                        	.db 3 << 4 | C_
09DB5                           	note_length M3, S64
09DB5 90                        	.db NOTE_LENGTH_CMD | M3 | S64
09DB6                           	rest
09DB6 00                        	.db 0
09DB7                           	note_length M3, S32
09DB7 91                        	.db NOTE_LENGTH_CMD | M3 | S32
09DB8                           	note C_, 3
09DB8 31                        	.db 3 << 4 | C_
09DB9                           	instrument 0
09DB9 C0                        	.db INSTRUMENT_CMD | 0
09DBA                           	note_length M3, S16
09DBA 92                        	.db NOTE_LENGTH_CMD | M3 | S16
09DBB                           	note C_, 3
09DBB 31                        	.db 3 << 4 | C_
09DBC                           	note_length M3, S64
09DBC 90                        	.db NOTE_LENGTH_CMD | M3 | S64
09DBD                           	tie
09DBD 0F                        	.db NOTE_MASK
09DBE                           	rest
09DBE 00                        	.db 0
09DBF                           	note_length M3, S8
09DBF 93                        	.db NOTE_LENGTH_CMD | M3 | S8
09DC0                           	note C_, 3
09DC0 31                        	.db 3 << 4 | C_
09DC1                           	note_length M4_5, S32
09DC1 99                        	.db NOTE_LENGTH_CMD | M4_5 | S32
09DC2                           	tie
09DC2 0F                        	.db NOTE_MASK
09DC3                           	note_length M3, S64
09DC3 90                        	.db NOTE_LENGTH_CMD | M3 | S64
09DC4                           	rest
09DC4 00                        	.db 0
09DC5                           	sound_ret
09DC5 FF                        	.db SOUND_RET_CMD
09DC6                           
09DC6                           MusicData_GameOver_Hill:
09DC6                           	instrument 21
09DC6 D5                        	.db INSTRUMENT_CMD | 21
09DC7                           	note_length M3, S32
09DC7 91                        	.db NOTE_LENGTH_CMD | M3 | S32
09DC8                           	note F_, 2
09DC8 26                        	.db 2 << 4 | F_
09DC9                           	note F_, 3
09DC9 36                        	.db 3 << 4 | F_
09DCA                           	note_length M4_5, S32
09DCA 99                        	.db NOTE_LENGTH_CMD | M4_5 | S32
09DCB                           	note F_, 2
09DCB 26                        	.db 2 << 4 | F_
09DCC                           	note_length M3, S64
09DCC 90                        	.db NOTE_LENGTH_CMD | M3 | S64
09DCD                           	rest
09DCD 00                        	.db 0
09DCE                           	note_length M4_5, S32
09DCE 99                        	.db NOTE_LENGTH_CMD | M4_5 | S32
09DCF                           	note F_, 2
09DCF 26                        	.db 2 << 4 | F_
09DD0                           	note_length M3, S64
09DD0 90                        	.db NOTE_LENGTH_CMD | M3 | S64
09DD1                           	rest
09DD1 00                        	.db 0
09DD2                           	note_length M3, S32
09DD2 91                        	.db NOTE_LENGTH_CMD | M3 | S32
09DD3                           	note F_, 2
09DD3 26                        	.db 2 << 4 | F_
09DD4                           	instrument 0
09DD4 C0                        	.db INSTRUMENT_CMD | 0
09DD5                           	note_length M3, S16
09DD5 92                        	.db NOTE_LENGTH_CMD | M3 | S16
09DD6                           	note E_, 2
09DD6 25                        	.db 2 << 4 | E_
09DD7                           	note_length M3, S64
09DD7 90                        	.db NOTE_LENGTH_CMD | M3 | S64
09DD8                           	tie
09DD8 0F                        	.db NOTE_MASK
09DD9                           	rest
09DD9 00                        	.db 0
09DDA                           	note_length M3, S8
09DDA 93                        	.db NOTE_LENGTH_CMD | M3 | S8
09DDB                           	note F_, 2
09DDB 26                        	.db 2 << 4 | F_
09DDC                           	note_length M4_5, S32
09DDC 99                        	.db NOTE_LENGTH_CMD | M4_5 | S32
09DDD                           	tie
09DDD 0F                        	.db NOTE_MASK
09DDE                           	note_length M3, S64
09DDE 90                        	.db NOTE_LENGTH_CMD | M3 | S64
09DDF                           	rest
09DDF 00                        	.db 0
09DE0                           	sound_ret
09DE0 FF                        	.db SOUND_RET_CMD
09DE1                           
09DE1                           MusicData_GameOver_Noise:
09DE1                           	drum_envelope DR3, M3, S16
09DE1 F2                        	.db NOTE_LENGTH_CMD | DR3 | M3 | S16
09DE2                           	drum_note 14
09DE2 0E                        	.db 14
09DE3                           	drum_note 14
09DE3 0E                        	.db 14
09DE4                           	drum_note 14
09DE4 0E                        	.db 14
09DE5                           	drum_note 14
09DE5 0E                        	.db 14
09DE6                           	drum_note 14
09DE6 0E                        	.db 14
09DE7                           	drum_envelope DR3, M1, S16
09DE7 E2                        	.db NOTE_LENGTH_CMD | DR3 | M1 | S16
09DE8                           	drum_note 14
09DE8 0E                        	.db 14
09DE9                           	drum_note 14
09DE9 0E                        	.db 14
09DEA                           	drum_envelope DR3, M3, S8
09DEA F3                        	.db NOTE_LENGTH_CMD | DR3 | M3 | S8
09DEB                           	drum_note 14
09DEB 0E                        	.db 14
09DEC                           	drum_envelope DR3, M1, S16
09DEC E2                        	.db NOTE_LENGTH_CMD | DR3 | M1 | S16
09DED                           	rest
09DED 00                        	.db 0
09DEE                           	sound_ret
09DEE FF                        	.db SOUND_RET_CMD
09DEF                           
09DEF                           MusicData_GameOver_FDS:
09DEF                           	instrument 6
09DEF C6                        	.db INSTRUMENT_CMD | 6
09DF0                           	volume_const
09DF0 EF                        	.db FADE_CTRL_CMD + F_IN - 1
09DF1                           	note_length M3, S16
09DF1 92                        	.db NOTE_LENGTH_CMD | M3 | S16
09DF2                           	note F_, 2
09DF2 26                        	.db 2 << 4 | F_
09DF3                           	instrument 9
09DF3 C9                        	.db INSTRUMENT_CMD | 9
09DF4                           	note D#, 5
09DF4 54                        	.db 5 << 4 | D#
09DF5                           	note D#, 5
09DF5 54                        	.db 5 << 4 | D#
09DF6                           	note D#, 5
09DF6 54                        	.db 5 << 4 | D#
09DF7                           	note D#, 5
09DF7 54                        	.db 5 << 4 | D#
09DF8                           	note_length M1, S16
09DF8 82                        	.db NOTE_LENGTH_CMD | M1 | S16
09DF9                           	note D#, 5
09DF9 54                        	.db 5 << 4 | D#
09DFA                           	note A#, 4
09DFA 4B                        	.db 4 << 4 | A#
09DFB                           	note F_, 4
09DFB 46                        	.db 4 << 4 | F_
09DFC                           	note_length M3, S8
09DFC 93                        	.db NOTE_LENGTH_CMD | M3 | S8
09DFD                           	tie
09DFD 0F                        	.db NOTE_MASK
09DFE                           	sound_ret
09DFE FF                        	.db SOUND_RET_CMD
09DFF                           .include "src/music/music-data/hurry-up.asm"
09DFF                           MusicData_HurryUp_Pulse1:
09DFF                           	instrument 21
09DFF D5                        	.db INSTRUMENT_CMD | 21
09E00                           	volume_const
09E00 EF                        	.db FADE_CTRL_CMD + F_IN - 1
09E01                           	note_length M1, S16
09E01 82                        	.db NOTE_LENGTH_CMD | M1 | S16
09E02                           	note G_, 3
09E02 38                        	.db 3 << 4 | G_
09E03                           	note G#, 3
09E03 39                        	.db 3 << 4 | G#
09E04                           	note C_, 4
09E04 41                        	.db 4 << 4 | C_
09E05                           	note D#, 4
09E05 44                        	.db 4 << 4 | D#
09E06                           	note F_, 3
09E06 36                        	.db 3 << 4 | F_
09E07                           	note G_, 3
09E07 38                        	.db 3 << 4 | G_
09E08                           	note A#, 3
09E08 3B                        	.db 3 << 4 | A#
09E09                           	note D_, 4
09E09 43                        	.db 4 << 4 | D_
09E0A                           	note D#, 4
09E0A 44                        	.db 4 << 4 | D#
09E0B                           	note D_, 4
09E0B 43                        	.db 4 << 4 | D_
09E0C                           	note D#, 4
09E0C 44                        	.db 4 << 4 | D#
09E0D                           	note D_, 4
09E0D 43                        	.db 4 << 4 | D_
09E0E                           	note D#, 4
09E0E 44                        	.db 4 << 4 | D#
09E0F                           	note D_, 4
09E0F 43                        	.db 4 << 4 | D_
09E10                           	note F_, 4
09E10 46                        	.db 4 << 4 | F_
09E11                           	note_length M1_5, S16
09E11 8A                        	.db NOTE_LENGTH_CMD | M1_5 | S16
09E12                           	note G_, 4
09E12 48                        	.db 4 << 4 | G_
09E13                           	note_length M1, S32
09E13 81                        	.db NOTE_LENGTH_CMD | M1 | S32
09E14                           	rest
09E14 00                        	.db 0
09E15                           	sound_ret
09E15 FF                        	.db SOUND_RET_CMD
09E16                           
09E16                           MusicData_HurryUp_Pulse2:
09E16                           	instrument 3
09E16 C3                        	.db INSTRUMENT_CMD | 3
09E17                           	volume_const
09E17 EF                        	.db FADE_CTRL_CMD + F_IN - 1
09E18                           	note_length M1_5, S4
09E18 8C                        	.db NOTE_LENGTH_CMD | M1_5 | S4
09E19                           	note D#, 3
09E19 34                        	.db 3 << 4 | D#
09E1A                           	note_length M1, S8
09E1A 83                        	.db NOTE_LENGTH_CMD | M1 | S8
09E1B                           	note F_, 3
09E1B 36                        	.db 3 << 4 | F_
09E1C                           	note_length M1, S4
09E1C 84                        	.db NOTE_LENGTH_CMD | M1 | S4
09E1D                           	note G#, 3
09E1D 39                        	.db 3 << 4 | G#
09E1E                           	note A#, 3
09E1E 3B                        	.db 3 << 4 | A#
09E1F                           	note_length M1, S32
09E1F 81                        	.db NOTE_LENGTH_CMD | M1 | S32
09E20                           	tie
09E20 0F                        	.db NOTE_MASK
09E21                           	rest
09E21 00                        	.db 0
09E22                           	sound_ret
09E22 FF                        	.db SOUND_RET_CMD
09E23                           
09E23                           MusicData_HurryUp_Hill:
09E23                           	instrument 0
09E23 C0                        	.db INSTRUMENT_CMD | 0
09E24                           	note_length M1_5, S16
09E24 8A                        	.db NOTE_LENGTH_CMD | M1_5 | S16
09E25                           	note C_, 3
09E25 31                        	.db 3 << 4 | C_
09E26                           	note_length M1, S32
09E26 81                        	.db NOTE_LENGTH_CMD | M1 | S32
09E27                           	rest
09E27 00                        	.db 0
09E28                           	note_length M1_5, S16
09E28 8A                        	.db NOTE_LENGTH_CMD | M1_5 | S16
09E29                           	note C_, 3
09E29 31                        	.db 3 << 4 | C_
09E2A                           	note_length M1, S32
09E2A 81                        	.db NOTE_LENGTH_CMD | M1 | S32
09E2B                           	rest
09E2B 00                        	.db 0
09E2C                           	note_length M1_5, S16
09E2C 8A                        	.db NOTE_LENGTH_CMD | M1_5 | S16
09E2D                           	note C_, 3
09E2D 31                        	.db 3 << 4 | C_
09E2E                           	note_length M1, S32
09E2E 81                        	.db NOTE_LENGTH_CMD | M1 | S32
09E2F                           	rest
09E2F 00                        	.db 0
09E30                           	note_length M1_5, S16
09E30 8A                        	.db NOTE_LENGTH_CMD | M1_5 | S16
09E31                           	note G_, 3
09E31 38                        	.db 3 << 4 | G_
09E32                           	note_length M1, S32
09E32 81                        	.db NOTE_LENGTH_CMD | M1 | S32
09E33                           	rest
09E33 00                        	.db 0
09E34                           	note_length M1_5, S8
09E34 8B                        	.db NOTE_LENGTH_CMD | M1_5 | S8
09E35                           	note G#, 3
09E35 39                        	.db 3 << 4 | G#
09E36                           	note_length M1, S32
09E36 81                        	.db NOTE_LENGTH_CMD | M1 | S32
09E37                           	tie
09E37 0F                        	.db NOTE_MASK
09E38                           	rest
09E38 00                        	.db 0
09E39                           	note_length M1_5, S16
09E39 8A                        	.db NOTE_LENGTH_CMD | M1_5 | S16
09E3A                           	note G_, 3
09E3A 38                        	.db 3 << 4 | G_
09E3B                           	note_length M1, S32
09E3B 81                        	.db NOTE_LENGTH_CMD | M1 | S32
09E3C                           	rest
09E3C 00                        	.db 0
09E3D                           	note G_, 3
09E3D 38                        	.db 3 << 4 | G_
09E3E                           	rest
09E3E 00                        	.db 0
09E3F                           	note_length M1_5, S16
09E3F 8A                        	.db NOTE_LENGTH_CMD | M1_5 | S16
09E40                           	note G_, 3
09E40 38                        	.db 3 << 4 | G_
09E41                           	note_length M1, S32
09E41 81                        	.db NOTE_LENGTH_CMD | M1 | S32
09E42                           	rest
09E42 00                        	.db 0
09E43                           	sound_ret
09E43 FF                        	.db SOUND_RET_CMD
09E44                           
09E44                           MusicData_HurryUp_FDS:
09E44                           	instrument 6
09E44 C6                        	.db INSTRUMENT_CMD | 6
09E45                           	volume_const
09E45 EF                        	.db FADE_CTRL_CMD + F_IN - 1
09E46                           	note_length M1, S4
09E46 84                        	.db NOTE_LENGTH_CMD | M1 | S4
09E47                           	note F_, 2
09E47 26                        	.db 2 << 4 | F_
09E48                           	instrument 0
09E48 C0                        	.db INSTRUMENT_CMD | 0
09E49                           	note C#, 4
09E49 42                        	.db 4 << 4 | C#
09E4A                           	instrument 6
09E4A C6                        	.db INSTRUMENT_CMD | 6
09E4B                           	note F_, 2
09E4B 26                        	.db 2 << 4 | F_
09E4C                           	instrument 0
09E4C C0                        	.db INSTRUMENT_CMD | 0
09E4D                           	note_length M1, S8
09E4D 83                        	.db NOTE_LENGTH_CMD | M1 | S8
09E4E                           	note C_, 5
09E4E 51                        	.db 5 << 4 | C_
09E4F                           	note_length M1, S16
09E4F 82                        	.db NOTE_LENGTH_CMD | M1 | S16
09E50                           	note C_, 5
09E50 51                        	.db 5 << 4 | C_
09E51                           	note_length M1, S8
09E51 83                        	.db NOTE_LENGTH_CMD | M1 | S8
09E52                           	note C_, 5
09E52 51                        	.db 5 << 4 | C_
09E53                           	sound_ret
09E53 FF                        	.db SOUND_RET_CMD
09E54                           .include "src/music/music-data/level-clear.asm"
09E54                           MusicData_LevelClear_Pulse1:
09E54                           	instrument 21
09E54 D5                        	.db INSTRUMENT_CMD | 21
09E55                           	volume_const
09E55 EF                        	.db FADE_CTRL_CMD + F_IN - 1
09E56                           	note_length M1, S16
09E56 82                        	.db NOTE_LENGTH_CMD | M1 | S16
09E57                           	note E_, 2
09E57 25                        	.db 2 << 4 | E_
09E58                           	note A_, 2
09E58 2A                        	.db 2 << 4 | A_
09E59                           	note B_, 2
09E59 2C                        	.db 2 << 4 | B_
09E5A                           	note C#, 3
09E5A 32                        	.db 3 << 4 | C#
09E5B                           	note B_, 2
09E5B 2C                        	.db 2 << 4 | B_
09E5C                           	note_length M1, S8
09E5C 83                        	.db NOTE_LENGTH_CMD | M1 | S8
09E5D                           	note A_, 2
09E5D 2A                        	.db 2 << 4 | A_
09E5E                           	note_length M1, S16
09E5E 82                        	.db NOTE_LENGTH_CMD | M1 | S16
09E5F                           	note A_, 2
09E5F 2A                        	.db 2 << 4 | A_
09E60                           	note C#, 3
09E60 32                        	.db 3 << 4 | C#
09E61                           	note_length M1, S4
09E61 84                        	.db NOTE_LENGTH_CMD | M1 | S4
09E62                           	note C#, 3
09E62 32                        	.db 3 << 4 | C#
09E63                           	sound_ret
09E63 FF                        	.db SOUND_RET_CMD
09E64                           
09E64                           MusicData_LevelClear_Pulse2:
09E64                           	instrument 21
09E64 D5                        	.db INSTRUMENT_CMD | 21
09E65                           	volume_const
09E65 EF                        	.db FADE_CTRL_CMD + F_IN - 1
09E66                           	note_length M1_5, S4
09E66 8C                        	.db NOTE_LENGTH_CMD | M1_5 | S4
09E67                           	rest
09E67 00                        	.db 0
09E68                           	note_length M1, S16
09E68 82                        	.db NOTE_LENGTH_CMD | M1 | S16
09E69                           	rest
09E69 00                        	.db 0
09E6A                           	note C#, 3
09E6A 32                        	.db 3 << 4 | C#
09E6B                           	note E_, 3
09E6B 35                        	.db 3 << 4 | E_
09E6C                           	note_length M1, S4
09E6C 84                        	.db NOTE_LENGTH_CMD | M1 | S4
09E6D                           	note E_, 3
09E6D 35                        	.db 3 << 4 | E_
09E6E                           	sound_ret
09E6E FF                        	.db SOUND_RET_CMD
09E6F                           
09E6F                           MusicData_LevelClear_Hill:
09E6F                           	instrument 21
09E6F D5                        	.db INSTRUMENT_CMD | 21
09E70                           	note_length M1, S16
09E70 82                        	.db NOTE_LENGTH_CMD | M1 | S16
09E71                           	note A_, 2
09E71 2A                        	.db 2 << 4 | A_
09E72                           	note A_, 2
09E72 2A                        	.db 2 << 4 | A_
09E73                           	note A_, 2
09E73 2A                        	.db 2 << 4 | A_
09E74                           	note A_, 2
09E74 2A                        	.db 2 << 4 | A_
09E75                           	note A_, 2
09E75 2A                        	.db 2 << 4 | A_
09E76                           	note_length M1, S8
09E76 83                        	.db NOTE_LENGTH_CMD | M1 | S8
09E77                           	note A_, 2
09E77 2A                        	.db 2 << 4 | A_
09E78                           	note_length M1, S16
09E78 82                        	.db NOTE_LENGTH_CMD | M1 | S16
09E79                           	note A_, 2
09E79 2A                        	.db 2 << 4 | A_
09E7A                           	note_length M1, S4
09E7A 84                        	.db NOTE_LENGTH_CMD | M1 | S4
09E7B                           	note A_, 2
09E7B 2A                        	.db 2 << 4 | A_
09E7C                           	note_length M1, S16
09E7C 82                        	.db NOTE_LENGTH_CMD | M1 | S16
09E7D                           	rest
09E7D 00                        	.db 0
09E7E                           	sound_ret
09E7E FF                        	.db SOUND_RET_CMD
09E7F                           
09E7F                           MusicData_LevelClear_FDS:
09E7F                           	instrument 1
09E7F C1                        	.db INSTRUMENT_CMD | 1
09E80                           	note_length M1, S16
09E80 82                        	.db NOTE_LENGTH_CMD | M1 | S16
09E81                           	note E_, 4
09E81 45                        	.db 4 << 4 | E_
09E82                           	note E_, 4
09E82 45                        	.db 4 << 4 | E_
09E83                           	note E_, 4
09E83 45                        	.db 4 << 4 | E_
09E84                           	tie
09E84 0F                        	.db NOTE_MASK
09E85                           	note E_, 4
09E85 45                        	.db 4 << 4 | E_
09E86                           	note E_, 4
09E86 45                        	.db 4 << 4 | E_
09E87                           	note E_, 4
09E87 45                        	.db 4 << 4 | E_
09E88                           	note E_, 4
09E88 45                        	.db 4 << 4 | E_
09E89                           	note A#, 3
09E89 3B                        	.db 3 << 4 | A#
09E8A                           	note_length M1, S8
09E8A 83                        	.db NOTE_LENGTH_CMD | M1 | S8
09E8B                           	note A#, 3
09E8B 3B                        	.db 3 << 4 | A#
09E8C                           	sound_ret09E8C FF                        	.db SOUND_RET_CMD
09E8D                           .include "src/music/music-data/lucky-slot.asm"
09E8D                           MusicData_LuckySlot_Pulse1_1:
09E8D                           	instrument 2
09E8D C2                        	.db INSTRUMENT_CMD | 2
09E8E                           	volume_const
09E8E EF                        	.db FADE_CTRL_CMD + F_IN - 1
09E8F                           	note_length M1, S4
09E8F 84                        	.db NOTE_LENGTH_CMD | M1 | S4
09E90                           	note A_, 3
09E90 3A                        	.db 3 << 4 | A_
09E91                           	note_length M1_5, S8
09E91 8B                        	.db NOTE_LENGTH_CMD | M1_5 | S8
09E92                           	note C#, 4
09E92 42                        	.db 4 << 4 | C#
09E93                           	pitch_slide 2, G#, 4
09E93 A2 49                     	.db PITCH_BEND_CMD | 2, 4 << 4 | G#
09E95                           	note F#, 4
09E95 47                        	.db 4 << 4 | F#
09E96                           	note_length M1_5, S4
09E96 8C                        	.db NOTE_LENGTH_CMD | M1_5 | S4
09E97                           	tie
09E97 0F                        	.db NOTE_MASK
09E98                           	sound_ret
09E98 FF                        	.db SOUND_RET_CMD
09E99                           
09E99                           MusicData_LuckySlot_Pulse1_2
09E99                           	instrument 2
09E99 C2                        	.db INSTRUMENT_CMD | 2
09E9A                           	volume_const
09E9A EF                        	.db FADE_CTRL_CMD + F_IN - 1
09E9B                           	note_length M1, S32
09E9B 81                        	.db NOTE_LENGTH_CMD | M1 | S32
09E9C                           	note A_, 4
09E9C 4A                        	.db 4 << 4 | A_
09E9D                           	rest
09E9D 00                        	.db 0
09E9E                           	note G#, 4
09E9E 49                        	.db 4 << 4 | G#
09E9F                           	rest
09E9F 00                        	.db 0
09EA0                           	note F#, 4
09EA0 47                        	.db 4 << 4 | F#
09EA1                           	rest
09EA1 00                        	.db 0
09EA2                           	note E_, 4
09EA2 45                        	.db 4 << 4 | E_
09EA3                           	rest
09EA3 00                        	.db 0
09EA4                           	note G#, 4
09EA4 49                        	.db 4 << 4 | G#
09EA5                           	rest
09EA5 00                        	.db 0
09EA6                           	note F#, 4
09EA6 47                        	.db 4 << 4 | F#
09EA7                           	rest
09EA7 00                        	.db 0
09EA8                           	note E_, 4
09EA8 45                        	.db 4 << 4 | E_
09EA9                           	rest
09EA9 00                        	.db 0
09EAA                           	note D_, 4
09EAA 43                        	.db 4 << 4 | D_
09EAB                           	rest
09EAB 00                        	.db 0
09EAC                           	note F#, 4
09EAC 47                        	.db 4 << 4 | F#
09EAD                           	rest
09EAD 00                        	.db 0
09EAE                           	note E_, 4
09EAE 45                        	.db 4 << 4 | E_
09EAF                           	rest
09EAF 00                        	.db 0
09EB0                           	note D_, 4
09EB0 43                        	.db 4 << 4 | D_
09EB1                           	rest
09EB1 00                        	.db 0
09EB2                           	note C#, 4
09EB2 42                        	.db 4 << 4 | C#
09EB3                           	rest
09EB3 00                        	.db 0
09EB4                           	note E_, 4
09EB4 45                        	.db 4 << 4 | E_
09EB5                           	rest
09EB5 00                        	.db 0
09EB6                           	note D_, 4
09EB6 43                        	.db 4 << 4 | D_
09EB7                           	rest
09EB7 00                        	.db 0
09EB8                           	note C#, 4
09EB8 42                        	.db 4 << 4 | C#
09EB9                           	rest
09EB9 00                        	.db 0
09EBA                           	note B_, 3
09EBA 3C                        	.db 3 << 4 | B_
09EBB                           	rest
09EBB 00                        	.db 0
09EBC                           	note A_, 3
09EBC 3A                        	.db 3 << 4 | A_
09EBD                           	rest
09EBD 00                        	.db 0
09EBE                           	note A_, 3
09EBE 3A                        	.db 3 << 4 | A_
09EBF                           	rest
09EBF 00                        	.db 0
09EC0                           	note A_, 3
09EC0 3A                        	.db 3 << 4 | A_
09EC1                           	rest
09EC1 00                        	.db 0
09EC2                           	note B_, 3
09EC2 3C                        	.db 3 << 4 | B_
09EC3                           	rest
09EC3 00                        	.db 0
09EC4                           	note_length M1_5, S2
09EC4 8D                        	.db NOTE_LENGTH_CMD | M1_5 | S2
09EC5                           	rest
09EC5 00                        	.db 0
09EC6                           	sound_ret
09EC6 FF                        	.db SOUND_RET_CMD
09EC7                           
09EC7                           MusicData_LuckySlot_Pulse2:
09EC7                           	instrument 5
09EC7 C5                        	.db INSTRUMENT_CMD | 5
09EC8                           	volume_const
09EC8 EF                        	.db FADE_CTRL_CMD + F_IN - 1
09EC9                           	note_length M1_5, S4
09EC9 8C                        	.db NOTE_LENGTH_CMD | M1_5 | S4
09ECA                           	note A_, 3
09ECA 3A                        	.db 3 << 4 | A_
09ECB                           	note_length M1_5, S8
09ECB 8B                        	.db NOTE_LENGTH_CMD | M1_5 | S8
09ECC                           	note C#, 4
09ECC 42                        	.db 4 << 4 | C#
09ECD                           	pitch_slide 2, G#, 4
09ECD A2 49                     	.db PITCH_BEND_CMD | 2, 4 << 4 | G#
09ECF                           	note F#, 4
09ECF 47                        	.db 4 << 4 | F#
09ED0                           	note_length M1_5, S4
09ED0 8C                        	.db NOTE_LENGTH_CMD | M1_5 | S4
09ED1                           	tie
09ED1 0F                        	.db NOTE_MASK
09ED2                           	note_length M1, S4
09ED2 84                        	.db NOTE_LENGTH_CMD | M1 | S4
09ED3                           	note A_, 3
09ED3 3A                        	.db 3 << 4 | A_
09ED4                           	note_length M1_5, S8
09ED4 8B                        	.db NOTE_LENGTH_CMD | M1_5 | S8
09ED5                           	note C#, 4
09ED5 42                        	.db 4 << 4 | C#
09ED6                           	pitch_slide 2, G#, 4
09ED6 A2 49                     	.db PITCH_BEND_CMD | 2, 4 << 4 | G#
09ED8                           	note F#, 4
09ED8 47                        	.db 4 << 4 | F#
09ED9                           	note_length M1_5, S4
09ED9 8C                        	.db NOTE_LENGTH_CMD | M1_5 | S4
09EDA                           	tie
09EDA 0F                        	.db NOTE_MASK
09EDB                           
09EDB                           	note_length M1, S4
09EDB 84                        	.db NOTE_LENGTH_CMD | M1 | S4
09EDC                           	note A_, 3
09EDC 3A                        	.db 3 << 4 | A_
09EDD                           	note_length M1_5, S8
09EDD 8B                        	.db NOTE_LENGTH_CMD | M1_5 | S8
09EDE                           	note C#, 4
09EDE 42                        	.db 4 << 4 | C#
09EDF                           	pitch_slide 2, G#, 4
09EDF A2 49                     	.db PITCH_BEND_CMD | 2, 4 << 4 | G#
09EE1                           	note F#, 4
09EE1 47                        	.db 4 << 4 | F#
09EE2                           	note_length M1_5, S4
09EE2 8C                        	.db NOTE_LENGTH_CMD | M1_5 | S4
09EE3                           	tie
09EE3 0F                        	.db NOTE_MASK
09EE4                           	note_length M1, S4
09EE4 84                        	.db NOTE_LENGTH_CMD | M1 | S4
09EE5                           	note A_, 3
09EE5 3A                        	.db 3 << 4 | A_
09EE6                           	note_length M1_5, S8
09EE6 8B                        	.db NOTE_LENGTH_CMD | M1_5 | S8
09EE7                           	note C#, 4
09EE7 42                        	.db 4 << 4 | C#
09EE8                           	pitch_slide 2, G#, 4
09EE8 A2 49                     	.db PITCH_BEND_CMD | 2, 4 << 4 | G#
09EEA                           	note F#, 4
09EEA 47                        	.db 4 << 4 | F#
09EEB                           	note_length M1_5, S4
09EEB 8C                        	.db NOTE_LENGTH_CMD | M1_5 | S4
09EEC                           	tie
09EEC 0F                        	.db NOTE_MASK
09EED                           
09EED                           	note_length M1, S32
09EED 81                        	.db NOTE_LENGTH_CMD | M1 | S32
09EEE                           	note A_, 4
09EEE 4A                        	.db 4 << 4 | A_
09EEF                           	rest
09EEF 00                        	.db 0
09EF0                           	note G#, 4
09EF0 49                        	.db 4 << 4 | G#
09EF1                           	rest
09EF1 00                        	.db 0
09EF2                           	note F#, 4
09EF2 47                        	.db 4 << 4 | F#
09EF3                           	rest
09EF3 00                        	.db 0
09EF4                           	note E_, 4
09EF4 45                        	.db 4 << 4 | E_
09EF5                           	rest
09EF5 00                        	.db 0
09EF6                           	note G#, 4
09EF6 49                        	.db 4 << 4 | G#
09EF7                           	rest
09EF7 00                        	.db 0
09EF8                           	note F#, 4
09EF8 47                        	.db 4 << 4 | F#
09EF9                           	rest
09EF9 00                        	.db 0
09EFA                           	note E_, 4
09EFA 45                        	.db 4 << 4 | E_
09EFB                           	rest
09EFB 00                        	.db 0
09EFC                           	note D_, 4
09EFC 43                        	.db 4 << 4 | D_
09EFD                           	rest
09EFD 00                        	.db 0
09EFE                           	note F#, 4
09EFE 47                        	.db 4 << 4 | F#
09EFF                           	rest
09EFF 00                        	.db 0
09F00                           	note E_, 4
09F00 45                        	.db 4 << 4 | E_
09F01                           	rest
09F01 00                        	.db 0
09F02                           	note D_, 4
09F02 43                        	.db 4 << 4 | D_
09F03                           	rest
09F03 00                        	.db 0
09F04                           	note C#, 4
09F04 42                        	.db 4 << 4 | C#
09F05                           	rest
09F05 00                        	.db 0
09F06                           	note E_, 4
09F06 45                        	.db 4 << 4 | E_
09F07                           	rest
09F07 00                        	.db 0
09F08                           	note D_, 4
09F08 43                        	.db 4 << 4 | D_
09F09                           	rest
09F09 00                        	.db 0
09F0A                           	note C#, 4
09F0A 42                        	.db 4 << 4 | C#
09F0B                           	rest
09F0B 00                        	.db 0
09F0C                           	note B_, 3
09F0C 3C                        	.db 3 << 4 | B_
09F0D                           	rest
09F0D 00                        	.db 0
09F0E                           	note A_, 3
09F0E 3A                        	.db 3 << 4 | A_
09F0F                           	rest
09F0F 00                        	.db 0
09F10                           	note A_, 3
09F10 3A                        	.db 3 << 4 | A_
09F11                           	rest
09F11 00                        	.db 0
09F12                           	note A_, 3
09F12 3A                        	.db 3 << 4 | A_
09F13                           	rest
09F13 00                        	.db 0
09F14                           	note B_, 3
09F14 3C                        	.db 3 << 4 | B_
09F15                           	rest
09F15 00                        	.db 0
09F16                           	note_length M1, S8
09F16 83                        	.db NOTE_LENGTH_CMD | M1 | S8
09F17                           	rest
09F17 00                        	.db 0
09F18                           	note_length M1, S2
09F18 85                        	.db NOTE_LENGTH_CMD | M1 | S2
09F19                           	rest
09F19 00                        	.db 0
09F1A                           	sound_ret
09F1A FF                        	.db SOUND_RET_CMD
09F1B                           
09F1B                           MusicData_LuckySlot_Hill_1:
09F1B                           	instrument 0
09F1B C0                        	.db INSTRUMENT_CMD | 0
09F1C                           	note_length M1, S8
09F1C 83                        	.db NOTE_LENGTH_CMD | M1 | S8
09F1D                           	note A_, 3
09F1D 3A                        	.db 3 << 4 | A_
09F1E                           	note_length M1_5, S16
09F1E 8A                        	.db NOTE_LENGTH_CMD | M1_5 | S16
09F1F                           	tie
09F1F 0F                        	.db NOTE_MASK
09F20                           	note_length M1, S32
09F20 81                        	.db NOTE_LENGTH_CMD | M1 | S32
09F21                           	rest
09F21 00                        	.db 0
09F22                           	note_length M1, S8
09F22 83                        	.db NOTE_LENGTH_CMD | M1 | S8
09F23                           	note A_, 3
09F23 3A                        	.db 3 << 4 | A_
09F24                           	note_length M1, S32
09F24 81                        	.db NOTE_LENGTH_CMD | M1 | S32
09F25                           	tie
09F25 0F                        	.db NOTE_MASK
09F26                           	rest
09F26 00                        	.db 0
09F27                           	note_length M1, S8
09F27 83                        	.db NOTE_LENGTH_CMD | M1 | S8
09F28                           	note A_, 3
09F28 3A                        	.db 3 << 4 | A_
09F29                           	note_length M1_5, S16
09F29 8A                        	.db NOTE_LENGTH_CMD | M1_5 | S16
09F2A                           	tie
09F2A 0F                        	.db NOTE_MASK
09F2B                           	rest
09F2B 00                        	.db 0
09F2C                           	note_length M1, S32
09F2C 81                        	.db NOTE_LENGTH_CMD | M1 | S32
09F2D                           	note A_, 3
09F2D 3A                        	.db 3 << 4 | A_
09F2E                           	note_length M1_5, S16
09F2E 8A                        	.db NOTE_LENGTH_CMD | M1_5 | S16
09F2F                           	rest
09F2F 00                        	.db 0
09F30                           	note_length M1, S32
09F30 81                        	.db NOTE_LENGTH_CMD | M1 | S32
09F31                           	note A_, 3
09F31 3A                        	.db 3 << 4 | A_
09F32                           	note_length M1_5, S16
09F32 8A                        	.db NOTE_LENGTH_CMD | M1_5 | S16
09F33                           	rest
09F33 00                        	.db 0
09F34                           	sound_ret
09F34 FF                        	.db SOUND_RET_CMD
09F35                           
09F35                           MusicData_LuckySlot_Hill_2:
09F35                           	instrument 0
09F35 C0                        	.db INSTRUMENT_CMD | 0
09F36                           	note_length M1, S32
09F36 81                        	.db NOTE_LENGTH_CMD | M1 | S32
09F37                           	note A_, 4
09F37 4A                        	.db 4 << 4 | A_
09F38                           	rest
09F38 00                        	.db 0
09F39                           	note G#, 4
09F39 49                        	.db 4 << 4 | G#
09F3A                           	rest
09F3A 00                        	.db 0
09F3B                           	note F#, 4
09F3B 47                        	.db 4 << 4 | F#
09F3C                           	rest
09F3C 00                        	.db 0
09F3D                           	note E_, 4
09F3D 45                        	.db 4 << 4 | E_
09F3E                           	rest
09F3E 00                        	.db 0
09F3F                           	note G#, 4
09F3F 49                        	.db 4 << 4 | G#
09F40                           	rest
09F40 00                        	.db 0
09F41                           	note F#, 4
09F41 47                        	.db 4 << 4 | F#
09F42                           	rest
09F42 00                        	.db 0
09F43                           	note E_, 4
09F43 45                        	.db 4 << 4 | E_
09F44                           	rest
09F44 00                        	.db 0
09F45                           	note D_, 4
09F45 43                        	.db 4 << 4 | D_
09F46                           	rest
09F46 00                        	.db 0
09F47                           	note F#, 4
09F47 47                        	.db 4 << 4 | F#
09F48                           	rest
09F48 00                        	.db 0
09F49                           	note E_, 4
09F49 45                        	.db 4 << 4 | E_
09F4A                           	rest
09F4A 00                        	.db 0
09F4B                           	note D_, 4
09F4B 43                        	.db 4 << 4 | D_
09F4C                           	rest
09F4C 00                        	.db 0
09F4D                           	note C#, 4
09F4D 42                        	.db 4 << 4 | C#
09F4E                           	rest
09F4E 00                        	.db 0
09F4F                           	note E_, 4
09F4F 45                        	.db 4 << 4 | E_
09F50                           	rest
09F50 00                        	.db 0
09F51                           	note D_, 4
09F51 43                        	.db 4 << 4 | D_
09F52                           	rest
09F52 00                        	.db 0
09F53                           	note C#, 4
09F53 42                        	.db 4 << 4 | C#
09F54                           	rest
09F54 00                        	.db 0
09F55                           	note B_, 3
09F55 3C                        	.db 3 << 4 | B_
09F56                           	rest
09F56 00                        	.db 0
09F57                           	note A_, 3
09F57 3A                        	.db 3 << 4 | A_
09F58                           	rest
09F58 00                        	.db 0
09F59                           	note A_, 3
09F59 3A                        	.db 3 << 4 | A_
09F5A                           	rest
09F5A 00                        	.db 0
09F5B                           	note A_, 3
09F5B 3A                        	.db 3 << 4 | A_
09F5C                           	rest
09F5C 00                        	.db 0
09F5D                           	note B_, 3
09F5D 3C                        	.db 3 << 4 | B_
09F5E                           	rest
09F5E 00                        	.db 0
09F5F                           	note_length M1_5, S2
09F5F 8D                        	.db NOTE_LENGTH_CMD | M1_5 | S2
09F60                           	rest
09F60 00                        	.db 0
09F61                           	sound_ret
09F61 FF                        	.db SOUND_RET_CMD
09F62                           
09F62                           MusicData_LuckySlot_Noise:
09F62                           	drum_envelope DR2, M1, S16
09F62 C2                        	.db NOTE_LENGTH_CMD | DR2 | M1 | S16
09F63                           	drum_note 1
09F63 01                        	.db 1
09F64                           	drum_envelope DR1, M1, S16
09F64 A2                        	.db NOTE_LENGTH_CMD | DR1 | M1 | S16
09F65                           	drum_note 1
09F65 01                        	.db 1
09F66                           	drum_note 1
09F66 01                        	.db 1
09F67                           	drum_note 1
09F67 01                        	.db 1
09F68                           	sound_ret
09F68 FF                        	.db SOUND_RET_CMD
09F69                           
09F69                           MusicData_LuckySlot_FDS_1:
09F69                           	instrument 6
09F69 C6                        	.db INSTRUMENT_CMD | 6
09F6A                           	volume_const
09F6A EF                        	.db FADE_CTRL_CMD + F_IN - 1
09F6B                           	note_length M1, S4
09F6B 84                        	.db NOTE_LENGTH_CMD | M1 | S4
09F6C                           	note F_, 2
09F6C 26                        	.db 2 << 4 | F_
09F6D                           	note_length M1_5, S8
09F6D 8B                        	.db NOTE_LENGTH_CMD | M1_5 | S8
09F6E                           	note F_, 2
09F6E 26                        	.db 2 << 4 | F_
09F6F                           	note_length M1, S16
09F6F 82                        	.db NOTE_LENGTH_CMD | M1 | S16
09F70                           	note F_, 2
09F70 26                        	.db 2 << 4 | F_
09F71                           	note_length M1, S4
09F71 84                        	.db NOTE_LENGTH_CMD | M1 | S4
09F72                           	tie
09F72 0F                        	.db NOTE_MASK
09F73                           	instrument 9
09F73 C9                        	.db INSTRUMENT_CMD | 9
09F74                           	note_length M1, S8
09F74 83                        	.db NOTE_LENGTH_CMD | M1 | S8
09F75                           	note D#, 5
09F75 54                        	.db 5 << 4 | D#
09F76                           	note D#, 5
09F76 54                        	.db 5 << 4 | D#
09F77                           	instrument 6
09F77 C6                        	.db INSTRUMENT_CMD | 6
09F78                           	note_length M1, S4
09F78 84                        	.db NOTE_LENGTH_CMD | M1 | S4
09F79                           	note F_, 2
09F79 26                        	.db 2 << 4 | F_
09F7A                           	note_length M1_5, S8
09F7A 8B                        	.db NOTE_LENGTH_CMD | M1_5 | S8
09F7B                           	note F_, 2
09F7B 26                        	.db 2 << 4 | F_
09F7C                           	note_length M1, S16
09F7C 82                        	.db NOTE_LENGTH_CMD | M1 | S16
09F7D                           	note F_, 2
09F7D 26                        	.db 2 << 4 | F_
09F7E                           	note_length M1, S4
09F7E 84                        	.db NOTE_LENGTH_CMD | M1 | S4
09F7F                           	tie
09F7F 0F                        	.db NOTE_MASK
09F80                           	instrument 9
09F80 C9                        	.db INSTRUMENT_CMD | 9
09F81                           	note_length M1, S16
09F81 82                        	.db NOTE_LENGTH_CMD | M1 | S16
09F82                           	note D#, 5
09F82 54                        	.db 5 << 4 | D#
09F83                           	note D#, 5
09F83 54                        	.db 5 << 4 | D#
09F84                           	note D#, 5
09F84 54                        	.db 5 << 4 | D#
09F85                           	note D#, 5
09F85 54                        	.db 5 << 4 | D#
09F86                           	sound_ret
09F86 FF                        	.db SOUND_RET_CMD
09F87                           
09F87                           MusicData_LuckySlot_FDS_2:
09F87                           	instrument 9
09F87 C9                        	.db INSTRUMENT_CMD | 9
09F88                           	note_length M1, S16
09F88 82                        	.db NOTE_LENGTH_CMD | M1 | S16
09F89                           	note D#, 5
09F89 54                        	.db 5 << 4 | D#
09F8A                           	tie
09F8A 0F                        	.db NOTE_MASK
09F8B                           	note D#, 5
09F8B 54                        	.db 5 << 4 | D#
09F8C                           	note D#, 5
09F8C 54                        	.db 5 << 4 | D#
09F8D                           	note D#, 5
09F8D 54                        	.db 5 << 4 | D#
09F8E                           	tie
09F8E 0F                        	.db NOTE_MASK
09F8F                           	note D#, 5
09F8F 54                        	.db 5 << 4 | D#
09F90                           	note D#, 5
09F90 54                        	.db 5 << 4 | D#
09F91                           	note D#, 5
09F91 54                        	.db 5 << 4 | D#
09F92                           	tie
09F92 0F                        	.db NOTE_MASK
09F93                           	note D#, 5
09F93 54                        	.db 5 << 4 | D#
09F94                           	note D#, 5
09F94 54                        	.db 5 << 4 | D#
09F95                           	note D#, 5
09F95 54                        	.db 5 << 4 | D#
09F96                           	tie
09F96 0F                        	.db NOTE_MASK
09F97                           	note D#, 5
09F97 54                        	.db 5 << 4 | D#
09F98                           	note D#, 5
09F98 54                        	.db 5 << 4 | D#
09F99                           	note D#, 5
09F99 54                        	.db 5 << 4 | D#
09F9A                           	note D#, 5
09F9A 54                        	.db 5 << 4 | D#
09F9B                           	note D#, 5
09F9B 54                        	.db 5 << 4 | D#
09F9C                           	note D#, 5
09F9C 54                        	.db 5 << 4 | D#
09F9D                           	tie
09F9D 0F                        	.db NOTE_MASK
09F9E                           	note D#, 5
09F9E 54                        	.db 5 << 4 | D#
09F9F                           	note_length M1, S8
09F9F 83                        	.db NOTE_LENGTH_CMD | M1 | S8
09FA0                           	note D#, 5
09FA0 54                        	.db 5 << 4 | D#
09FA1                           	note D#, 5
09FA1 54                        	.db 5 << 4 | D#
09FA2                           	note_length M1, S16
09FA2 82                        	.db NOTE_LENGTH_CMD | M1 | S16
09FA3                           	note D#, 5
09FA3 54                        	.db 5 << 4 | D#
09FA4                           	note D#, 5
09FA4 54                        	.db 5 << 4 | D#
09FA5                           	tie
09FA5 0F                        	.db NOTE_MASK
09FA6                           	note D#, 5
09FA6 54                        	.db 5 << 4 | D#
09FA7                           	note_length M1, S8
09FA7 83                        	.db NOTE_LENGTH_CMD | M1 | S8
09FA8                           	note D#, 5
09FA8 54                        	.db 5 << 4 | D#
09FA9                           	sound_ret
09FA9 FF                        	.db SOUND_RET_CMD
09FAA                           .include "src/music/music-data/menu.asm"
09FAA                           MusicData_Menu_Pulse1:
09FAA                           	instrument 10
09FAA CA                        	.db INSTRUMENT_CMD | 10
09FAB                           	volume_fade 1, 5
09FAB E5                        	.db FADE_CTRL_CMD | 1 | 5
09FAC                           	note_length M4_5, S8
09FAC 9B                        	.db NOTE_LENGTH_CMD | M4_5 | S8
09FAD                           	note D_, 4
09FAD 43                        	.db 4 << 4 | D_
09FAE                           	sound_ret
09FAE FF                        	.db SOUND_RET_CMD
09FAF                           
09FAF                           MusicData_Menu_Pulse2:
09FAF                           	instrument 2
09FAF C2                        	.db INSTRUMENT_CMD | 2
09FB0                           	volume_const
09FB0 EF                        	.db FADE_CTRL_CMD + F_IN - 1
09FB1                           	note_length M1, S16
09FB1 82                        	.db NOTE_LENGTH_CMD | M1 | S16
09FB2                           	note F_, 3
09FB2 36                        	.db 3 << 4 | F_
09FB3                           	note A_, 3
09FB3 3A                        	.db 3 << 4 | A_
09FB4                           	note F#, 3
09FB4 37                        	.db 3 << 4 | F#
09FB5                           	note A#, 3
09FB5 3B                        	.db 3 << 4 | A#
09FB6                           	note G_, 3
09FB6 38                        	.db 3 << 4 | G_
09FB7                           	note B_, 3
09FB7 3C                        	.db 3 << 4 | B_
09FB8                           	note C_, 4
09FB8 41                        	.db 4 << 4 | C_
09FB9                           	note_length M1, S8
09FB9 83                        	.db NOTE_LENGTH_CMD | M1 | S8
09FBA                           	note E_, 4
09FBA 45                        	.db 4 << 4 | E_
09FBB                           	sound_ret
09FBB FF                        	.db SOUND_RET_CMD
09FBC                           
09FBC                           MusicData_Menu_Hill:
09FBC                           	instrument 0
09FBC C0                        	.db INSTRUMENT_CMD | 0
09FBD                           	note_length M1, S16
09FBD 82                        	.db NOTE_LENGTH_CMD | M1 | S16
09FBE                           	note G_, 2
09FBE 28                        	.db 2 << 4 | G_
09FBF                           	note G_, 3
09FBF 38                        	.db 3 << 4 | G_
09FC0                           	note G#, 2
09FC0 29                        	.db 2 << 4 | G#
09FC1                           	note G#, 3
09FC1 39                        	.db 3 << 4 | G#
09FC2                           	note A_, 2
09FC2 2A                        	.db 2 << 4 | A_
09FC3                           	note A_, 3
09FC3 3A                        	.db 3 << 4 | A_
09FC4                           	note D_, 3
09FC4 33                        	.db 3 << 4 | D_
09FC5                           	note_length M1, S8
09FC5 83                        	.db NOTE_LENGTH_CMD | M1 | S8
09FC6                           	note D_, 4
09FC6 43                        	.db 4 << 4 | D_
09FC7                           	sound_ret
09FC7 FF                        	.db SOUND_RET_CMD
09FC8                           
09FC8                           MusicData_Menu_FDS:
09FC8                           	instrument 8
09FC8 C8                        	.db INSTRUMENT_CMD | 8
09FC9                           	volume_const
09FC9 EF                        	.db FADE_CTRL_CMD + F_IN - 1
09FCA                           	note_length M1, S16
09FCA 82                        	.db NOTE_LENGTH_CMD | M1 | S16
09FCB                           	note C_, 3
09FCB 31                        	.db 3 << 4 | C_
09FCC                           	note C_, 3
09FCC 31                        	.db 3 << 4 | C_
09FCD                           	note C_, 3
09FCD 31                        	.db 3 << 4 | C_
09FCE                           	note C_, 3
09FCE 31                        	.db 3 << 4 | C_
09FCF                           	note C_, 3
09FCF 31                        	.db 3 << 4 | C_
09FD0                           	note C_, 3
09FD0 31                        	.db 3 << 4 | C_
09FD1                           	note_length M1_5, S8
09FD1 8B                        	.db NOTE_LENGTH_CMD | M1_5 | S8
09FD2                           	note C_, 3
09FD2 31                        	.db 3 << 4 | C_
09FD3                           	sound_ret
09FD3 FF                        	.db SOUND_RET_CMD
09FD4                           .include "src/music/music-data/mountain-road.asm"
09FD4                           MusicData_MountainRoad_Pulse1Pulse2:
09FD4                           	note_length M1, S1
09FD4 86                        	.db NOTE_LENGTH_CMD | M1 | S1
09FD5                           	rest
09FD5 00                        	.db 0
09FD6                           	sound_ret
09FD6 FF                        	.db SOUND_RET_CMD
09FD7                           
09FD7                           MusicData_MountainRoad_Pulse1:
09FD7                           	instrument 9
09FD7 C9                        	.db INSTRUMENT_CMD | 9
09FD8                           	volume_fade 1, 12
09FD8 ED                        	.db FADE_CTRL_CMD | 1 | 12
09FD9                           	note_length M1, S1
09FD9 86                        	.db NOTE_LENGTH_CMD | M1 | S1
09FDA                           	pitch_slide 2, A_, 3
09FDA A2 3A                     	.db PITCH_BEND_CMD | 2, 3 << 4 | A_
09FDC                           	note G_, 2
09FDC 28                        	.db 2 << 4 | G_
09FDD                           	volume_const
09FDD EF                        	.db FADE_CTRL_CMD + F_IN - 1
09FDE                           	note G_, 2
09FDE 28                        	.db 2 << 4 | G_
09FDF                           	sound_ret
09FDF FF                        	.db SOUND_RET_CMD
09FE0                           
09FE0                           MusicData_MountainRoad_Pulse2:
09FE0                           	instrument 1
09FE0 C1                        	.db INSTRUMENT_CMD | 1
09FE1                           	volume_const
09FE1 EF                        	.db FADE_CTRL_CMD + F_IN - 1
09FE2                           	note_length M1_5, S16
09FE2 8A                        	.db NOTE_LENGTH_CMD | M1_5 | S16
09FE3                           	note A_, 1
09FE3 1A                        	.db 1 << 4 | A_
09FE4                           	note_length M1, S32
09FE4 81                        	.db NOTE_LENGTH_CMD | M1 | S32
09FE5                           	rest
09FE5 00                        	.db 0
09FE6                           	note_length M1_5, S16
09FE6 8A                        	.db NOTE_LENGTH_CMD | M1_5 | S16
09FE7                           	note A_, 1
09FE7 1A                        	.db 1 << 4 | A_
09FE8                           	note_length M1, S32
09FE8 81                        	.db NOTE_LENGTH_CMD | M1 | S32
09FE9                           	rest
09FE9 00                        	.db 0
09FEA                           	note_length M1_5, S16
09FEA 8A                        	.db NOTE_LENGTH_CMD | M1_5 | S16
09FEB                           	note A_, 2
09FEB 2A                        	.db 2 << 4 | A_
09FEC                           	note_length M1, S32
09FEC 81                        	.db NOTE_LENGTH_CMD | M1 | S32
09FED                           	rest
09FED 00                        	.db 0
09FEE                           	note_length M1, S16
09FEE 82                        	.db NOTE_LENGTH_CMD | M1 | S16
09FEF                           	note G_, 2
09FEF 28                        	.db 2 << 4 | G_
09FF0                           	note_length M1, S4
09FF0 84                        	.db NOTE_LENGTH_CMD | M1 | S4
09FF1                           	pitch_slide 8, A_, 2
09FF1 A8 2A                     	.db PITCH_BEND_CMD | 8, 2 << 4 | A_
09FF3                           	note G_, 2
09FF3 28                        	.db 2 << 4 | G_
09FF4                           	note_length M1, S32
09FF4 81                        	.db NOTE_LENGTH_CMD | M1 | S32
09FF5                           	tie
09FF5 0F                        	.db NOTE_MASK
09FF6                           	rest
09FF6 00                        	.db 0
09FF7                           	note_length M1_5, S16
09FF7 8A                        	.db NOTE_LENGTH_CMD | M1_5 | S16
09FF8                           	note A_, 2
09FF8 2A                        	.db 2 << 4 | A_
09FF9                           	note_length M1, S32
09FF9 81                        	.db NOTE_LENGTH_CMD | M1 | S32
09FFA                           	rest
09FFA 00                        	.db 0
09FFB                           	note_length M1_5, S16
09FFB 8A                        	.db NOTE_LENGTH_CMD | M1_5 | S16
09FFC                           	note A_, 2
09FFC 2A                        	.db 2 << 4 | A_
09FFD                           	note_length M1, S32
09FFD 81                        	.db NOTE_LENGTH_CMD | M1 | S32
09FFE                           	rest
09FFE 00                        	.db 0
09FFF                           	instrument 1
09FFF C1                        	.db INSTRUMENT_CMD | 1
0A000                           	volume_const
0A000 EF                        	.db FADE_CTRL_CMD + F_IN - 1
0A001                           	note_length M1_5, S16
0A001 8A                        	.db NOTE_LENGTH_CMD | M1_5 | S16
0A002                           	note A_, 1
0A002 1A                        	.db 1 << 4 | A_
0A003                           	note_length M1, S32
0A003 81                        	.db NOTE_LENGTH_CMD | M1 | S32
0A004                           	rest
0A004 00                        	.db 0
0A005                           	note_length M1_5, S16
0A005 8A                        	.db NOTE_LENGTH_CMD | M1_5 | S16
0A006                           	note A_, 1
0A006 1A                        	.db 1 << 4 | A_
0A007                           	note_length M1, S32
0A007 81                        	.db NOTE_LENGTH_CMD | M1 | S32
0A008                           	rest
0A008 00                        	.db 0
0A009                           	note_length M1_5, S16
0A009 8A                        	.db NOTE_LENGTH_CMD | M1_5 | S16
0A00A                           	note A_, 2
0A00A 2A                        	.db 2 << 4 | A_
0A00B                           	note_length M1, S32
0A00B 81                        	.db NOTE_LENGTH_CMD | M1 | S32
0A00C                           	rest
0A00C 00                        	.db 0
0A00D                           	note_length M1, S16
0A00D 82                        	.db NOTE_LENGTH_CMD | M1 | S16
0A00E                           	note G_, 2
0A00E 28                        	.db 2 << 4 | G_
0A00F                           	note_length M1, S4
0A00F 84                        	.db NOTE_LENGTH_CMD | M1 | S4
0A010                           	pitch_slide 8, A_, 2
0A010 A8 2A                     	.db PITCH_BEND_CMD | 8, 2 << 4 | A_
0A012                           	note G_, 2
0A012 28                        	.db 2 << 4 | G_
0A013                           	note_length M1, S32
0A013 81                        	.db NOTE_LENGTH_CMD | M1 | S32
0A014                           	tie
0A014 0F                        	.db NOTE_MASK
0A015                           	rest
0A015 00                        	.db 0
0A016                           	note_length M1_5, S16
0A016 8A                        	.db NOTE_LENGTH_CMD | M1_5 | S16
0A017                           	note G_, 2
0A017 28                        	.db 2 << 4 | G_
0A018                           	note_length M1, S32
0A018 81                        	.db NOTE_LENGTH_CMD | M1 | S32
0A019                           	rest
0A019 00                        	.db 0
0A01A                           	note_length M1, S16
0A01A 82                        	.db NOTE_LENGTH_CMD | M1 | S16
0A01B                           	note F_, 2
0A01B 26                        	.db 2 << 4 | F_
0A01C                           	note D_, 2
0A01C 23                        	.db 2 << 4 | D_
0A01D                           	sound_ret
0A01D FF                        	.db SOUND_RET_CMD
0A01E                           
0A01E                           MusicData_MountainRoad_Noise_1:
0A01E                           	drum_envelope DR1, M1, S1
0A01E A6                        	.db NOTE_LENGTH_CMD | DR1 | M1 | S1
0A01F                           	rest
0A01F 00                        	.db 0
0A020                           	sound_ret
0A020 FF                        	.db SOUND_RET_CMD
0A021                           
0A021                           MusicData_MountainRoad_Noise_2:
0A021                           	drum_envelope DR1, M1, S8
0A021 A3                        	.db NOTE_LENGTH_CMD | DR1 | M1 | S8
0A022                           	drum_note 3
0A022 03                        	.db 3
0A023                           	drum_note 3
0A023 03                        	.db 3
0A024                           	drum_note 3
0A024 03                        	.db 3
0A025                           	drum_envelope DR1, M1, S16
0A025 A2                        	.db NOTE_LENGTH_CMD | DR1 | M1 | S16
0A026                           	drum_note 3
0A026 03                        	.db 3
0A027                           	drum_note 3
0A027 03                        	.db 3
0A028                           	rest
0A028 00                        	.db 0
0A029                           	drum_note 3
0A029 03                        	.db 3
0A02A                           	drum_envelope DR1, M1, S8
0A02A A3                        	.db NOTE_LENGTH_CMD | DR1 | M1 | S8
0A02B                           	drum_note 3
0A02B 03                        	.db 3
0A02C                           	drum_note 3
0A02C 03                        	.db 3
0A02D                           	drum_note 3
0A02D 03                        	.db 3
0A02E                           	sound_ret
0A02E FF                        	.db SOUND_RET_CMD
0A02F                           
0A02F                           MusicData_MountainRoad_FDS_1:
0A02F                           	instrument 0
0A02F C0                        	.db INSTRUMENT_CMD | 0
0A030                           	volume_const
0A030 EF                        	.db FADE_CTRL_CMD + F_IN - 1
0A031                           	note_length M1, S16
0A031 82                        	.db NOTE_LENGTH_CMD | M1 | S16
0A032                           	note E_, 4
0A032 45                        	.db 4 << 4 | E_
0A033                           	note E_, 4
0A033 45                        	.db 4 << 4 | E_
0A034                           	tie
0A034 0F                        	.db NOTE_MASK
0A035                           	note E_, 4
0A035 45                        	.db 4 << 4 | E_
0A036                           	note E_, 4
0A036 45                        	.db 4 << 4 | E_
0A037                           	tie
0A037 0F                        	.db NOTE_MASK
0A038                           	note E_, 4
0A038 45                        	.db 4 << 4 | E_
0A039                           	note E_, 4
0A039 45                        	.db 4 << 4 | E_
0A03A                           	tie
0A03A 0F                        	.db NOTE_MASK
0A03B                           	note E_, 4
0A03B 45                        	.db 4 << 4 | E_
0A03C                           	note_length M1, S8
0A03C 83                        	.db NOTE_LENGTH_CMD | M1 | S8
0A03D                           	note E_, 4
0A03D 45                        	.db 4 << 4 | E_
0A03E                           	note E_, 4
0A03E 45                        	.db 4 << 4 | E_
0A03F                           	note E_, 4
0A03F 45                        	.db 4 << 4 | E_
0A040                           	sound_ret
0A040 FF                        	.db SOUND_RET_CMD
0A041                           
0A041                           MusicData_MountainRoad_FDS_2:
0A041                           	instrument 6
0A041 C6                        	.db INSTRUMENT_CMD | 6
0A042                           	volume_const
0A042 EF                        	.db FADE_CTRL_CMD + F_IN - 1
0A043                           	note_length M1, S8
0A043 83                        	.db NOTE_LENGTH_CMD | M1 | S8
0A044                           	note F_, 2
0A044 26                        	.db 2 << 4 | F_
0A045                           	note F_, 2
0A045 26                        	.db 2 << 4 | F_
0A046                           	instrument 0
0A046 C0                        	.db INSTRUMENT_CMD | 0
0A047                           	note E_, 4
0A047 45                        	.db 4 << 4 | E_
0A048                           	instrument 6
0A048 C6                        	.db INSTRUMENT_CMD | 6
0A049                           	note_length M1, S16
0A049 82                        	.db NOTE_LENGTH_CMD | M1 | S16
0A04A                           	note F_, 2
0A04A 26                        	.db 2 << 4 | F_
0A04B                           	note F_, 2
0A04B 26                        	.db 2 << 4 | F_
0A04C                           	rest
0A04C 00                        	.db 0
0A04D                           	note F_, 2
0A04D 26                        	.db 2 << 4 | F_
0A04E                           	rest
0A04E 00                        	.db 0
0A04F                           	note F_, 2
0A04F 26                        	.db 2 << 4 | F_
0A050                           	instrument 0
0A050 C0                        	.db INSTRUMENT_CMD | 0
0A051                           	note_length M1, S8
0A051 83                        	.db NOTE_LENGTH_CMD | M1 | S8
0A052                           	note E_, 4
0A052 45                        	.db 4 << 4 | E_
0A053                           	note E_, 4
0A053 45                        	.db 4 << 4 | E_
0A054                           	instrument 6
0A054 C6                        	.db INSTRUMENT_CMD | 6
0A055                           	note_length M1, S8
0A055 83                        	.db NOTE_LENGTH_CMD | M1 | S8
0A056                           	note F_, 2
0A056 26                        	.db 2 << 4 | F_
0A057                           	note F_, 2
0A057 26                        	.db 2 << 4 | F_
0A058                           	instrument 0
0A058 C0                        	.db INSTRUMENT_CMD | 0
0A059                           	note E_, 4
0A059 45                        	.db 4 << 4 | E_
0A05A                           	instrument 6
0A05A C6                        	.db INSTRUMENT_CMD | 6
0A05B                           	note_length M1, S16
0A05B 82                        	.db NOTE_LENGTH_CMD | M1 | S16
0A05C                           	note F_, 2
0A05C 26                        	.db 2 << 4 | F_
0A05D                           	note F_, 2
0A05D 26                        	.db 2 << 4 | F_
0A05E                           	rest
0A05E 00                        	.db 0
0A05F                           	note F_, 2
0A05F 26                        	.db 2 << 4 | F_
0A060                           	rest
0A060 00                        	.db 0
0A061                           	note F_, 2
0A061 26                        	.db 2 << 4 | F_
0A062                           	instrument 0
0A062 C0                        	.db INSTRUMENT_CMD | 0
0A063                           	note_length M1, S8
0A063 83                        	.db NOTE_LENGTH_CMD | M1 | S8
0A064                           	note E_, 4
0A064 45                        	.db 4 << 4 | E_
0A065                           	instrument 6
0A065 C6                        	.db INSTRUMENT_CMD | 6
0A066                           	note F_, 2
0A066 26                        	.db 2 << 4 | F_
0A067                           	sound_ret
0A067 FF                        	.db SOUND_RET_CMD
0A068                           
0A068                           MusicData_MountainRoad_FDS_3:
0A068                           	instrument 0
0A068 C0                        	.db INSTRUMENT_CMD | 0
0A069                           	volume_const
0A069 EF                        	.db FADE_CTRL_CMD + F_IN - 1
0A06A                           	note_length M1, S16
0A06A 82                        	.db NOTE_LENGTH_CMD | M1 | S16
0A06B                           	note E_, 4
0A06B 45                        	.db 4 << 4 | E_
0A06C                           	note E_, 4
0A06C 45                        	.db 4 << 4 | E_
0A06D                           	note E_, 4
0A06D 45                        	.db 4 << 4 | E_
0A06E                           	note E_, 4
0A06E 45                        	.db 4 << 4 | E_
0A06F                           	note E_, 4
0A06F 45                        	.db 4 << 4 | E_
0A070                           	note E_, 4
0A070 45                        	.db 4 << 4 | E_
0A071                           	note E_, 4
0A071 45                        	.db 4 << 4 | E_
0A072                           	note E_, 4
0A072 45                        	.db 4 << 4 | E_
0A073                           	instrument 6
0A073 C6                        	.db INSTRUMENT_CMD | 6
0A074                           	note F_, 2
0A074 26                        	.db 2 << 4 | F_
0A075                           	note F_, 2
0A075 26                        	.db 2 << 4 | F_
0A076                           	rest
0A076 00                        	.db 0
0A077                           	note F_, 2
0A077 26                        	.db 2 << 4 | F_
0A078                           	note F_, 2
0A078 26                        	.db 2 << 4 | F_
0A079                           	note F_, 2
0A079 26                        	.db 2 << 4 | F_
0A07A                           	note F_, 2
0A07A 26                        	.db 2 << 4 | F_
0A07B                           	note F_, 2
0A07B 26                        	.db 2 << 4 | F_
0A07C                           	instrument 0
0A07C C0                        	.db INSTRUMENT_CMD | 0
0A07D                           	note E_, 4
0A07D 45                        	.db 4 << 4 | E_
0A07E                           	note E_, 4
0A07E 45                        	.db 4 << 4 | E_
0A07F                           	note E_, 4
0A07F 45                        	.db 4 << 4 | E_
0A080                           	note E_, 4
0A080 45                        	.db 4 << 4 | E_
0A081                           	note E_, 4
0A081 45                        	.db 4 << 4 | E_
0A082                           	note E_, 4
0A082 45                        	.db 4 << 4 | E_
0A083                           	note E_, 4
0A083 45                        	.db 4 << 4 | E_
0A084                           	note E_, 4
0A084 45                        	.db 4 << 4 | E_
0A085                           	instrument 6
0A085 C6                        	.db INSTRUMENT_CMD | 6
0A086                           	note F_, 2
0A086 26                        	.db 2 << 4 | F_
0A087                           	tie
0A087 0F                        	.db NOTE_MASK
0A088                           	note F_, 2
0A088 26                        	.db 2 << 4 | F_
0A089                           	note F_, 2
0A089 26                        	.db 2 << 4 | F_
0A08A                           	rest
0A08A 00                        	.db 0
0A08B                           	note F_, 2
0A08B 26                        	.db 2 << 4 | F_
0A08C                           	note F_, 2
0A08C 26                        	.db 2 << 4 | F_
0A08D                           	tie
0A08D 0F                        	.db NOTE_MASK
0A08E                           	sound_ret
0A08E FF                        	.db SOUND_RET_CMD
0A08F                           
0A08F                           .include "src/music/music-data/number-match.asm"
0A08F                           MusicData_NumberMatch_Pulse1:
0A08F                           	instrument 19
0A08F D3                        	.db INSTRUMENT_CMD | 19
0A090                           	volume_const
0A090 EF                        	.db FADE_CTRL_CMD + F_IN - 1
0A091                           	note_length M1, S16
0A091 82                        	.db NOTE_LENGTH_CMD | M1 | S16
0A092                           	note G_, 4
0A092 48                        	.db 4 << 4 | G_
0A093                           	note G_, 3
0A093 38                        	.db 3 << 4 | G_
0A094                           	note F_, 4
0A094 46                        	.db 4 << 4 | F_
0A095                           	note G_, 3
0A095 38                        	.db 3 << 4 | G_
0A096                           	note D_, 4
0A096 43                        	.db 4 << 4 | D_
0A097                           	note D#, 4
0A097 44                        	.db 4 << 4 | D#
0A098                           	note_length M1_5, S4
0A098 8C                        	.db NOTE_LENGTH_CMD | M1_5 | S4
0A099                           	note E_, 4
0A099 45                        	.db 4 << 4 | E_
0A09A                           	note_length M1, S4
0A09A 84                        	.db NOTE_LENGTH_CMD | M1 | S4
0A09B                           	rest
0A09B 00                        	.db 0
0A09C                           	sound_ret
0A09C FF                        	.db SOUND_RET_CMD
0A09D                           
0A09D                           MusicData_NumberMatch_Pulse2:
0A09D                           	instrument 2
0A09D C2                        	.db INSTRUMENT_CMD | 2
0A09E                           	volume_const
0A09E EF                        	.db FADE_CTRL_CMD + F_IN - 1
0A09F                           	note_length M1, S4
0A09F 84                        	.db NOTE_LENGTH_CMD | M1 | S4
0A0A0                           	note C_, 5
0A0A0 51                        	.db 5 << 4 | C_
0A0A1                           	instrument 3
0A0A1 C3                        	.db INSTRUMENT_CMD | 3
0A0A2                           	note C_, 5
0A0A2 51                        	.db 5 << 4 | C_
0A0A3                           	instrument 4
0A0A3 C4                        	.db INSTRUMENT_CMD | 4
0A0A4                           	note C_, 5
0A0A4 51                        	.db 5 << 4 | C_
0A0A5                           	instrument 5
0A0A5 C5                        	.db INSTRUMENT_CMD | 5
0A0A6                           	note C_, 5
0A0A6 51                        	.db 5 << 4 | C_
0A0A7                           	sound_ret
0A0A7 FF                        	.db SOUND_RET_CMD
0A0A8                           
0A0A8                           MusicData_NumberMatch_Hill:
0A0A8                           	instrument 6
0A0A8 C6                        	.db INSTRUMENT_CMD | 6
0A0A9                           	note_length M1, S16
0A0A9 82                        	.db NOTE_LENGTH_CMD | M1 | S16
0A0AA                           	note G_, 3
0A0AA 38                        	.db 3 << 4 | G_
0A0AB                           	note G_, 2
0A0AB 28                        	.db 2 << 4 | G_
0A0AC                           	note F_, 3
0A0AC 36                        	.db 3 << 4 | F_
0A0AD                           	note G_, 2
0A0AD 28                        	.db 2 << 4 | G_
0A0AE                           	note F_, 3
0A0AE 36                        	.db 3 << 4 | F_
0A0AF                           	note F#, 3
0A0AF 37                        	.db 3 << 4 | F#
0A0B0                           	note_length M1_5, S4
0A0B0 8C                        	.db NOTE_LENGTH_CMD | M1_5 | S4
0A0B1                           	note G_, 3
0A0B1 38                        	.db 3 << 4 | G_
0A0B2                           	note_length M1, S4
0A0B2 84                        	.db NOTE_LENGTH_CMD | M1 | S4
0A0B3                           	rest
0A0B3 00                        	.db 0
0A0B4                           	sound_ret
0A0B4 FF                        	.db SOUND_RET_CMD
0A0B5                           
0A0B5                           MusicData_NumberMatch_FDS:
0A0B5                           	instrument 6
0A0B5 C6                        	.db INSTRUMENT_CMD | 6
0A0B6                           	volume_const
0A0B6 EF                        	.db FADE_CTRL_CMD + F_IN - 1
0A0B7                           	note_length M1, S16
0A0B7 82                        	.db NOTE_LENGTH_CMD | M1 | S16
0A0B8                           	note F_, 2
0A0B8 26                        	.db 2 << 4 | F_
0A0B9                           	note F_, 2
0A0B9 26                        	.db 2 << 4 | F_
0A0BA                           	note F_, 2
0A0BA 26                        	.db 2 << 4 | F_
0A0BB                           	note F_, 2
0A0BB 26                        	.db 2 << 4 | F_
0A0BC                           	note F_, 2
0A0BC 26                        	.db 2 << 4 | F_
0A0BD                           	note F_, 2
0A0BD 26                        	.db 2 << 4 | F_
0A0BE                           	note_length M1, S4
0A0BE 84                        	.db NOTE_LENGTH_CMD | M1 | S4
0A0BF                           	note F_, 2
0A0BF 26                        	.db 2 << 4 | F_
0A0C0                           	instrument 13
0A0C0 CD                        	.db INSTRUMENT_CMD | 13
0A0C1                           	note_length M1, S32
0A0C1 81                        	.db NOTE_LENGTH_CMD | M1 | S32
0A0C2                           	note D#, 5
0A0C2 54                        	.db 5 << 4 | D#
0A0C3                           	instrument 12
0A0C3 CC                        	.db INSTRUMENT_CMD | 12
0A0C4                           	note D#, 5
0A0C4 54                        	.db 5 << 4 | D#
0A0C5                           	instrument 11
0A0C5 CB                        	.db INSTRUMENT_CMD | 11
0A0C6                           	note D#, 5
0A0C6 54                        	.db 5 << 4 | D#
0A0C7                           	instrument 10
0A0C7 CA                        	.db INSTRUMENT_CMD | 10
0A0C8                           	note D#, 5
0A0C8 54                        	.db 5 << 4 | D#
0A0C9                           	instrument 9
0A0C9 C9                        	.db INSTRUMENT_CMD | 9
0A0CA                           	note_length M1, S4
0A0CA 84                        	.db NOTE_LENGTH_CMD | M1 | S4
0A0CB                           	note D#, 5
0A0CB 54                        	.db 5 << 4 | D#
0A0CC                           	sound_ret
0A0CC FF                        	.db SOUND_RET_CMD
0A0CD                           .include "src/music/music-data/number-miss.asm"
0A0CD                           MusicData_NumberMiss_Pulse1:
0A0CD                           	instrument 21
0A0CD D5                        	.db INSTRUMENT_CMD | 21
0A0CE                           	volume_const
0A0CE EF                        	.db FADE_CTRL_CMD + F_IN - 1
0A0CF                           	note_length M1, S32
0A0CF 81                        	.db NOTE_LENGTH_CMD | M1 | S32
0A0D0                           	note B_, 3
0A0D0 3C                        	.db 3 << 4 | B_
0A0D1                           	rest
0A0D1 00                        	.db 0
0A0D2                           	note_length M1, S8
0A0D2 83                        	.db NOTE_LENGTH_CMD | M1 | S8
0A0D3                           	rest
0A0D3 00                        	.db 0
0A0D4                           	note_length M1_5, S16
0A0D4 8A                        	.db NOTE_LENGTH_CMD | M1_5 | S16
0A0D5                           	note B_, 3
0A0D5 3C                        	.db 3 << 4 | B_
0A0D6                           	note B_, 3
0A0D6 3C                        	.db 3 << 4 | B_
0A0D7                           	instrument 29
0A0D7 DD                        	.db INSTRUMENT_CMD | 29
0A0D8                           	note_length M1, S8
0A0D8 83                        	.db NOTE_LENGTH_CMD | M1 | S8
0A0D9                           	note C_, 2
0A0D9 21                        	.db 2 << 4 | C_
0A0DA                           	note_length M1_5, S2
0A0DA 8D                        	.db NOTE_LENGTH_CMD | M1_5 | S2
0A0DB                           	tie
0A0DB 0F                        	.db NOTE_MASK
0A0DC                           	sound_ret
0A0DC FF                        	.db SOUND_RET_CMD
0A0DD                           
0A0DD                           MusicData_NumberMiss_Pulse2:
0A0DD                           	instrument 21
0A0DD D5                        	.db INSTRUMENT_CMD | 21
0A0DE                           	volume_const
0A0DE EF                        	.db FADE_CTRL_CMD + F_IN - 1
0A0DF                           	note_length M1, S32
0A0DF 81                        	.db NOTE_LENGTH_CMD | M1 | S32
0A0E0                           	note E_, 4
0A0E0 45                        	.db 4 << 4 | E_
0A0E1                           	rest
0A0E1 00                        	.db 0
0A0E2                           	note_length M1, S8
0A0E2 83                        	.db NOTE_LENGTH_CMD | M1 | S8
0A0E3                           	rest
0A0E3 00                        	.db 0
0A0E4                           	note_length M1_5, S16
0A0E4 8A                        	.db NOTE_LENGTH_CMD | M1_5 | S16
0A0E5                           	note E_, 4
0A0E5 45                        	.db 4 << 4 | E_
0A0E6                           	note E_, 4
0A0E6 45                        	.db 4 << 4 | E_
0A0E7                           	note_length M1, S16
0A0E7 82                        	.db NOTE_LENGTH_CMD | M1 | S16
0A0E8                           	pitch_slide 24, E_, 1
0A0E8 B8 15                     	.db PITCH_BEND_CMD | 24, 1 << 4 | E_
0A0EA                           	note E_, 2
0A0EA 25                        	.db 2 << 4 | E_
0A0EB                           	volume_fade 0, 2
0A0EB E2                        	.db FADE_CTRL_CMD | 0 | 2
0A0EC                           	tie
0A0EC 0F                        	.db NOTE_MASK
0A0ED                           	note_length M1_5, S2
0A0ED 8D                        	.db NOTE_LENGTH_CMD | M1_5 | S2
0A0EE                           	tie
0A0EE 0F                        	.db NOTE_MASK
0A0EF                           	sound_ret
0A0EF FF                        	.db SOUND_RET_CMD
0A0F0                           
0A0F0                           MusicData_NumberMiss_Hill:
0A0F0                           	instrument 0
0A0F0 C0                        	.db INSTRUMENT_CMD | 0
0A0F1                           	note_length M1_5, S4
0A0F1 8C                        	.db NOTE_LENGTH_CMD | M1_5 | S4
0A0F2                           	rest
0A0F2 00                        	.db 0
0A0F3                           	note_length M1, S2
0A0F3 85                        	.db NOTE_LENGTH_CMD | M1 | S2
0A0F4                           	pitch_slide 12, E_, 2
0A0F4 AC 25                     	.db PITCH_BEND_CMD | 12, 2 << 4 | E_
0A0F6                           	note E_, 3
0A0F6 35                        	.db 3 << 4 | E_
0A0F7                           	note_length M1_5, S4
0A0F7 8C                        	.db NOTE_LENGTH_CMD | M1_5 | S4
0A0F8                           	rest
0A0F8 00                        	.db 0
0A0F9                           	sound_ret
0A0F9 FF                        	.db SOUND_RET_CMD
0A0FA                           
0A0FA                           MusicData_NumberMiss_FDS:
0A0FA                           	instrument 2
0A0FA C2                        	.db INSTRUMENT_CMD | 2
0A0FB                           	volume_const
0A0FB EF                        	.db FADE_CTRL_CMD + F_IN - 1
0A0FC                           	note_length M1, S16
0A0FC 82                        	.db NOTE_LENGTH_CMD | M1 | S16
0A0FD                           	note G#, 4
0A0FD 49                        	.db 4 << 4 | G#
0A0FE                           	note G#, 4
0A0FE 49                        	.db 4 << 4 | G#
0A0FF                           	note G#, 4
0A0FF 49                        	.db 4 << 4 | G#
0A100                           	note G#, 4
0A100 49                        	.db 4 << 4 | G#
0A101                           	note G#, 4
0A101 49                        	.db 4 << 4 | G#
0A102                           	note G#, 4
0A102 49                        	.db 4 << 4 | G#
0A103                           	instrument 3
0A103 C3                        	.db INSTRUMENT_CMD | 3
0A104                           	note_length M1, S2
0A104 85                        	.db NOTE_LENGTH_CMD | M1 | S2
0A105                           	note E_, 3
0A105 35                        	.db 3 << 4 | E_
0A106                           	note_length M1_5, S4
0A106 8C                        	.db NOTE_LENGTH_CMD | M1_5 | S4
0A107                           	tie
0A107 0F                        	.db NOTE_MASK
0A108                           	sound_ret
0A108 FF                        	.db SOUND_RET_CMD
0A109                           .include "src/music/music-data/super-sonic-break.asm"
0A109                           MusicData_SuperSonicBreak_Pulse1_1:
0A109                           	instrument 0
0A109 C0                        	.db INSTRUMENT_CMD | 0
0A10A                           	volume_fade 1, 11
0A10A EB                        	.db FADE_CTRL_CMD | 1 | 11
0A10B                           	note_length M1, S1
0A10B 86                        	.db NOTE_LENGTH_CMD | M1 | S1
0A10C                           	note C#, 4
0A10C 42                        	.db 4 << 4 | C#
0A10D                           	note_length M1_5, S2
0A10D 8D                        	.db NOTE_LENGTH_CMD | M1_5 | S2
0A10E                           	tie
0A10E 0F                        	.db NOTE_MASK
0A10F                           	note_length M1, S4
0A10F 84                        	.db NOTE_LENGTH_CMD | M1 | S4
0A110                           	rest
0A110 00                        	.db 0
0A111                           
0A111                           	note_length M1, S1
0A111 86                        	.db NOTE_LENGTH_CMD | M1 | S1
0A112                           	note D_, 4
0A112 43                        	.db 4 << 4 | D_
0A113                           	note_length M1_5, S2
0A113 8D                        	.db NOTE_LENGTH_CMD | M1_5 | S2
0A114                           	tie
0A114 0F                        	.db NOTE_MASK
0A115                           	note_length M1, S4
0A115 84                        	.db NOTE_LENGTH_CMD | M1 | S4
0A116                           	rest
0A116 00                        	.db 0
0A117                           	sound_ret
0A117 FF                        	.db SOUND_RET_CMD
0A118                           
0A118                           MusicData_SuperSonicBreak_Pulse1_2:
0A118                           	instrument 0
0A118 C0                        	.db INSTRUMENT_CMD | 0
0A119                           	volume_fade 1, 11
0A119 EB                        	.db FADE_CTRL_CMD | 1 | 11
0A11A                           	note_length M1, S1
0A11A 86                        	.db NOTE_LENGTH_CMD | M1 | S1
0A11B                           	note E_, 4
0A11B 45                        	.db 4 << 4 | E_
0A11C                           	note_length M1_5, S2
0A11C 8D                        	.db NOTE_LENGTH_CMD | M1_5 | S2
0A11D                           	tie
0A11D 0F                        	.db NOTE_MASK
0A11E                           	note_length M1, S4
0A11E 84                        	.db NOTE_LENGTH_CMD | M1 | S4
0A11F                           	rest
0A11F 00                        	.db 0
0A120                           	sound_ret
0A120 FF                        	.db SOUND_RET_CMD
0A121                           
0A121                           
0A121                           MusicData_SuperSonicBreak_Pulse1_3:
0A121                           	instrument 0
0A121 C0                        	.db INSTRUMENT_CMD | 0
0A122                           	volume_const
0A122 EF                        	.db FADE_CTRL_CMD + F_IN - 1
0A123                           	note_length M1, S1
0A123 86                        	.db NOTE_LENGTH_CMD | M1 | S1
0A124                           	note E_, 4
0A124 45                        	.db 4 << 4 | E_
0A125                           	note_length M1_5, S2
0A125 8D                        	.db NOTE_LENGTH_CMD | M1_5 | S2
0A126                           	tie
0A126 0F                        	.db NOTE_MASK
0A127                           	note_length M1, S4
0A127 84                        	.db NOTE_LENGTH_CMD | M1 | S4
0A128                           	rest
0A128 00                        	.db 0
0A129                           	sound_ret
0A129 FF                        	.db SOUND_RET_CMD
0A12A                           
0A12A                           MusicData_SuperSonicBreak_Pulse1Pulse2:
0A12A                           	instrument 2
0A12A C2                        	.db INSTRUMENT_CMD | 2
0A12B                           	volume_const
0A12B EF                        	.db FADE_CTRL_CMD + F_IN - 1
0A12C                           	note_length M1, S32
0A12C 81                        	.db NOTE_LENGTH_CMD | M1 | S32
0A12D                           	note B_, 4
0A12D 4C                        	.db 4 << 4 | B_
0A12E                           	tie
0A12E 0F                        	.db NOTE_MASK
0A12F                           	rest
0A12F 00                        	.db 0
0A130                           	instrument 5
0A130 C5                        	.db INSTRUMENT_CMD | 5
0A131                           	note B_, 4
0A131 4C                        	.db 4 << 4 | B_
0A132                           	instrument 2
0A132 C2                        	.db INSTRUMENT_CMD | 2
0A133                           	note C#, 5
0A133 52                        	.db 5 << 4 | C#
0A134                           	tie
0A134 0F                        	.db NOTE_MASK
0A135                           	rest
0A135 00                        	.db 0
0A136                           	instrument 5
0A136 C5                        	.db INSTRUMENT_CMD | 5
0A137                           	note C#, 5
0A137 52                        	.db 5 << 4 | C#
0A138                           	instrument 2
0A138 C2                        	.db INSTRUMENT_CMD | 2
0A139                           	note B_, 4
0A139 4C                        	.db 4 << 4 | B_
0A13A                           	tie
0A13A 0F                        	.db NOTE_MASK
0A13B                           	rest
0A13B 00                        	.db 0
0A13C                           	instrument 5
0A13C C5                        	.db INSTRUMENT_CMD | 5
0A13D                           	note B_, 4
0A13D 4C                        	.db 4 << 4 | B_
0A13E                           	instrument 2
0A13E C2                        	.db INSTRUMENT_CMD | 2
0A13F                           	note C#, 5
0A13F 52                        	.db 5 << 4 | C#
0A140                           	tie
0A140 0F                        	.db NOTE_MASK
0A141                           	rest
0A141 00                        	.db 0
0A142                           	instrument 5
0A142 C5                        	.db INSTRUMENT_CMD | 5
0A143                           	note C#, 5
0A143 52                        	.db 5 << 4 | C#
0A144                           	instrument 2
0A144 C2                        	.db INSTRUMENT_CMD | 2
0A145                           	note E_, 5
0A145 55                        	.db 5 << 4 | E_
0A146                           	tie
0A146 0F                        	.db NOTE_MASK
0A147                           	rest
0A147 00                        	.db 0
0A148                           	instrument 5
0A148 C5                        	.db INSTRUMENT_CMD | 5
0A149                           	note E_, 5
0A149 55                        	.db 5 << 4 | E_
0A14A                           	instrument 2
0A14A C2                        	.db INSTRUMENT_CMD | 2
0A14B                           	note C#, 5
0A14B 52                        	.db 5 << 4 | C#
0A14C                           	tie
0A14C 0F                        	.db NOTE_MASK
0A14D                           	rest
0A14D 00                        	.db 0
0A14E                           	instrument 5
0A14E C5                        	.db INSTRUMENT_CMD | 5
0A14F                           	note C#, 5
0A14F 52                        	.db 5 << 4 | C#
0A150                           	instrument 2
0A150 C2                        	.db INSTRUMENT_CMD | 2
0A151                           	note B_, 4
0A151 4C                        	.db 4 << 4 | B_
0A152                           	tie
0A152 0F                        	.db NOTE_MASK
0A153                           	rest
0A153 00                        	.db 0
0A154                           	instrument 5
0A154 C5                        	.db INSTRUMENT_CMD | 5
0A155                           	note B_, 4
0A155 4C                        	.db 4 << 4 | B_
0A156                           	instrument 2
0A156 C2                        	.db INSTRUMENT_CMD | 2
0A157                           	note C#, 5
0A157 52                        	.db 5 << 4 | C#
0A158                           	tie
0A158 0F                        	.db NOTE_MASK
0A159                           	rest
0A159 00                        	.db 0
0A15A                           	instrument 5
0A15A C5                        	.db INSTRUMENT_CMD | 5
0A15B                           	note C#, 5
0A15B 52                        	.db 5 << 4 | C#
0A15C                           	sound_ret
0A15C FF                        	.db SOUND_RET_CMD
0A15D                           
0A15D                           MusicData_SuperSonicBreak_Pulse1_4:
0A15D                           	instrument 0
0A15D C0                        	.db INSTRUMENT_CMD | 0
0A15E                           	volume_fade 1, 2
0A15E E3                        	.db FADE_CTRL_CMD | 1 | 2
0A15F                           	note_length M1, S2
0A15F 85                        	.db NOTE_LENGTH_CMD | M1 | S2
0A160                           	rest
0A160 00                        	.db 0
0A161                           	note_length M1, S16
0A161 82                        	.db NOTE_LENGTH_CMD | M1 | S16
0A162                           	note B_, 3
0A162 3C                        	.db 3 << 4 | B_
0A163                           	note_length M1_5, S4
0A163 8C                        	.db NOTE_LENGTH_CMD | M1_5 | S4
0A164                           	pitch_slide 1, C#, 2
0A164 A1 22                     	.db PITCH_BEND_CMD | 1, 2 << 4 | C#
0A166                           	tie
0A166 0F                        	.db NOTE_MASK
0A167                           	note_length M1, S16
0A167 82                        	.db NOTE_LENGTH_CMD | M1 | S16
0A168                           	rest
0A168 00                        	.db 0
0A169                           	volume_const
0A169 EF                        	.db FADE_CTRL_CMD + F_IN - 1
0A16A                           	note_length M1, S1
0A16A 86                        	.db NOTE_LENGTH_CMD | M1 | S1
0A16B                           	note B_, 3
0A16B 3C                        	.db 3 << 4 | B_
0A16C                           
0A16C                           	tie
0A16C 0F                        	.db NOTE_MASK
0A16D                           	note_length M1_5, S2
0A16D 8D                        	.db NOTE_LENGTH_CMD | M1_5 | S2
0A16E                           	tie
0A16E 0F                        	.db NOTE_MASK
0A16F                           	note_length M1, S4
0A16F 84                        	.db NOTE_LENGTH_CMD | M1 | S4
0A170                           	rest
0A170 00                        	.db 0
0A171                           
0A171                           	note_length M1, S2
0A171 85                        	.db NOTE_LENGTH_CMD | M1 | S2
0A172                           	rest
0A172 00                        	.db 0
0A173                           	note_length M1, S16
0A173 82                        	.db NOTE_LENGTH_CMD | M1 | S16
0A174                           	note B_, 3
0A174 3C                        	.db 3 << 4 | B_
0A175                           	note_length M1_5, S4
0A175 8C                        	.db NOTE_LENGTH_CMD | M1_5 | S4
0A176                           	pitch_slide 1, C#, 2
0A176 A1 22                     	.db PITCH_BEND_CMD | 1, 2 << 4 | C#
0A178                           	tie
0A178 0F                        	.db NOTE_MASK
0A179                           	note_length M1, S16
0A179 82                        	.db NOTE_LENGTH_CMD | M1 | S16
0A17A                           	rest
0A17A 00                        	.db 0
0A17B                           	volume_const
0A17B EF                        	.db FADE_CTRL_CMD + F_IN - 1
0A17C                           	note_length M1, S1
0A17C 86                        	.db NOTE_LENGTH_CMD | M1 | S1
0A17D                           	note B_, 3
0A17D 3C                        	.db 3 << 4 | B_
0A17E                           	sound_ret
0A17E FF                        	.db SOUND_RET_CMD
0A17F                           
0A17F                           MusicData_SuperSonicBreak_Pulse2_1:
0A17F                           	instrument 2
0A17F C2                        	.db INSTRUMENT_CMD | 2
0A180                           	volume_const
0A180 EF                        	.db FADE_CTRL_CMD + F_IN - 1
0A181                           	note_length M1, S32
0A181 81                        	.db NOTE_LENGTH_CMD | M1 | S32
0A182                           	note B_, 4
0A182 4C                        	.db 4 << 4 | B_
0A183                           	tie
0A183 0F                        	.db NOTE_MASK
0A184                           	rest
0A184 00                        	.db 0
0A185                           	instrument 5
0A185 C5                        	.db INSTRUMENT_CMD | 5
0A186                           	note B_, 4
0A186 4C                        	.db 4 << 4 | B_
0A187                           	instrument 2
0A187 C2                        	.db INSTRUMENT_CMD | 2
0A188                           	note C#, 5
0A188 52                        	.db 5 << 4 | C#
0A189                           	tie
0A189 0F                        	.db NOTE_MASK
0A18A                           	rest
0A18A 00                        	.db 0
0A18B                           	instrument 5
0A18B C5                        	.db INSTRUMENT_CMD | 5
0A18C                           	note C#, 5
0A18C 52                        	.db 5 << 4 | C#
0A18D                           	instrument 2
0A18D C2                        	.db INSTRUMENT_CMD | 2
0A18E                           	note B_, 4
0A18E 4C                        	.db 4 << 4 | B_
0A18F                           	tie
0A18F 0F                        	.db NOTE_MASK
0A190                           	rest
0A190 00                        	.db 0
0A191                           	instrument 5
0A191 C5                        	.db INSTRUMENT_CMD | 5
0A192                           	note B_, 4
0A192 4C                        	.db 4 << 4 | B_
0A193                           	instrument 2
0A193 C2                        	.db INSTRUMENT_CMD | 2
0A194                           	note C#, 5
0A194 52                        	.db 5 << 4 | C#
0A195                           	tie
0A195 0F                        	.db NOTE_MASK
0A196                           	rest
0A196 00                        	.db 0
0A197                           	instrument 5
0A197 C5                        	.db INSTRUMENT_CMD | 5
0A198                           	note C#, 5
0A198 52                        	.db 5 << 4 | C#
0A199                           	instrument 2
0A199 C2                        	.db INSTRUMENT_CMD | 2
0A19A                           	note F#, 5
0A19A 57                        	.db 5 << 4 | F#
0A19B                           	tie
0A19B 0F                        	.db NOTE_MASK
0A19C                           	rest
0A19C 00                        	.db 0
0A19D                           	instrument 5
0A19D C5                        	.db INSTRUMENT_CMD | 5
0A19E                           	note F#, 5
0A19E 57                        	.db 5 << 4 | F#
0A19F                           	instrument 2
0A19F C2                        	.db INSTRUMENT_CMD | 2
0A1A0                           	note C#, 5
0A1A0 52                        	.db 5 << 4 | C#
0A1A1                           	tie
0A1A1 0F                        	.db NOTE_MASK
0A1A2                           	rest
0A1A2 00                        	.db 0
0A1A3                           	instrument 5
0A1A3 C5                        	.db INSTRUMENT_CMD | 5
0A1A4                           	note C#, 5
0A1A4 52                        	.db 5 << 4 | C#
0A1A5                           	instrument 2
0A1A5 C2                        	.db INSTRUMENT_CMD | 2
0A1A6                           	note B_, 4
0A1A6 4C                        	.db 4 << 4 | B_
0A1A7                           	tie
0A1A7 0F                        	.db NOTE_MASK
0A1A8                           	rest
0A1A8 00                        	.db 0
0A1A9                           	instrument 5
0A1A9 C5                        	.db INSTRUMENT_CMD | 5
0A1AA                           	note B_, 4
0A1AA 4C                        	.db 4 << 4 | B_
0A1AB                           	instrument 2
0A1AB C2                        	.db INSTRUMENT_CMD | 2
0A1AC                           	note C#, 5
0A1AC 52                        	.db 5 << 4 | C#
0A1AD                           	tie
0A1AD 0F                        	.db NOTE_MASK
0A1AE                           	rest
0A1AE 00                        	.db 0
0A1AF                           	instrument 5
0A1AF C5                        	.db INSTRUMENT_CMD | 5
0A1B0                           	note C#, 5
0A1B0 52                        	.db 5 << 4 | C#
0A1B1                           	sound_ret
0A1B1 FF                        	.db SOUND_RET_CMD
0A1B2                           
0A1B2                           MusicData_SuperSonicBreak_Pulse2_2:
0A1B2                           	instrument 2
0A1B2 C2                        	.db INSTRUMENT_CMD | 2
0A1B3                           	volume_const
0A1B3 EF                        	.db FADE_CTRL_CMD + F_IN - 1
0A1B4                           	note_length M1, S32
0A1B4 81                        	.db NOTE_LENGTH_CMD | M1 | S32
0A1B5                           	note B_, 4
0A1B5 4C                        	.db 4 << 4 | B_
0A1B6                           	tie
0A1B6 0F                        	.db NOTE_MASK
0A1B7                           	rest
0A1B7 00                        	.db 0
0A1B8                           	instrument 5
0A1B8 C5                        	.db INSTRUMENT_CMD | 5
0A1B9                           	note B_, 4
0A1B9 4C                        	.db 4 << 4 | B_
0A1BA                           	instrument 2
0A1BA C2                        	.db INSTRUMENT_CMD | 2
0A1BB                           	note C#, 5
0A1BB 52                        	.db 5 << 4 | C#
0A1BC                           	tie
0A1BC 0F                        	.db NOTE_MASK
0A1BD                           	rest
0A1BD 00                        	.db 0
0A1BE                           	instrument 5
0A1BE C5                        	.db INSTRUMENT_CMD | 5
0A1BF                           	note C#, 5
0A1BF 52                        	.db 5 << 4 | C#
0A1C0                           	instrument 2
0A1C0 C2                        	.db INSTRUMENT_CMD | 2
0A1C1                           	note B_, 4
0A1C1 4C                        	.db 4 << 4 | B_
0A1C2                           	tie
0A1C2 0F                        	.db NOTE_MASK
0A1C3                           	rest
0A1C3 00                        	.db 0
0A1C4                           	instrument 5
0A1C4 C5                        	.db INSTRUMENT_CMD | 5
0A1C5                           	note B_, 4
0A1C5 4C                        	.db 4 << 4 | B_
0A1C6                           	instrument 2
0A1C6 C2                        	.db INSTRUMENT_CMD | 2
0A1C7                           	note C#, 5
0A1C7 52                        	.db 5 << 4 | C#
0A1C8                           	tie
0A1C8 0F                        	.db NOTE_MASK
0A1C9                           	rest
0A1C9 00                        	.db 0
0A1CA                           	instrument 5
0A1CA C5                        	.db INSTRUMENT_CMD | 5
0A1CB                           	note C#, 5
0A1CB 52                        	.db 5 << 4 | C#
0A1CC                           	instrument 2
0A1CC C2                        	.db INSTRUMENT_CMD | 2
0A1CD                           	note G#, 5
0A1CD 59                        	.db 5 << 4 | G#
0A1CE                           	tie
0A1CE 0F                        	.db NOTE_MASK
0A1CF                           	rest
0A1CF 00                        	.db 0
0A1D0                           	instrument 5
0A1D0 C5                        	.db INSTRUMENT_CMD | 5
0A1D1                           	note G#, 5
0A1D1 59                        	.db 5 << 4 | G#
0A1D2                           	instrument 2
0A1D2 C2                        	.db INSTRUMENT_CMD | 2
0A1D3                           	note C#, 5
0A1D3 52                        	.db 5 << 4 | C#
0A1D4                           	tie
0A1D4 0F                        	.db NOTE_MASK
0A1D5                           	rest
0A1D5 00                        	.db 0
0A1D6                           	instrument 5
0A1D6 C5                        	.db INSTRUMENT_CMD | 5
0A1D7                           	note C#, 5
0A1D7 52                        	.db 5 << 4 | C#
0A1D8                           	instrument 2
0A1D8 C2                        	.db INSTRUMENT_CMD | 2
0A1D9                           	note B_, 4
0A1D9 4C                        	.db 4 << 4 | B_
0A1DA                           	tie
0A1DA 0F                        	.db NOTE_MASK
0A1DB                           	rest
0A1DB 00                        	.db 0
0A1DC                           	instrument 5
0A1DC C5                        	.db INSTRUMENT_CMD | 5
0A1DD                           	note B_, 4
0A1DD 4C                        	.db 4 << 4 | B_
0A1DE                           	instrument 2
0A1DE C2                        	.db INSTRUMENT_CMD | 2
0A1DF                           	note C#, 5
0A1DF 52                        	.db 5 << 4 | C#
0A1E0                           	tie
0A1E0 0F                        	.db NOTE_MASK
0A1E1                           	rest
0A1E1 00                        	.db 0
0A1E2                           	instrument 5
0A1E2 C5                        	.db INSTRUMENT_CMD | 5
0A1E3                           	note C#, 5
0A1E3 52                        	.db 5 << 4 | C#
0A1E4                           	sound_ret
0A1E4 FF                        	.db SOUND_RET_CMD
0A1E5                           
0A1E5                           MusicData_SuperSonicBreak_Pulse2_3:
0A1E5                           	instrument 0
0A1E5 C0                        	.db INSTRUMENT_CMD | 0
0A1E6                           	volume_const
0A1E6 EF                        	.db FADE_CTRL_CMD + F_IN - 1
0A1E7                           	note_length M1, S1
0A1E7 86                        	.db NOTE_LENGTH_CMD | M1 | S1
0A1E8                           	rest
0A1E8 00                        	.db 0
0A1E9                           	rest
0A1E9 00                        	.db 0
0A1EA                           	sound_ret
0A1EA FF                        	.db SOUND_RET_CMD
0A1EB                           
0A1EB                           MusicData_SuperSonicBreak_Hill_1:
0A1EB                           	instrument 0
0A1EB C0                        	.db INSTRUMENT_CMD | 0
0A1EC                           	note_length M1, S16
0A1EC 82                        	.db NOTE_LENGTH_CMD | M1 | S16
0A1ED                           	note A_, 2
0A1ED 2A                        	.db 2 << 4 | A_
0A1EE                           	rest
0A1EE 00                        	.db 0
0A1EF                           	note A_, 2
0A1EF 2A                        	.db 2 << 4 | A_
0A1F0                           	rest
0A1F0 00                        	.db 0
0A1F1                           	note A_, 2
0A1F1 2A                        	.db 2 << 4 | A_
0A1F2                           	rest
0A1F2 00                        	.db 0
0A1F3                           	note A_, 2
0A1F3 2A                        	.db 2 << 4 | A_
0A1F4                           	rest
0A1F4 00                        	.db 0
0A1F5                           	note_length M1_5, S4
0A1F5 8C                        	.db NOTE_LENGTH_CMD | M1_5 | S4
0A1F6                           	rest
0A1F6 00                        	.db 0
0A1F7                           	note_length M1, S16
0A1F7 82                        	.db NOTE_LENGTH_CMD | M1 | S16
0A1F8                           	note A_, 2
0A1F8 2A                        	.db 2 << 4 | A_
0A1F9                           	rest
0A1F9 00                        	.db 0
0A1FA                           	note A_, 2
0A1FA 2A                        	.db 2 << 4 | A_
0A1FB                           	rest
0A1FB 00                        	.db 0
0A1FC                           	note A_, 2
0A1FC 2A                        	.db 2 << 4 | A_
0A1FD                           	rest
0A1FD 00                        	.db 0
0A1FE                           	note A_, 2
0A1FE 2A                        	.db 2 << 4 | A_
0A1FF                           	rest
0A1FF 00                        	.db 0
0A200                           	note_length M1, S2
0A200 85                        	.db NOTE_LENGTH_CMD | M1 | S2
0A201                           	rest
0A201 00                        	.db 0
0A202                           	note_length M1, S16
0A202 82                        	.db NOTE_LENGTH_CMD | M1 | S16
0A203                           	note A_, 2
0A203 2A                        	.db 2 << 4 | A_
0A204                           	rest
0A204 00                        	.db 0
0A205                           	note B_, 2
0A205 2C                        	.db 2 << 4 | B_
0A206                           	rest
0A206 00                        	.db 0
0A207                           	note B_, 2
0A207 2C                        	.db 2 << 4 | B_
0A208                           	rest
0A208 00                        	.db 0
0A209                           	note B_, 2
0A209 2C                        	.db 2 << 4 | B_
0A20A                           	rest
0A20A 00                        	.db 0
0A20B                           	note B_, 2
0A20B 2C                        	.db 2 << 4 | B_
0A20C                           	rest
0A20C 00                        	.db 0
0A20D                           	note_length M1_5, S4
0A20D 8C                        	.db NOTE_LENGTH_CMD | M1_5 | S4
0A20E                           	rest
0A20E 00                        	.db 0
0A20F                           	note_length M1, S16
0A20F 82                        	.db NOTE_LENGTH_CMD | M1 | S16
0A210                           	note B_, 2
0A210 2C                        	.db 2 << 4 | B_
0A211                           	rest
0A211 00                        	.db 0
0A212                           	note B_, 2
0A212 2C                        	.db 2 << 4 | B_
0A213                           	rest
0A213 00                        	.db 0
0A214                           	note B_, 2
0A214 2C                        	.db 2 << 4 | B_
0A215                           	rest
0A215 00                        	.db 0
0A216                           	note B_, 2
0A216 2C                        	.db 2 << 4 | B_
0A217                           	rest
0A217 00                        	.db 0
0A218                           	note_length M1, S2
0A218 85                        	.db NOTE_LENGTH_CMD | M1 | S2
0A219                           	rest
0A219 00                        	.db 0
0A21A                           	note_length M1, S16
0A21A 82                        	.db NOTE_LENGTH_CMD | M1 | S16
0A21B                           	note B_, 2
0A21B 2C                        	.db 2 << 4 | B_
0A21C                           	rest
0A21C 00                        	.db 0
0A21D                           	note C#, 3
0A21D 32                        	.db 3 << 4 | C#
0A21E                           	rest
0A21E 00                        	.db 0
0A21F                           	note C#, 3
0A21F 32                        	.db 3 << 4 | C#
0A220                           	rest
0A220 00                        	.db 0
0A221                           	note C#, 3
0A221 32                        	.db 3 << 4 | C#
0A222                           	rest
0A222 00                        	.db 0
0A223                           	note C#, 3
0A223 32                        	.db 3 << 4 | C#
0A224                           	rest
0A224 00                        	.db 0
0A225                           	note_length M1_5, S4
0A225 8C                        	.db NOTE_LENGTH_CMD | M1_5 | S4
0A226                           	rest
0A226 00                        	.db 0
0A227                           	note_length M1, S16
0A227 82                        	.db NOTE_LENGTH_CMD | M1 | S16
0A228                           	note C#, 3
0A228 32                        	.db 3 << 4 | C#
0A229                           	rest
0A229 00                        	.db 0
0A22A                           	note C#, 3
0A22A 32                        	.db 3 << 4 | C#
0A22B                           	rest
0A22B 00                        	.db 0
0A22C                           	note C#, 3
0A22C 32                        	.db 3 << 4 | C#
0A22D                           	rest
0A22D 00                        	.db 0
0A22E                           	note C#, 3
0A22E 32                        	.db 3 << 4 | C#
0A22F                           	rest
0A22F 00                        	.db 0
0A230                           	note_length M1, S2
0A230 85                        	.db NOTE_LENGTH_CMD | M1 | S2
0A231                           	rest
0A231 00                        	.db 0
0A232                           	note_length M1, S16
0A232 82                        	.db NOTE_LENGTH_CMD | M1 | S16
0A233                           	note C#, 3
0A233 32                        	.db 3 << 4 | C#
0A234                           	rest
0A234 00                        	.db 0
0A235                           	sound_ret
0A235 FF                        	.db SOUND_RET_CMD
0A236                           
0A236                           MusicData_SuperSonicBreak_Hill_2:
0A236                           	instrument 0
0A236 C0                        	.db INSTRUMENT_CMD | 0
0A237                           	note_length M1, S16
0A237 82                        	.db NOTE_LENGTH_CMD | M1 | S16
0A238                           	note A_, 2
0A238 2A                        	.db 2 << 4 | A_
0A239                           	rest
0A239 00                        	.db 0
0A23A                           	note A_, 2
0A23A 2A                        	.db 2 << 4 | A_
0A23B                           	rest
0A23B 00                        	.db 0
0A23C                           	note A_, 2
0A23C 2A                        	.db 2 << 4 | A_
0A23D                           	rest
0A23D 00                        	.db 0
0A23E                           	note A_, 2
0A23E 2A                        	.db 2 << 4 | A_
0A23F                           	rest
0A23F 00                        	.db 0
0A240                           	note_length M1_5, S4
0A240 8C                        	.db NOTE_LENGTH_CMD | M1_5 | S4
0A241                           	rest
0A241 00                        	.db 0
0A242                           	note_length M1, S16
0A242 82                        	.db NOTE_LENGTH_CMD | M1 | S16
0A243                           	note A_, 2
0A243 2A                        	.db 2 << 4 | A_
0A244                           	rest
0A244 00                        	.db 0
0A245                           	note A_, 2
0A245 2A                        	.db 2 << 4 | A_
0A246                           	rest
0A246 00                        	.db 0
0A247                           	note A_, 2
0A247 2A                        	.db 2 << 4 | A_
0A248                           	rest
0A248 00                        	.db 0
0A249                           	note A_, 2
0A249 2A                        	.db 2 << 4 | A_
0A24A                           	rest
0A24A 00                        	.db 0
0A24B                           	note_length M1, S2
0A24B 85                        	.db NOTE_LENGTH_CMD | M1 | S2
0A24C                           	rest
0A24C 00                        	.db 0
0A24D                           	note_length M1, S16
0A24D 82                        	.db NOTE_LENGTH_CMD | M1 | S16
0A24E                           	note E_, 2
0A24E 25                        	.db 2 << 4 | E_
0A24F                           	rest
0A24F 00                        	.db 0
0A250                           	sound_ret
0A250 FF                        	.db SOUND_RET_CMD
0A251                           
0A251                           MusicData_SuperSonicBreak_Hill_3:
0A251                           	instrument 0
0A251 C0                        	.db INSTRUMENT_CMD | 0
0A252                           	note_length M1, S16
0A252 82                        	.db NOTE_LENGTH_CMD | M1 | S16
0A253                           	note D_, 2
0A253 23                        	.db 2 << 4 | D_
0A254                           	rest
0A254 00                        	.db 0
0A255                           	note D_, 2
0A255 23                        	.db 2 << 4 | D_
0A256                           	rest
0A256 00                        	.db 0
0A257                           	note D_, 2
0A257 23                        	.db 2 << 4 | D_
0A258                           	rest
0A258 00                        	.db 0
0A259                           	note D_, 2
0A259 23                        	.db 2 << 4 | D_
0A25A                           	rest
0A25A 00                        	.db 0
0A25B                           	note_length M1_5, S4
0A25B 8C                        	.db NOTE_LENGTH_CMD | M1_5 | S4
0A25C                           	rest
0A25C 00                        	.db 0
0A25D                           	note_length M1, S16
0A25D 82                        	.db NOTE_LENGTH_CMD | M1 | S16
0A25E                           	note D_, 2
0A25E 23                        	.db 2 << 4 | D_
0A25F                           	rest
0A25F 00                        	.db 0
0A260                           	note D_, 2
0A260 23                        	.db 2 << 4 | D_
0A261                           	rest
0A261 00                        	.db 0
0A262                           	note D_, 2
0A262 23                        	.db 2 << 4 | D_
0A263                           	rest
0A263 00                        	.db 0
0A264                           	note D_, 2
0A264 23                        	.db 2 << 4 | D_
0A265                           	rest
0A265 00                        	.db 0
0A266                           	note_length M1, S2
0A266 85                        	.db NOTE_LENGTH_CMD | M1 | S2
0A267                           	rest
0A267 00                        	.db 0
0A268                           	note_length M1, S16
0A268 82                        	.db NOTE_LENGTH_CMD | M1 | S16
0A269                           	note E_, 2
0A269 25                        	.db 2 << 4 | E_
0A26A                           	rest
0A26A 00                        	.db 0
0A26B                           	sound_ret
0A26B FF                        	.db SOUND_RET_CMD
0A26C                           
0A26C                           MusicData_SuperSonicBreak_Noise:
0A26C                           	drum_envelope DR2, M1, S4
0A26C C4                        	.db NOTE_LENGTH_CMD | DR2 | M1 | S4
0A26D                           	drum_note 1
0A26D 01                        	.db 1
0A26E                           	sound_ret
0A26E FF                        	.db SOUND_RET_CMD
0A26F                           
0A26F                           MusicData_SuperSonicBreak_FDS_1:
0A26F                           	instrument 7
0A26F C7                        	.db INSTRUMENT_CMD | 7
0A270                           	volume_const
0A270 EF                        	.db FADE_CTRL_CMD + F_IN - 1
0A271                           	note_length M1, S4
0A271 84                        	.db NOTE_LENGTH_CMD | M1 | S4
0A272                           	note F_, 2
0A272 26                        	.db 2 << 4 | F_
0A273                           	note F_, 2
0A273 26                        	.db 2 << 4 | F_
0A274                           	instrument 9
0A274 C9                        	.db INSTRUMENT_CMD | 9
0A275                           	note D#, 5
0A275 54                        	.db 5 << 4 | D#
0A276                           	note_length M1, S8
0A276 83                        	.db NOTE_LENGTH_CMD | M1 | S8
0A277                           	tie
0A277 0F                        	.db NOTE_MASK
0A278                           	instrument 7
0A278 C7                        	.db INSTRUMENT_CMD | 7
0A279                           	note F_, 2
0A279 26                        	.db 2 << 4 | F_
0A27A                           	sound_ret
0A27A FF                        	.db SOUND_RET_CMD
0A27B                           
0A27B                           MusicData_SuperSonicBreak_FDS_2:
0A27B                           	instrument 7
0A27B C7                        	.db INSTRUMENT_CMD | 7
0A27C                           	volume_const
0A27C EF                        	.db FADE_CTRL_CMD + F_IN - 1
0A27D                           	note_length M1, S4
0A27D 84                        	.db NOTE_LENGTH_CMD | M1 | S4
0A27E                           	note F_, 2
0A27E 26                        	.db 2 << 4 | F_
0A27F                           	note F_, 2
0A27F 26                        	.db 2 << 4 | F_
0A280                           	instrument 9
0A280 C9                        	.db INSTRUMENT_CMD | 9
0A281                           	note D#, 5
0A281 54                        	.db 5 << 4 | D#
0A282                           	tie
0A282 0F                        	.db NOTE_MASK
0A283                           	sound_ret
0A283 FF                        	.db SOUND_RET_CMD
0A284                           .include "src/music/music-data/the-warm-up-is-over.asm"
0A284                           MusicData_TWUIO_Pulse1_1:
0A284                           	instrument 18
0A284 D2                        	.db INSTRUMENT_CMD | 18
0A285                           	volume_fade 1, 14
0A285 EF                        	.db FADE_CTRL_CMD | 1 | 14
0A286                           	note_length M1, S0_5
0A286 87                        	.db NOTE_LENGTH_CMD | M1 | S0_5
0A287                           	note C_, 5
0A287 51                        	.db 5 << 4 | C_
0A288                           	sound_ret
0A288 FF                        	.db SOUND_RET_CMD
0A289                           
0A289                           MusicData_TWUIO_Pulse1_2:
0A289                           	instrument 2
0A289 C2                        	.db INSTRUMENT_CMD | 2
0A28A                           	volume_const
0A28A EF                        	.db FADE_CTRL_CMD + F_IN - 1
0A28B                           	note_length M1, S4
0A28B 84                        	.db NOTE_LENGTH_CMD | M1 | S4
0A28C                           	note F_, 4
0A28C 46                        	.db 4 << 4 | F_
0A28D                           	note A_, 4
0A28D 4A                        	.db 4 << 4 | A_
0A28E                           	note_length M1_5, S4
0A28E 8C                        	.db NOTE_LENGTH_CMD | M1_5 | S4
0A28F                           	note G_, 4
0A28F 48                        	.db 4 << 4 | G_
0A290                           	note_length M1, S8
0A290 83                        	.db NOTE_LENGTH_CMD | M1 | S8
0A291                           	note A#, 4
0A291 4B                        	.db 4 << 4 | A#
0A292                           	note_length M1, S1
0A292 86                        	.db NOTE_LENGTH_CMD | M1 | S1
0A293                           	note C_, 5
0A293 51                        	.db 5 << 4 | C_
0A294                           	sound_ret
0A294 FF                        	.db SOUND_RET_CMD
0A295                           
0A295                           MusicData_TWUIO_Pulse1_3:
0A295                           	instrument 2
0A295 C2                        	.db INSTRUMENT_CMD | 2
0A296                           	volume_const
0A296 EF                        	.db FADE_CTRL_CMD + F_IN - 1
0A297                           	note_length M1, S4
0A297 84                        	.db NOTE_LENGTH_CMD | M1 | S4
0A298                           	note A_, 4
0A298 4A                        	.db 4 << 4 | A_
0A299                           	note C_, 5
0A299 51                        	.db 5 << 4 | C_
0A29A                           	note_length M1_5, S4
0A29A 8C                        	.db NOTE_LENGTH_CMD | M1_5 | S4
0A29B                           	note A#, 4
0A29B 4B                        	.db 4 << 4 | A#
0A29C                           	note_length M1, S8
0A29C 83                        	.db NOTE_LENGTH_CMD | M1 | S8
0A29D                           	note E_, 5
0A29D 55                        	.db 5 << 4 | E_
0A29E                           	note_length M1, S1
0A29E 86                        	.db NOTE_LENGTH_CMD | M1 | S1
0A29F                           	note F_, 5
0A29F 56                        	.db 5 << 4 | F_
0A2A0                           
0A2A0                           	note_length M1, S4
0A2A0 84                        	.db NOTE_LENGTH_CMD | M1 | S4
0A2A1                           	note C_, 4
0A2A1 41                        	.db 4 << 4 | C_
0A2A2                           	note E_, 4
0A2A2 45                        	.db 4 << 4 | E_
0A2A3                           	note D_, 4
0A2A3 43                        	.db 4 << 4 | D_
0A2A4                           	note F_, 4
0A2A4 46                        	.db 4 << 4 | F_
0A2A5                           	note_length M1, S2
0A2A5 85                        	.db NOTE_LENGTH_CMD | M1 | S2
0A2A6                           	note A_, 4
0A2A6 4A                        	.db 4 << 4 | A_
0A2A7                           	note A#, 4
0A2A7 4B                        	.db 4 << 4 | A#
0A2A8                           
0A2A8                           	note C_, 5
0A2A8 51                        	.db 5 << 4 | C_
0A2A9                           	note E_, 5
0A2A9 55                        	.db 5 << 4 | E_
0A2AA                           	note F_, 5
0A2AA 56                        	.db 5 << 4 | F_
0A2AB                           	note A_, 5
0A2AB 5A                        	.db 5 << 4 | A_
0A2AC                           
0A2AC                           	note_length M1, S16
0A2AC 82                        	.db NOTE_LENGTH_CMD | M1 | S16
0A2AD                           	note A#, 5
0A2AD 5B                        	.db 5 << 4 | A#
0A2AE                           	note A_, 5
0A2AE 5A                        	.db 5 << 4 | A_
0A2AF                           	note G_, 5
0A2AF 58                        	.db 5 << 4 | G_
0A2B0                           	note F_, 5
0A2B0 56                        	.db 5 << 4 | F_
0A2B1                           	note G_, 5
0A2B1 58                        	.db 5 << 4 | G_
0A2B2                           	note F_, 5
0A2B2 56                        	.db 5 << 4 | F_
0A2B3                           	note D#, 5
0A2B3 54                        	.db 5 << 4 | D#
0A2B4                           	note D_, 5
0A2B4 53                        	.db 5 << 4 | D_
0A2B5                           	note F_, 5
0A2B5 56                        	.db 5 << 4 | F_
0A2B6                           	note D#, 5
0A2B6 54                        	.db 5 << 4 | D#
0A2B7                           	note D_, 5
0A2B7 53                        	.db 5 << 4 | D_
0A2B8                           	note C_, 5
0A2B8 51                        	.db 5 << 4 | C_
0A2B9                           	note D#, 5
0A2B9 54                        	.db 5 << 4 | D#
0A2BA                           	note D_, 5
0A2BA 53                        	.db 5 << 4 | D_
0A2BB                           	note C_, 5
0A2BB 51                        	.db 5 << 4 | C_
0A2BC                           	note A#, 4
0A2BC 4B                        	.db 4 << 4 | A#
0A2BD                           	note C_, 4
0A2BD 41                        	.db 4 << 4 | C_
0A2BE                           	note D#, 4
0A2BE 44                        	.db 4 << 4 | D#
0A2BF                           	note G_, 4
0A2BF 48                        	.db 4 << 4 | G_
0A2C0                           	note A#, 4
0A2C0 4B                        	.db 4 << 4 | A#
0A2C1                           	note D_, 5
0A2C1 53                        	.db 5 << 4 | D_
0A2C2                           	note C_, 5
0A2C2 51                        	.db 5 << 4 | C_
0A2C3                           	note A#, 4
0A2C3 4B                        	.db 4 << 4 | A#
0A2C4                           	note G#, 4
0A2C4 49                        	.db 4 << 4 | G#
0A2C5                           	note A#, 4
0A2C5 4B                        	.db 4 << 4 | A#
0A2C6                           	note D_, 5
0A2C6 53                        	.db 5 << 4 | D_
0A2C7                           	note C_, 5
0A2C7 51                        	.db 5 << 4 | C_
0A2C8                           	note F_, 5
0A2C8 56                        	.db 5 << 4 | F_
0A2C9                           	note D#, 5
0A2C9 54                        	.db 5 << 4 | D#
0A2CA                           	note D_, 5
0A2CA 53                        	.db 5 << 4 | D_
0A2CB                           	note C_, 5
0A2CB 51                        	.db 5 << 4 | C_
0A2CC                           	note A#, 4
0A2CC 4B                        	.db 4 << 4 | A#
0A2CD                           
0A2CD                           	note_length M1, S2
0A2CD 85                        	.db NOTE_LENGTH_CMD | M1 | S2
0A2CE                           	note F_, 4
0A2CE 46                        	.db 4 << 4 | F_
0A2CF                           	note A_, 4
0A2CF 4A                        	.db 4 << 4 | A_
0A2D0                           	note_length M1, S8
0A2D0 83                        	.db NOTE_LENGTH_CMD | M1 | S8
0A2D1                           	note F_, 4
0A2D1 46                        	.db 4 << 4 | F_
0A2D2                           	note A_, 4
0A2D2 4A                        	.db 4 << 4 | A_
0A2D3                           	note C_, 5
0A2D3 51                        	.db 5 << 4 | C_
0A2D4                           	note A_, 4
0A2D4 4A                        	.db 4 << 4 | A_
0A2D5                           	note A#, 4
0A2D5 4B                        	.db 4 << 4 | A#
0A2D6                           	note C_, 5
0A2D6 51                        	.db 5 << 4 | C_
0A2D7                           	note D_, 5
0A2D7 53                        	.db 5 << 4 | D_
0A2D8                           	note E_, 5
0A2D8 55                        	.db 5 << 4 | E_
0A2D9                           	sound_ret
0A2D9 FF                        	.db SOUND_RET_CMD
0A2DA                           
0A2DA                           MusicData_TWUIO_Pulse2_1:
0A2DA                           	instrument 2
0A2DA C2                        	.db INSTRUMENT_CMD | 2
0A2DB                           	volume_const
0A2DB EF                        	.db FADE_CTRL_CMD + F_IN - 1
0A2DC                           	note_length M1_5, S16
0A2DC 8A                        	.db NOTE_LENGTH_CMD | M1_5 | S16
0A2DD                           	note E_, 4
0A2DD 45                        	.db 4 << 4 | E_
0A2DE                           	note_length M1, S32
0A2DE 81                        	.db NOTE_LENGTH_CMD | M1 | S32
0A2DF                           	rest
0A2DF 00                        	.db 0
0A2E0                           	note E_, 4
0A2E0 45                        	.db 4 << 4 | E_
0A2E1                           	rest
0A2E1 00                        	.db 0
0A2E2                           	note E_, 4
0A2E2 45                        	.db 4 << 4 | E_
0A2E3                           	rest
0A2E3 00                        	.db 0
0A2E4                           	note E_, 4
0A2E4 45                        	.db 4 << 4 | E_
0A2E5                           	rest
0A2E5 00                        	.db 0
0A2E6                           	note E_, 4
0A2E6 45                        	.db 4 << 4 | E_
0A2E7                           	rest
0A2E7 00                        	.db 0
0A2E8                           	note E_, 4
0A2E8 45                        	.db 4 << 4 | E_
0A2E9                           	rest
0A2E9 00                        	.db 0
0A2EA                           	note E_, 4
0A2EA 45                        	.db 4 << 4 | E_
0A2EB                           	rest
0A2EB 00                        	.db 0
0A2EC                           	note_length M1_5, S16
0A2EC 8A                        	.db NOTE_LENGTH_CMD | M1_5 | S16
0A2ED                           	note E_, 4
0A2ED 45                        	.db 4 << 4 | E_
0A2EE                           	note_length M1, S32
0A2EE 81                        	.db NOTE_LENGTH_CMD | M1 | S32
0A2EF                           	rest
0A2EF 00                        	.db 0
0A2F0                           	note E_, 4
0A2F0 45                        	.db 4 << 4 | E_
0A2F1                           	rest
0A2F1 00                        	.db 0
0A2F2                           	note E_, 4
0A2F2 45                        	.db 4 << 4 | E_
0A2F3                           	rest
0A2F3 00                        	.db 0
0A2F4                           	note E_, 4
0A2F4 45                        	.db 4 << 4 | E_
0A2F5                           	rest
0A2F5 00                        	.db 0
0A2F6                           	note E_, 4
0A2F6 45                        	.db 4 << 4 | E_
0A2F7                           	rest
0A2F7 00                        	.db 0
0A2F8                           	note E_, 4
0A2F8 45                        	.db 4 << 4 | E_
0A2F9                           	rest
0A2F9 00                        	.db 0
0A2FA                           	note E_, 4
0A2FA 45                        	.db 4 << 4 | E_
0A2FB                           	rest
0A2FB 00                        	.db 0
0A2FC                           	note_length M1_5, S16
0A2FC 8A                        	.db NOTE_LENGTH_CMD | M1_5 | S16
0A2FD                           	note E_, 4
0A2FD 45                        	.db 4 << 4 | E_
0A2FE                           	note_length M1, S32
0A2FE 81                        	.db NOTE_LENGTH_CMD | M1 | S32
0A2FF                           	rest
0A2FF 00                        	.db 0
0A300                           	note E_, 4
0A300 45                        	.db 4 << 4 | E_
0A301                           	rest
0A301 00                        	.db 0
0A302                           	note E_, 4
0A302 45                        	.db 4 << 4 | E_
0A303                           	rest
0A303 00                        	.db 0
0A304                           	note E_, 4
0A304 45                        	.db 4 << 4 | E_
0A305                           	rest
0A305 00                        	.db 0
0A306                           	note E_, 4
0A306 45                        	.db 4 << 4 | E_
0A307                           	rest
0A307 00                        	.db 0
0A308                           	note E_, 4
0A308 45                        	.db 4 << 4 | E_
0A309                           	rest
0A309 00                        	.db 0
0A30A                           	note E_, 4
0A30A 45                        	.db 4 << 4 | E_
0A30B                           	rest
0A30B 00                        	.db 0
0A30C                           	note_length M1_5, S16
0A30C 8A                        	.db NOTE_LENGTH_CMD | M1_5 | S16
0A30D                           	note E_, 4
0A30D 45                        	.db 4 << 4 | E_
0A30E                           	note_length M1, S32
0A30E 81                        	.db NOTE_LENGTH_CMD | M1 | S32
0A30F                           	rest
0A30F 00                        	.db 0
0A310                           	note_length M1_5, S16
0A310 8A                        	.db NOTE_LENGTH_CMD | M1_5 | S16
0A311                           	note E_, 4
0A311 45                        	.db 4 << 4 | E_
0A312                           	note_length M1, S32
0A312 81                        	.db NOTE_LENGTH_CMD | M1 | S32
0A313                           	rest
0A313 00                        	.db 0
0A314                           	note E_, 4
0A314 45                        	.db 4 << 4 | E_
0A315                           	rest
0A315 00                        	.db 0
0A316                           	note_length M1_5, S16
0A316 8A                        	.db NOTE_LENGTH_CMD | M1_5 | S16
0A317                           	note E_, 4
0A317 45                        	.db 4 << 4 | E_
0A318                           	rest
0A318 00                        	.db 0
0A319                           
0A319                           	note_length M1_5, S16
0A319 8A                        	.db NOTE_LENGTH_CMD | M1_5 | S16
0A31A                           	note E_, 4
0A31A 45                        	.db 4 << 4 | E_
0A31B                           	note_length M1, S32
0A31B 81                        	.db NOTE_LENGTH_CMD | M1 | S32
0A31C                           	rest
0A31C 00                        	.db 0
0A31D                           	note E_, 4
0A31D 45                        	.db 4 << 4 | E_
0A31E                           	rest
0A31E 00                        	.db 0
0A31F                           	note E_, 4
0A31F 45                        	.db 4 << 4 | E_
0A320                           	rest
0A320 00                        	.db 0
0A321                           	note E_, 4
0A321 45                        	.db 4 << 4 | E_
0A322                           	rest
0A322 00                        	.db 0
0A323                           	note E_, 4
0A323 45                        	.db 4 << 4 | E_
0A324                           	rest
0A324 00                        	.db 0
0A325                           	note E_, 4
0A325 45                        	.db 4 << 4 | E_
0A326                           	rest
0A326 00                        	.db 0
0A327                           	note E_, 4
0A327 45                        	.db 4 << 4 | E_
0A328                           	rest
0A328 00                        	.db 0
0A329                           	note_length M1_5, S16
0A329 8A                        	.db NOTE_LENGTH_CMD | M1_5 | S16
0A32A                           	note E_, 4
0A32A 45                        	.db 4 << 4 | E_
0A32B                           	note_length M1, S32
0A32B 81                        	.db NOTE_LENGTH_CMD | M1 | S32
0A32C                           	rest
0A32C 00                        	.db 0
0A32D                           	note E_, 4
0A32D 45                        	.db 4 << 4 | E_
0A32E                           	rest
0A32E 00                        	.db 0
0A32F                           	note E_, 4
0A32F 45                        	.db 4 << 4 | E_
0A330                           	rest
0A330 00                        	.db 0
0A331                           	note E_, 4
0A331 45                        	.db 4 << 4 | E_
0A332                           	rest
0A332 00                        	.db 0
0A333                           	note E_, 4
0A333 45                        	.db 4 << 4 | E_
0A334                           	rest
0A334 00                        	.db 0
0A335                           	note E_, 4
0A335 45                        	.db 4 << 4 | E_
0A336                           	rest
0A336 00                        	.db 0
0A337                           	note E_, 4
0A337 45                        	.db 4 << 4 | E_
0A338                           	rest
0A338 00                        	.db 0
0A339                           	note_length M1_5, S16
0A339 8A                        	.db NOTE_LENGTH_CMD | M1_5 | S16
0A33A                           	note E_, 4
0A33A 45                        	.db 4 << 4 | E_
0A33B                           	note_length M1, S32
0A33B 81                        	.db NOTE_LENGTH_CMD | M1 | S32
0A33C                           	rest
0A33C 00                        	.db 0
0A33D                           	note E_, 4
0A33D 45                        	.db 4 << 4 | E_
0A33E                           	rest
0A33E 00                        	.db 0
0A33F                           	note E_, 4
0A33F 45                        	.db 4 << 4 | E_
0A340                           	rest
0A340 00                        	.db 0
0A341                           	note E_, 4
0A341 45                        	.db 4 << 4 | E_
0A342                           	rest
0A342 00                        	.db 0
0A343                           	note E_, 4
0A343 45                        	.db 4 << 4 | E_
0A344                           	rest
0A344 00                        	.db 0
0A345                           	note E_, 4
0A345 45                        	.db 4 << 4 | E_
0A346                           	rest
0A346 00                        	.db 0
0A347                           	note E_, 4
0A347 45                        	.db 4 << 4 | E_
0A348                           	rest
0A348 00                        	.db 0
0A349                           	note E_, 4
0A349 45                        	.db 4 << 4 | E_
0A34A                           	rest
0A34A 00                        	.db 0
0A34B                           	note E_, 4
0A34B 45                        	.db 4 << 4 | E_
0A34C                           	rest
0A34C 00                        	.db 0
0A34D                           	note E_, 4
0A34D 45                        	.db 4 << 4 | E_
0A34E                           	rest
0A34E 00                        	.db 0
0A34F                           	note E_, 4
0A34F 45                        	.db 4 << 4 | E_
0A350                           	rest
0A350 00                        	.db 0
0A351                           	note E_, 4
0A351 45                        	.db 4 << 4 | E_
0A352                           	rest
0A352 00                        	.db 0
0A353                           	note E_, 4
0A353 45                        	.db 4 << 4 | E_
0A354                           	rest
0A354 00                        	.db 0
0A355                           	note E_, 4
0A355 45                        	.db 4 << 4 | E_
0A356                           	rest
0A356 00                        	.db 0
0A357                           	note E_, 4
0A357 45                        	.db 4 << 4 | E_
0A358                           	rest
0A358 00                        	.db 0
0A359                           	sound_ret
0A359 FF                        	.db SOUND_RET_CMD
0A35A                           
0A35A                           MusicData_TWUIO_Pulse2_2:
0A35A                           	note_length M1_5, S16
0A35A 8A                        	.db NOTE_LENGTH_CMD | M1_5 | S16
0A35B                           	note F_, 4
0A35B 46                        	.db 4 << 4 | F_
0A35C                           	note_length M1, S32
0A35C 81                        	.db NOTE_LENGTH_CMD | M1 | S32
0A35D                           	rest
0A35D 00                        	.db 0
0A35E                           	note F_, 4
0A35E 46                        	.db 4 << 4 | F_
0A35F                           	rest
0A35F 00                        	.db 0
0A360                           	note F_, 4
0A360 46                        	.db 4 << 4 | F_
0A361                           	rest
0A361 00                        	.db 0
0A362                           	note F_, 4
0A362 46                        	.db 4 << 4 | F_
0A363                           	rest
0A363 00                        	.db 0
0A364                           	note F_, 4
0A364 46                        	.db 4 << 4 | F_
0A365                           	rest
0A365 00                        	.db 0
0A366                           	note F_, 4
0A366 46                        	.db 4 << 4 | F_
0A367                           	rest
0A367 00                        	.db 0
0A368                           	note F_, 4
0A368 46                        	.db 4 << 4 | F_
0A369                           	rest
0A369 00                        	.db 0
0A36A                           	note_length M1_5, S16
0A36A 8A                        	.db NOTE_LENGTH_CMD | M1_5 | S16
0A36B                           	note F_, 4
0A36B 46                        	.db 4 << 4 | F_
0A36C                           	note_length M1, S32
0A36C 81                        	.db NOTE_LENGTH_CMD | M1 | S32
0A36D                           	rest
0A36D 00                        	.db 0
0A36E                           	note F_, 4
0A36E 46                        	.db 4 << 4 | F_
0A36F                           	rest
0A36F 00                        	.db 0
0A370                           	note F_, 4
0A370 46                        	.db 4 << 4 | F_
0A371                           	rest
0A371 00                        	.db 0
0A372                           	note F_, 4
0A372 46                        	.db 4 << 4 | F_
0A373                           	rest
0A373 00                        	.db 0
0A374                           	note F_, 4
0A374 46                        	.db 4 << 4 | F_
0A375                           	rest
0A375 00                        	.db 0
0A376                           	note F_, 4
0A376 46                        	.db 4 << 4 | F_
0A377                           	rest
0A377 00                        	.db 0
0A378                           	note F_, 4
0A378 46                        	.db 4 << 4 | F_
0A379                           	rest
0A379 00                        	.db 0
0A37A                           	note_length M1_5, S16
0A37A 8A                        	.db NOTE_LENGTH_CMD | M1_5 | S16
0A37B                           	note G_, 4
0A37B 48                        	.db 4 << 4 | G_
0A37C                           	note_length M1, S32
0A37C 81                        	.db NOTE_LENGTH_CMD | M1 | S32
0A37D                           	rest
0A37D 00                        	.db 0
0A37E                           	note G_, 4
0A37E 48                        	.db 4 << 4 | G_
0A37F                           	rest
0A37F 00                        	.db 0
0A380                           	note G_, 4
0A380 48                        	.db 4 << 4 | G_
0A381                           	rest
0A381 00                        	.db 0
0A382                           	note G_, 4
0A382 48                        	.db 4 << 4 | G_
0A383                           	rest
0A383 00                        	.db 0
0A384                           	note G_, 4
0A384 48                        	.db 4 << 4 | G_
0A385                           	rest
0A385 00                        	.db 0
0A386                           	note G_, 4
0A386 48                        	.db 4 << 4 | G_
0A387                           	rest
0A387 00                        	.db 0
0A388                           	note G_, 4
0A388 48                        	.db 4 << 4 | G_
0A389                           	rest
0A389 00                        	.db 0
0A38A                           	note_length M1_5, S16
0A38A 8A                        	.db NOTE_LENGTH_CMD | M1_5 | S16
0A38B                           	note A#, 4
0A38B 4B                        	.db 4 << 4 | A#
0A38C                           	note_length M1, S32
0A38C 81                        	.db NOTE_LENGTH_CMD | M1 | S32
0A38D                           	rest
0A38D 00                        	.db 0
0A38E                           	note A#, 4
0A38E 4B                        	.db 4 << 4 | A#
0A38F                           	rest
0A38F 00                        	.db 0
0A390                           	note A#, 4
0A390 4B                        	.db 4 << 4 | A#
0A391                           	rest
0A391 00                        	.db 0
0A392                           	note_length M1_5, S16
0A392 8A                        	.db NOTE_LENGTH_CMD | M1_5 | S16
0A393                           	note D#, 5
0A393 54                        	.db 5 << 4 | D#
0A394                           	note_length M1, S32
0A394 81                        	.db NOTE_LENGTH_CMD | M1 | S32
0A395                           	rest
0A395 00                        	.db 0
0A396                           	note_length M1, S8
0A396 83                        	.db NOTE_LENGTH_CMD | M1 | S8
0A397                           	rest
0A397 00                        	.db 0
0A398                           
0A398                           	note_length M1, S2
0A398 85                        	.db NOTE_LENGTH_CMD | M1 | S2
0A399                           	note C_, 4
0A399 41                        	.db 4 << 4 | C_
0A39A                           	note C_, 4
0A39A 41                        	.db 4 << 4 | C_
0A39B                           	note_length M1, S4
0A39B 84                        	.db NOTE_LENGTH_CMD | M1 | S4
0A39C                           	note C_, 4
0A39C 41                        	.db 4 << 4 | C_
0A39D                           	note C_, 4
0A39D 41                        	.db 4 << 4 | C_
0A39E                           	note_length M1, S16
0A39E 82                        	.db NOTE_LENGTH_CMD | M1 | S16
0A39F                           	note C_, 4
0A39F 41                        	.db 4 << 4 | C_
0A3A0                           	rest
0A3A0 00                        	.db 0
0A3A1                           	note C_, 4
0A3A1 41                        	.db 4 << 4 | C_
0A3A2                           	rest
0A3A2 00                        	.db 0
0A3A3                           	note C_, 4
0A3A3 41                        	.db 4 << 4 | C_
0A3A4                           	rest
0A3A4 00                        	.db 0
0A3A5                           	note C_, 4
0A3A5 41                        	.db 4 << 4 | C_
0A3A6                           	rest
0A3A6 00                        	.db 0
0A3A7                           	sound_ret
0A3A7 FF                        	.db SOUND_RET_CMD
0A3A8                           
0A3A8                           MusicData_TWUIO_Hill_1:
0A3A8                           	instrument 0
0A3A8 C0                        	.db INSTRUMENT_CMD | 0
0A3A9                           	note_length M1_5, S16
0A3A9 8A                        	.db NOTE_LENGTH_CMD | M1_5 | S16
0A3AA                           	note C_, 2
0A3AA 21                        	.db 2 << 4 | C_
0A3AB                           	note_length M1, S32
0A3AB 81                        	.db NOTE_LENGTH_CMD | M1 | S32
0A3AC                           	rest
0A3AC 00                        	.db 0
0A3AD                           	note_length M1_5, S8
0A3AD 8B                        	.db NOTE_LENGTH_CMD | M1_5 | S8
0A3AE                           	note C_, 3
0A3AE 31                        	.db 3 << 4 | C_
0A3AF                           	note_length M1, S32
0A3AF 81                        	.db NOTE_LENGTH_CMD | M1 | S32
0A3B0                           	tie
0A3B0 0F                        	.db NOTE_MASK
0A3B1                           	rest
0A3B1 00                        	.db 0
0A3B2                           	instrument 21
0A3B2 D5                        	.db INSTRUMENT_CMD | 21
0A3B3                           	note_length M1, S16
0A3B3 82                        	.db NOTE_LENGTH_CMD | M1 | S16
0A3B4                           	note G_, 2
0A3B4 28                        	.db 2 << 4 | G_
0A3B5                           	note_length M1_5, S16
0A3B5 8A                        	.db NOTE_LENGTH_CMD | M1_5 | S16
0A3B6                           	note A_, 2
0A3B6 2A                        	.db 2 << 4 | A_
0A3B7                           	note_length M1, S32
0A3B7 81                        	.db NOTE_LENGTH_CMD | M1 | S32
0A3B8                           	rest
0A3B8 00                        	.db 0
0A3B9                           	instrument 0
0A3B9 C0                        	.db INSTRUMENT_CMD | 0
0A3BA                           	note_length M1_5, S4
0A3BA 8C                        	.db NOTE_LENGTH_CMD | M1_5 | S4
0A3BB                           	note A#, 2
0A3BB 2B                        	.db 2 << 4 | A#
0A3BC                           	note_length M1_5, S16
0A3BC 8A                        	.db NOTE_LENGTH_CMD | M1_5 | S16
0A3BD                           	tie
0A3BD 0F                        	.db NOTE_MASK
0A3BE                           	note_length M1, S32
0A3BE 81                        	.db NOTE_LENGTH_CMD | M1 | S32
0A3BF                           	rest
0A3BF 00                        	.db 0
0A3C0                           	note_length M1_5, S16
0A3C0 8A                        	.db NOTE_LENGTH_CMD | M1_5 | S16
0A3C1                           	note C_, 2
0A3C1 21                        	.db 2 << 4 | C_
0A3C2                           	note_length M1, S32
0A3C2 81                        	.db NOTE_LENGTH_CMD | M1 | S32
0A3C3                           	rest
0A3C3 00                        	.db 0
0A3C4                           	note_length M1_5, S8
0A3C4 8B                        	.db NOTE_LENGTH_CMD | M1_5 | S8
0A3C5                           	note C_, 3
0A3C5 31                        	.db 3 << 4 | C_
0A3C6                           	note_length M1, S32
0A3C6 81                        	.db NOTE_LENGTH_CMD | M1 | S32
0A3C7                           	tie
0A3C7 0F                        	.db NOTE_MASK
0A3C8                           	rest
0A3C8 00                        	.db 0
0A3C9                           	instrument 21
0A3C9 D5                        	.db INSTRUMENT_CMD | 21
0A3CA                           	note_length M1, S16
0A3CA 82                        	.db NOTE_LENGTH_CMD | M1 | S16
0A3CB                           	note G_, 2
0A3CB 28                        	.db 2 << 4 | G_
0A3CC                           	note_length M1_5, S16
0A3CC 8A                        	.db NOTE_LENGTH_CMD | M1_5 | S16
0A3CD                           	note A_, 2
0A3CD 2A                        	.db 2 << 4 | A_
0A3CE                           	note_length M1, S32
0A3CE 81                        	.db NOTE_LENGTH_CMD | M1 | S32
0A3CF                           	rest
0A3CF 00                        	.db 0
0A3D0                           	note_length M1_5, S16
0A3D0 8A                        	.db NOTE_LENGTH_CMD | M1_5 | S16
0A3D1                           	note A#, 2
0A3D1 2B                        	.db 2 << 4 | A#
0A3D2                           	note_length M1, S32
0A3D2 81                        	.db NOTE_LENGTH_CMD | M1 | S32
0A3D3                           	rest
0A3D3 00                        	.db 0
0A3D4                           	note_length M1_5, S16
0A3D4 8A                        	.db NOTE_LENGTH_CMD | M1_5 | S16
0A3D5                           	note A#, 2
0A3D5 2B                        	.db 2 << 4 | A#
0A3D6                           	note_length M1, S32
0A3D6 81                        	.db NOTE_LENGTH_CMD | M1 | S32
0A3D7                           	rest
0A3D7 00                        	.db 0
0A3D8                           	note_length M1, S16
0A3D8 82                        	.db NOTE_LENGTH_CMD | M1 | S16
0A3D9                           	note A#, 2
0A3D9 2B                        	.db 2 << 4 | A#
0A3DA                           	instrument 0
0A3DA C0                        	.db INSTRUMENT_CMD | 0
0A3DB                           	note_length M1_5, S8
0A3DB 8B                        	.db NOTE_LENGTH_CMD | M1_5 | S8
0A3DC                           	note A#, 2
0A3DC 2B                        	.db 2 << 4 | A#
0A3DD                           	note_length M1, S32
0A3DD 81                        	.db NOTE_LENGTH_CMD | M1 | S32
0A3DE                           	tie
0A3DE 0F                        	.db NOTE_MASK
0A3DF                           	rest
0A3DF 00                        	.db 0
0A3E0                           	sound_ret
0A3E0 FF                        	.db SOUND_RET_CMD
0A3E1                           
0A3E1                           MusicData_TWUIO_Hill_2:
0A3E1                           	instrument 0
0A3E1 C0                        	.db INSTRUMENT_CMD | 0
0A3E2                           	note_length M1_5, S16
0A3E2 8A                        	.db NOTE_LENGTH_CMD | M1_5 | S16
0A3E3                           	note C_, 2
0A3E3 21                        	.db 2 << 4 | C_
0A3E4                           	note_length M1, S32
0A3E4 81                        	.db NOTE_LENGTH_CMD | M1 | S32
0A3E5                           	rest
0A3E5 00                        	.db 0
0A3E6                           	note_length M1_5, S8
0A3E6 8B                        	.db NOTE_LENGTH_CMD | M1_5 | S8
0A3E7                           	note C_, 3
0A3E7 31                        	.db 3 << 4 | C_
0A3E8                           	note_length M1, S32
0A3E8 81                        	.db NOTE_LENGTH_CMD | M1 | S32
0A3E9                           	tie
0A3E9 0F                        	.db NOTE_MASK
0A3EA                           	rest
0A3EA 00                        	.db 0
0A3EB                           	instrument 21
0A3EB D5                        	.db INSTRUMENT_CMD | 21
0A3EC                           	note_length M1, S16
0A3EC 82                        	.db NOTE_LENGTH_CMD | M1 | S16
0A3ED                           	note G_, 2
0A3ED 28                        	.db 2 << 4 | G_
0A3EE                           	note_length M1_5, S16
0A3EE 8A                        	.db NOTE_LENGTH_CMD | M1_5 | S16
0A3EF                           	note A_, 2
0A3EF 2A                        	.db 2 << 4 | A_
0A3F0                           	note_length M1, S32
0A3F0 81                        	.db NOTE_LENGTH_CMD | M1 | S32
0A3F1                           	rest
0A3F1 00                        	.db 0
0A3F2                           	instrument 0
0A3F2 C0                        	.db INSTRUMENT_CMD | 0
0A3F3                           	note_length M1_5, S4
0A3F3 8C                        	.db NOTE_LENGTH_CMD | M1_5 | S4
0A3F4                           	note A#, 2
0A3F4 2B                        	.db 2 << 4 | A#
0A3F5                           	note_length M1_5, S16
0A3F5 8A                        	.db NOTE_LENGTH_CMD | M1_5 | S16
0A3F6                           	tie
0A3F6 0F                        	.db NOTE_MASK
0A3F7                           	note_length M1_5, S16
0A3F7 8A                        	.db NOTE_LENGTH_CMD | M1_5 | S16
0A3F8                           	note F_, 2
0A3F8 26                        	.db 2 << 4 | F_
0A3F9                           	note_length M1, S32
0A3F9 81                        	.db NOTE_LENGTH_CMD | M1 | S32
0A3FA                           	rest
0A3FA 00                        	.db 0
0A3FB                           	note_length M1_5, S8
0A3FB 8B                        	.db NOTE_LENGTH_CMD | M1_5 | S8
0A3FC                           	note F_, 3
0A3FC 36                        	.db 3 << 4 | F_
0A3FD                           	note_length M1, S32
0A3FD 81                        	.db NOTE_LENGTH_CMD | M1 | S32
0A3FE                           	tie
0A3FE 0F                        	.db NOTE_MASK
0A3FF                           	rest
0A3FF 00                        	.db 0
0A400                           	instrument 21
0A400 D5                        	.db INSTRUMENT_CMD | 21
0A401                           	note_length M1, S16
0A401 82                        	.db NOTE_LENGTH_CMD | M1 | S16
0A402                           	note C_, 3
0A402 31                        	.db 3 << 4 | C_
0A403                           	note_length M1_5, S16
0A403 8A                        	.db NOTE_LENGTH_CMD | M1_5 | S16
0A404                           	note D_, 3
0A404 33                        	.db 3 << 4 | D_
0A405                           	note_length M1, S32
0A405 81                        	.db NOTE_LENGTH_CMD | M1 | S32
0A406                           	rest
0A406 00                        	.db 0
0A407                           	note_length M1_5, S16
0A407 8A                        	.db NOTE_LENGTH_CMD | M1_5 | S16
0A408                           	note D#, 3
0A408 34                        	.db 3 << 4 | D#
0A409                           	note_length M1, S32
0A409 81                        	.db NOTE_LENGTH_CMD | M1 | S32
0A40A                           	rest
0A40A 00                        	.db 0
0A40B                           	note_length M1_5, S16
0A40B 8A                        	.db NOTE_LENGTH_CMD | M1_5 | S16
0A40C                           	note D#, 3
0A40C 34                        	.db 3 << 4 | D#
0A40D                           	note_length M1, S32
0A40D 81                        	.db NOTE_LENGTH_CMD | M1 | S32
0A40E                           	rest
0A40E 00                        	.db 0
0A40F                           	note_length M1_5, S16
0A40F 8A                        	.db NOTE_LENGTH_CMD | M1_5 | S16
0A410                           	note D_, 3
0A410 33                        	.db 3 << 4 | D_
0A411                           	note_length M1, S32
0A411 81                        	.db NOTE_LENGTH_CMD | M1 | S32
0A412                           	rest
0A412 00                        	.db 0
0A413                           	note_length M1_5, S16
0A413 8A                        	.db NOTE_LENGTH_CMD | M1_5 | S16
0A414                           	note C#, 3
0A414 32                        	.db 3 << 4 | C#
0A415                           	note_length M1, S32
0A415 81                        	.db NOTE_LENGTH_CMD | M1 | S32
0A416                           	rest
0A416 00                        	.db 0
0A417                           	sound_ret
0A417 FF                        	.db SOUND_RET_CMD
0A418                           
0A418                           MusicData_TWUIO_Hill_3:
0A418                           	instrument 0
0A418 C0                        	.db INSTRUMENT_CMD | 0
0A419                           	note_length M1_5, S16
0A419 8A                        	.db NOTE_LENGTH_CMD | M1_5 | S16
0A41A                           	note C_, 2
0A41A 21                        	.db 2 << 4 | C_
0A41B                           	note_length M1, S32
0A41B 81                        	.db NOTE_LENGTH_CMD | M1 | S32
0A41C                           	rest
0A41C 00                        	.db 0
0A41D                           	note_length M1_5, S8
0A41D 8B                        	.db NOTE_LENGTH_CMD | M1_5 | S8
0A41E                           	note C_, 3
0A41E 31                        	.db 3 << 4 | C_
0A41F                           	note_length M1, S32
0A41F 81                        	.db NOTE_LENGTH_CMD | M1 | S32
0A420                           	tie
0A420 0F                        	.db NOTE_MASK
0A421                           	rest
0A421 00                        	.db 0
0A422                           	instrument 21
0A422 D5                        	.db INSTRUMENT_CMD | 21
0A423                           	note_length M1, S16
0A423 82                        	.db NOTE_LENGTH_CMD | M1 | S16
0A424                           	note G_, 2
0A424 28                        	.db 2 << 4 | G_
0A425                           	note_length M1_5, S16
0A425 8A                        	.db NOTE_LENGTH_CMD | M1_5 | S16
0A426                           	note G#, 2
0A426 29                        	.db 2 << 4 | G#
0A427                           	note_length M1, S32
0A427 81                        	.db NOTE_LENGTH_CMD | M1 | S32
0A428                           	rest
0A428 00                        	.db 0
0A429                           	instrument 0
0A429 C0                        	.db INSTRUMENT_CMD | 0
0A42A                           	note_length M1_5, S4
0A42A 8C                        	.db NOTE_LENGTH_CMD | M1_5 | S4
0A42B                           	note A#, 2
0A42B 2B                        	.db 2 << 4 | A#
0A42C                           	note_length M1_5, S16
0A42C 8A                        	.db NOTE_LENGTH_CMD | M1_5 | S16
0A42D                           	tie
0A42D 0F                        	.db NOTE_MASK
0A42E                           	note_length M1_5, S16
0A42E 8A                        	.db NOTE_LENGTH_CMD | M1_5 | S16
0A42F                           	note F_, 2
0A42F 26                        	.db 2 << 4 | F_
0A430                           	note_length M1, S32
0A430 81                        	.db NOTE_LENGTH_CMD | M1 | S32
0A431                           	rest
0A431 00                        	.db 0
0A432                           	note_length M1_5, S8
0A432 8B                        	.db NOTE_LENGTH_CMD | M1_5 | S8
0A433                           	note F_, 3
0A433 36                        	.db 3 << 4 | F_
0A434                           	note_length M1, S32
0A434 81                        	.db NOTE_LENGTH_CMD | M1 | S32
0A435                           	tie
0A435 0F                        	.db NOTE_MASK
0A436                           	rest
0A436 00                        	.db 0
0A437                           	instrument 21
0A437 D5                        	.db INSTRUMENT_CMD | 21
0A438                           	note_length M1, S16
0A438 82                        	.db NOTE_LENGTH_CMD | M1 | S16
0A439                           	note C_, 3
0A439 31                        	.db 3 << 4 | C_
0A43A                           	note_length M1_5, S16
0A43A 8A                        	.db NOTE_LENGTH_CMD | M1_5 | S16
0A43B                           	note D_, 3
0A43B 33                        	.db 3 << 4 | D_
0A43C                           	note_length M1, S32
0A43C 81                        	.db NOTE_LENGTH_CMD | M1 | S32
0A43D                           	rest
0A43D 00                        	.db 0
0A43E                           	note_length M1_5, S16
0A43E 8A                        	.db NOTE_LENGTH_CMD | M1_5 | S16
0A43F                           	note D#, 3
0A43F 34                        	.db 3 << 4 | D#
0A440                           	note_length M1, S32
0A440 81                        	.db NOTE_LENGTH_CMD | M1 | S32
0A441                           	rest
0A441 00                        	.db 0
0A442                           	note_length M1_5, S16
0A442 8A                        	.db NOTE_LENGTH_CMD | M1_5 | S16
0A443                           	note D#, 3
0A443 34                        	.db 3 << 4 | D#
0A444                           	note_length M1, S32
0A444 81                        	.db NOTE_LENGTH_CMD | M1 | S32
0A445                           	rest
0A445 00                        	.db 0
0A446                           	note_length M1_5, S16
0A446 8A                        	.db NOTE_LENGTH_CMD | M1_5 | S16
0A447                           	note D_, 3
0A447 33                        	.db 3 << 4 | D_
0A448                           	note_length M1, S32
0A448 81                        	.db NOTE_LENGTH_CMD | M1 | S32
0A449                           	rest
0A449 00                        	.db 0
0A44A                           	note_length M1_5, S16
0A44A 8A                        	.db NOTE_LENGTH_CMD | M1_5 | S16
0A44B                           	note C#, 3
0A44B 32                        	.db 3 << 4 | C#
0A44C                           	note_length M1, S32
0A44C 81                        	.db NOTE_LENGTH_CMD | M1 | S32
0A44D                           	rest
0A44D 00                        	.db 0
0A44E                           	note_length M1_5, S16
0A44E 8A                        	.db NOTE_LENGTH_CMD | M1_5 | S16
0A44F                           	note A#, 2
0A44F 2B                        	.db 2 << 4 | A#
0A450                           	note_length M1, S32
0A450 81                        	.db NOTE_LENGTH_CMD | M1 | S32
0A451                           	rest
0A451 00                        	.db 0
0A452                           	note_length M1_5, S16
0A452 8A                        	.db NOTE_LENGTH_CMD | M1_5 | S16
0A453                           	note A#, 3
0A453 3B                        	.db 3 << 4 | A#
0A454                           	note_length M1, S32
0A454 81                        	.db NOTE_LENGTH_CMD | M1 | S32
0A455                           	rest
0A455 00                        	.db 0
0A456                           	note_length M1_5, S16
0A456 8A                        	.db NOTE_LENGTH_CMD | M1_5 | S16
0A457                           	note A#, 2
0A457 2B                        	.db 2 << 4 | A#
0A458                           	note_length M1, S32
0A458 81                        	.db NOTE_LENGTH_CMD | M1 | S32
0A459                           	rest
0A459 00                        	.db 0
0A45A                           	note_length M1_5, S16
0A45A 8A                        	.db NOTE_LENGTH_CMD | M1_5 | S16
0A45B                           	note A#, 3
0A45B 3B                        	.db 3 << 4 | A#
0A45C                           	note_length M1, S32
0A45C 81                        	.db NOTE_LENGTH_CMD | M1 | S32
0A45D                           	rest
0A45D 00                        	.db 0
0A45E                           	note_length M1_5, S16
0A45E 8A                        	.db NOTE_LENGTH_CMD | M1_5 | S16
0A45F                           	note G#, 2
0A45F 29                        	.db 2 << 4 | G#
0A460                           	note_length M1, S32
0A460 81                        	.db NOTE_LENGTH_CMD | M1 | S32
0A461                           	rest
0A461 00                        	.db 0
0A462                           	note_length M1_5, S16
0A462 8A                        	.db NOTE_LENGTH_CMD | M1_5 | S16
0A463                           	note G#, 3
0A463 39                        	.db 3 << 4 | G#
0A464                           	note_length M1, S32
0A464 81                        	.db NOTE_LENGTH_CMD | M1 | S32
0A465                           	rest
0A465 00                        	.db 0
0A466                           	note_length M1_5, S16
0A466 8A                        	.db NOTE_LENGTH_CMD | M1_5 | S16
0A467                           	note G#, 2
0A467 29                        	.db 2 << 4 | G#
0A468                           	note_length M1, S32
0A468 81                        	.db NOTE_LENGTH_CMD | M1 | S32
0A469                           	rest
0A469 00                        	.db 0
0A46A                           	note_length M1_5, S16
0A46A 8A                        	.db NOTE_LENGTH_CMD | M1_5 | S16
0A46B                           	note G#, 3
0A46B 39                        	.db 3 << 4 | G#
0A46C                           	note_length M1, S32
0A46C 81                        	.db NOTE_LENGTH_CMD | M1 | S32
0A46D                           	rest
0A46D 00                        	.db 0
0A46E                           	note_length M1_5, S16
0A46E 8A                        	.db NOTE_LENGTH_CMD | M1_5 | S16
0A46F                           	note F_, 2
0A46F 26                        	.db 2 << 4 | F_
0A470                           	note_length M1, S32
0A470 81                        	.db NOTE_LENGTH_CMD | M1 | S32
0A471                           	rest
0A471 00                        	.db 0
0A472                           	note_length M1_5, S16
0A472 8A                        	.db NOTE_LENGTH_CMD | M1_5 | S16
0A473                           	note F_, 3
0A473 36                        	.db 3 << 4 | F_
0A474                           	note_length M1, S32
0A474 81                        	.db NOTE_LENGTH_CMD | M1 | S32
0A475                           	rest
0A475 00                        	.db 0
0A476                           	note_length M1_5, S16
0A476 8A                        	.db NOTE_LENGTH_CMD | M1_5 | S16
0A477                           	note F_, 2
0A477 26                        	.db 2 << 4 | F_
0A478                           	note_length M1, S32
0A478 81                        	.db NOTE_LENGTH_CMD | M1 | S32
0A479                           	rest
0A479 00                        	.db 0
0A47A                           	note_length M1_5, S16
0A47A 8A                        	.db NOTE_LENGTH_CMD | M1_5 | S16
0A47B                           	note F_, 3
0A47B 36                        	.db 3 << 4 | F_
0A47C                           	note_length M1, S32
0A47C 81                        	.db NOTE_LENGTH_CMD | M1 | S32
0A47D                           	rest
0A47D 00                        	.db 0
0A47E                           	note_length M1_5, S16
0A47E 8A                        	.db NOTE_LENGTH_CMD | M1_5 | S16
0A47F                           	note F_, 2
0A47F 26                        	.db 2 << 4 | F_
0A480                           	note_length M1, S32
0A480 81                        	.db NOTE_LENGTH_CMD | M1 | S32
0A481                           	rest
0A481 00                        	.db 0
0A482                           	note_length M1_5, S16
0A482 8A                        	.db NOTE_LENGTH_CMD | M1_5 | S16
0A483                           	note F_, 3
0A483 36                        	.db 3 << 4 | F_
0A484                           	note_length M1, S32
0A484 81                        	.db NOTE_LENGTH_CMD | M1 | S32
0A485                           	rest
0A485 00                        	.db 0
0A486                           	note_length M1_5, S16
0A486 8A                        	.db NOTE_LENGTH_CMD | M1_5 | S16
0A487                           	note C_, 2
0A487 21                        	.db 2 << 4 | C_
0A488                           	note_length M1, S32
0A488 81                        	.db NOTE_LENGTH_CMD | M1 | S32
0A489                           	rest
0A489 00                        	.db 0
0A48A                           	note_length M1_5, S16
0A48A 8A                        	.db NOTE_LENGTH_CMD | M1_5 | S16
0A48B                           	note C_, 3
0A48B 31                        	.db 3 << 4 | C_
0A48C                           	note_length M1, S32
0A48C 81                        	.db NOTE_LENGTH_CMD | M1 | S32
0A48D                           	rest
0A48D 00                        	.db 0
0A48E                           	note_length M1_5, S16
0A48E 8A                        	.db NOTE_LENGTH_CMD | M1_5 | S16
0A48F                           	note F_, 2
0A48F 26                        	.db 2 << 4 | F_
0A490                           	note_length M1, S32
0A490 81                        	.db NOTE_LENGTH_CMD | M1 | S32
0A491                           	rest
0A491 00                        	.db 0
0A492                           	note_length M1_5, S16
0A492 8A                        	.db NOTE_LENGTH_CMD | M1_5 | S16
0A493                           	note F_, 3
0A493 36                        	.db 3 << 4 | F_
0A494                           	note_length M1, S32
0A494 81                        	.db NOTE_LENGTH_CMD | M1 | S32
0A495                           	rest
0A495 00                        	.db 0
0A496                           	note_length M1_5, S16
0A496 8A                        	.db NOTE_LENGTH_CMD | M1_5 | S16
0A497                           	note F_, 2
0A497 26                        	.db 2 << 4 | F_
0A498                           	note_length M1, S32
0A498 81                        	.db NOTE_LENGTH_CMD | M1 | S32
0A499                           	rest
0A499 00                        	.db 0
0A49A                           	note_length M1_5, S16
0A49A 8A                        	.db NOTE_LENGTH_CMD | M1_5 | S16
0A49B                           	note F_, 3
0A49B 36                        	.db 3 << 4 | F_
0A49C                           	note_length M1, S32
0A49C 81                        	.db NOTE_LENGTH_CMD | M1 | S32
0A49D                           	rest
0A49D 00                        	.db 0
0A49E                           	note_length M1_5, S16
0A49E 8A                        	.db NOTE_LENGTH_CMD | M1_5 | S16
0A49F                           	note F_, 2
0A49F 26                        	.db 2 << 4 | F_
0A4A0                           	note_length M1, S32
0A4A0 81                        	.db NOTE_LENGTH_CMD | M1 | S32
0A4A1                           	rest
0A4A1 00                        	.db 0
0A4A2                           	note_length M1_5, S16
0A4A2 8A                        	.db NOTE_LENGTH_CMD | M1_5 | S16
0A4A3                           	note F_, 3
0A4A3 36                        	.db 3 << 4 | F_
0A4A4                           	note_length M1, S32
0A4A4 81                        	.db NOTE_LENGTH_CMD | M1 | S32
0A4A5                           	rest
0A4A5 00                        	.db 0
0A4A6                           	note_length M1_5, S16
0A4A6 8A                        	.db NOTE_LENGTH_CMD | M1_5 | S16
0A4A7                           	note C_, 2
0A4A7 21                        	.db 2 << 4 | C_
0A4A8                           	note_length M1, S32
0A4A8 81                        	.db NOTE_LENGTH_CMD | M1 | S32
0A4A9                           	rest
0A4A9 00                        	.db 0
0A4AA                           	note_length M1_5, S16
0A4AA 8A                        	.db NOTE_LENGTH_CMD | M1_5 | S16
0A4AB                           	note C_, 3
0A4AB 31                        	.db 3 << 4 | C_
0A4AC                           	note_length M1, S32
0A4AC 81                        	.db NOTE_LENGTH_CMD | M1 | S32
0A4AD                           	rest
0A4AD 00                        	.db 0
0A4AE                           	note_length M1_5, S16
0A4AE 8A                        	.db NOTE_LENGTH_CMD | M1_5 | S16
0A4AF                           	note F_, 2
0A4AF 26                        	.db 2 << 4 | F_
0A4B0                           	note_length M1, S32
0A4B0 81                        	.db NOTE_LENGTH_CMD | M1 | S32
0A4B1                           	rest
0A4B1 00                        	.db 0
0A4B2                           	note_length M1_5, S16
0A4B2 8A                        	.db NOTE_LENGTH_CMD | M1_5 | S16
0A4B3                           	note F_, 3
0A4B3 36                        	.db 3 << 4 | F_
0A4B4                           	note_length M1, S32
0A4B4 81                        	.db NOTE_LENGTH_CMD | M1 | S32
0A4B5                           	rest
0A4B5 00                        	.db 0
0A4B6                           	note_length M1_5, S16
0A4B6 8A                        	.db NOTE_LENGTH_CMD | M1_5 | S16
0A4B7                           	note F_, 2
0A4B7 26                        	.db 2 << 4 | F_
0A4B8                           	note_length M1, S32
0A4B8 81                        	.db NOTE_LENGTH_CMD | M1 | S32
0A4B9                           	rest
0A4B9 00                        	.db 0
0A4BA                           	note_length M1_5, S16
0A4BA 8A                        	.db NOTE_LENGTH_CMD | M1_5 | S16
0A4BB                           	note F_, 3
0A4BB 36                        	.db 3 << 4 | F_
0A4BC                           	note_length M1, S32
0A4BC 81                        	.db NOTE_LENGTH_CMD | M1 | S32
0A4BD                           	rest
0A4BD 00                        	.db 0
0A4BE                           	note_length M1_5, S16
0A4BE 8A                        	.db NOTE_LENGTH_CMD | M1_5 | S16
0A4BF                           	note F_, 2
0A4BF 26                        	.db 2 << 4 | F_
0A4C0                           	note_length M1, S32
0A4C0 81                        	.db NOTE_LENGTH_CMD | M1 | S32
0A4C1                           	rest
0A4C1 00                        	.db 0
0A4C2                           	note_length M1_5, S16
0A4C2 8A                        	.db NOTE_LENGTH_CMD | M1_5 | S16
0A4C3                           	note F_, 3
0A4C3 36                        	.db 3 << 4 | F_
0A4C4                           	note_length M1, S32
0A4C4 81                        	.db NOTE_LENGTH_CMD | M1 | S32
0A4C5                           	rest
0A4C5 00                        	.db 0
0A4C6                           	note_length M1_5, S16
0A4C6 8A                        	.db NOTE_LENGTH_CMD | M1_5 | S16
0A4C7                           	note F_, 2
0A4C7 26                        	.db 2 << 4 | F_
0A4C8                           	note_length M1, S32
0A4C8 81                        	.db NOTE_LENGTH_CMD | M1 | S32
0A4C9                           	rest
0A4C9 00                        	.db 0
0A4CA                           	note_length M1_5, S16
0A4CA 8A                        	.db NOTE_LENGTH_CMD | M1_5 | S16
0A4CB                           	note F_, 3
0A4CB 36                        	.db 3 << 4 | F_
0A4CC                           	note_length M1, S32
0A4CC 81                        	.db NOTE_LENGTH_CMD | M1 | S32
0A4CD                           	rest
0A4CD 00                        	.db 0
0A4CE                           	note_length M1_5, S16
0A4CE 8A                        	.db NOTE_LENGTH_CMD | M1_5 | S16
0A4CF                           	note A#, 2
0A4CF 2B                        	.db 2 << 4 | A#
0A4D0                           	note_length M1, S32
0A4D0 81                        	.db NOTE_LENGTH_CMD | M1 | S32
0A4D1                           	rest
0A4D1 00                        	.db 0
0A4D2                           	note_length M1_5, S16
0A4D2 8A                        	.db NOTE_LENGTH_CMD | M1_5 | S16
0A4D3                           	note A#, 3
0A4D3 3B                        	.db 3 << 4 | A#
0A4D4                           	note_length M1, S32
0A4D4 81                        	.db NOTE_LENGTH_CMD | M1 | S32
0A4D5                           	rest
0A4D5 00                        	.db 0
0A4D6                           	note_length M1_5, S16
0A4D6 8A                        	.db NOTE_LENGTH_CMD | M1_5 | S16
0A4D7                           	note A#, 2
0A4D7 2B                        	.db 2 << 4 | A#
0A4D8                           	note_length M1, S32
0A4D8 81                        	.db NOTE_LENGTH_CMD | M1 | S32
0A4D9                           	rest
0A4D9 00                        	.db 0
0A4DA                           	note_length M1_5, S16
0A4DA 8A                        	.db NOTE_LENGTH_CMD | M1_5 | S16
0A4DB                           	note A#, 3
0A4DB 3B                        	.db 3 << 4 | A#
0A4DC                           	note_length M1, S32
0A4DC 81                        	.db NOTE_LENGTH_CMD | M1 | S32
0A4DD                           	rest
0A4DD 00                        	.db 0
0A4DE                           	note_length M1_5, S16
0A4DE 8A                        	.db NOTE_LENGTH_CMD | M1_5 | S16
0A4DF                           	note C_, 3
0A4DF 31                        	.db 3 << 4 | C_
0A4E0                           	note_length M1, S32
0A4E0 81                        	.db NOTE_LENGTH_CMD | M1 | S32
0A4E1                           	rest
0A4E1 00                        	.db 0
0A4E2                           	note_length M1_5, S16
0A4E2 8A                        	.db NOTE_LENGTH_CMD | M1_5 | S16
0A4E3                           	note C_, 4
0A4E3 41                        	.db 4 << 4 | C_
0A4E4                           	note_length M1, S32
0A4E4 81                        	.db NOTE_LENGTH_CMD | M1 | S32
0A4E5                           	rest
0A4E5 00                        	.db 0
0A4E6                           	note_length M1_5, S16
0A4E6 8A                        	.db NOTE_LENGTH_CMD | M1_5 | S16
0A4E7                           	note C_, 3
0A4E7 31                        	.db 3 << 4 | C_
0A4E8                           	note_length M1, S32
0A4E8 81                        	.db NOTE_LENGTH_CMD | M1 | S32
0A4E9                           	rest
0A4E9 00                        	.db 0
0A4EA                           	note_length M1_5, S16
0A4EA 8A                        	.db NOTE_LENGTH_CMD | M1_5 | S16
0A4EB                           	note C_, 4
0A4EB 41                        	.db 4 << 4 | C_
0A4EC                           	note_length M1, S32
0A4EC 81                        	.db NOTE_LENGTH_CMD | M1 | S32
0A4ED                           	rest
0A4ED 00                        	.db 0
0A4EE                           	note_length M1_5, S16
0A4EE 8A                        	.db NOTE_LENGTH_CMD | M1_5 | S16
0A4EF                           	note D#, 3
0A4EF 34                        	.db 3 << 4 | D#
0A4F0                           	note_length M1, S32
0A4F0 81                        	.db NOTE_LENGTH_CMD | M1 | S32
0A4F1                           	rest
0A4F1 00                        	.db 0
0A4F2                           	note_length M1_5, S16
0A4F2 8A                        	.db NOTE_LENGTH_CMD | M1_5 | S16
0A4F3                           	note D#, 4
0A4F3 44                        	.db 4 << 4 | D#
0A4F4                           	note_length M1, S32
0A4F4 81                        	.db NOTE_LENGTH_CMD | M1 | S32
0A4F5                           	rest
0A4F5 00                        	.db 0
0A4F6                           	note_length M1_5, S16
0A4F6 8A                        	.db NOTE_LENGTH_CMD | M1_5 | S16
0A4F7                           	note D#, 3
0A4F7 34                        	.db 3 << 4 | D#
0A4F8                           	note_length M1, S32
0A4F8 81                        	.db NOTE_LENGTH_CMD | M1 | S32
0A4F9                           	rest
0A4F9 00                        	.db 0
0A4FA                           	note_length M1_5, S16
0A4FA 8A                        	.db NOTE_LENGTH_CMD | M1_5 | S16
0A4FB                           	note D#, 4
0A4FB 44                        	.db 4 << 4 | D#
0A4FC                           	note_length M1, S32
0A4FC 81                        	.db NOTE_LENGTH_CMD | M1 | S32
0A4FD                           	rest
0A4FD 00                        	.db 0
0A4FE                           	note_length M1_5, S16
0A4FE 8A                        	.db NOTE_LENGTH_CMD | M1_5 | S16
0A4FF                           	note G_, 3
0A4FF 38                        	.db 3 << 4 | G_
0A500                           	note_length M1, S32
0A500 81                        	.db NOTE_LENGTH_CMD | M1 | S32
0A501                           	rest
0A501 00                        	.db 0
0A502                           	note_length M1_5, S16
0A502 8A                        	.db NOTE_LENGTH_CMD | M1_5 | S16
0A503                           	note G_, 4
0A503 48                        	.db 4 << 4 | G_
0A504                           	note_length M1, S32
0A504 81                        	.db NOTE_LENGTH_CMD | M1 | S32
0A505                           	rest
0A505 00                        	.db 0
0A506                           	note_length M1_5, S16
0A506 8A                        	.db NOTE_LENGTH_CMD | M1_5 | S16
0A507                           	note G_, 3
0A507 38                        	.db 3 << 4 | G_
0A508                           	note_length M1, S32
0A508 81                        	.db NOTE_LENGTH_CMD | M1 | S32
0A509                           	rest
0A509 00                        	.db 0
0A50A                           	note_length M1_5, S16
0A50A 8A                        	.db NOTE_LENGTH_CMD | M1_5 | S16
0A50B                           	note G_, 4
0A50B 48                        	.db 4 << 4 | G_
0A50C                           	note_length M1, S32
0A50C 81                        	.db NOTE_LENGTH_CMD | M1 | S32
0A50D                           	rest
0A50D 00                        	.db 0
0A50E                           	instrument 0
0A50E C0                        	.db INSTRUMENT_CMD | 0
0A50F                           	note_length M1_5, S4
0A50F 8C                        	.db NOTE_LENGTH_CMD | M1_5 | S4
0A510                           	note C_, 4
0A510 41                        	.db 4 << 4 | C_
0A511                           	note_length M1_5, S16
0A511 8A                        	.db NOTE_LENGTH_CMD | M1_5 | S16
0A512                           	tie
0A512 0F                        	.db NOTE_MASK
0A513                           	note_length M1, S32
0A513 81                        	.db NOTE_LENGTH_CMD | M1 | S32
0A514                           	rest
0A514 00                        	.db 0
0A515                           	note_length M1_5, S4
0A515 8C                        	.db NOTE_LENGTH_CMD | M1_5 | S4
0A516                           	note F_, 4
0A516 46                        	.db 4 << 4 | F_
0A517                           	note_length M1_5, S16
0A517 8A                        	.db NOTE_LENGTH_CMD | M1_5 | S16
0A518                           	tie
0A518 0F                        	.db NOTE_MASK
0A519                           	note_length M1, S32
0A519 81                        	.db NOTE_LENGTH_CMD | M1 | S32
0A51A                           	rest
0A51A 00                        	.db 0
0A51B                           	note_length M1_5, S8
0A51B 8B                        	.db NOTE_LENGTH_CMD | M1_5 | S8
0A51C                           	note C_, 4
0A51C 41                        	.db 4 << 4 | C_
0A51D                           	note_length M1, S32
0A51D 81                        	.db NOTE_LENGTH_CMD | M1 | S32
0A51E                           	tie
0A51E 0F                        	.db NOTE_MASK
0A51F                           	rest
0A51F 00                        	.db 0
0A520                           	note_length M1_5, S8
0A520 8B                        	.db NOTE_LENGTH_CMD | M1_5 | S8
0A521                           	note F_, 4
0A521 46                        	.db 4 << 4 | F_
0A522                           	note_length M1, S32
0A522 81                        	.db NOTE_LENGTH_CMD | M1 | S32
0A523                           	tie
0A523 0F                        	.db NOTE_MASK
0A524                           	rest
0A524 00                        	.db 0
0A525                           	note_length M1_5, S16
0A525 8A                        	.db NOTE_LENGTH_CMD | M1_5 | S16
0A526                           	note C_, 4
0A526 41                        	.db 4 << 4 | C_
0A527                           	note_length M1, S32
0A527 81                        	.db NOTE_LENGTH_CMD | M1 | S32
0A528                           	rest
0A528 00                        	.db 0
0A529                           	note_length M1_5, S16
0A529 8A                        	.db NOTE_LENGTH_CMD | M1_5 | S16
0A52A                           	note F_, 4
0A52A 46                        	.db 4 << 4 | F_
0A52B                           	note_length M1, S32
0A52B 81                        	.db NOTE_LENGTH_CMD | M1 | S32
0A52C                           	rest
0A52C 00                        	.db 0
0A52D                           	note_length M1_5, S16
0A52D 8A                        	.db NOTE_LENGTH_CMD | M1_5 | S16
0A52E                           	note C_, 4
0A52E 41                        	.db 4 << 4 | C_
0A52F                           	note_length M1, S32
0A52F 81                        	.db NOTE_LENGTH_CMD | M1 | S32
0A530                           	rest
0A530 00                        	.db 0
0A531                           	note_length M1_5, S16
0A531 8A                        	.db NOTE_LENGTH_CMD | M1_5 | S16
0A532                           	note F_, 4
0A532 46                        	.db 4 << 4 | F_
0A533                           	note_length M1, S32
0A533 81                        	.db NOTE_LENGTH_CMD | M1 | S32
0A534                           	rest
0A534 00                        	.db 0
0A535                           	sound_ret
0A535 FF                        	.db SOUND_RET_CMD
0A536                           
0A536                           MusicData_TWUIO_Noise:
0A536                           	drum_envelope DR3, M1_5, S4
0A536 EC                        	.db NOTE_LENGTH_CMD | DR3 | M1_5 | S4
0A537                           	drum_note 14
0A537 0E                        	.db 14
0A538                           	drum_envelope DR3, M1, S4
0A538 E4                        	.db NOTE_LENGTH_CMD | DR3 | M1 | S4
0A539                           	rest
0A539 00                        	.db 0
0A53A                           	drum_note 14
0A53A 0E                        	.db 14
0A53B                           	drum_note 14
0A53B 0E                        	.db 14
0A53C                           	drum_note 14
0A53C 0E                        	.db 14
0A53D                           	drum_note 14
0A53D 0E                        	.db 14
0A53E                           	drum_note 14
0A53E 0E                        	.db 14
0A53F                           	drum_envelope DR3, M1, S8
0A53F E3                        	.db NOTE_LENGTH_CMD | DR3 | M1 | S8
0A540                           	drum_note 14
0A540 0E                        	.db 14
0A541                           
0A541                           	rest
0A541 00                        	.db 0
0A542                           	drum_envelope DR3, M1, S4
0A542 E4                        	.db NOTE_LENGTH_CMD | DR3 | M1 | S4
0A543                           	drum_note 14
0A543 0E                        	.db 14
0A544                           	drum_note 14
0A544 0E                        	.db 14
0A545                           	drum_note 14
0A545 0E                        	.db 14
0A546                           	drum_note 14
0A546 0E                        	.db 14
0A547                           	drum_note 14
0A547 0E                        	.db 14
0A548                           	drum_envelope DR3, M1, S8
0A548 E3                        	.db NOTE_LENGTH_CMD | DR3 | M1 | S8
0A549                           	drum_note 14
0A549 0E                        	.db 14
0A54A                           	drum_note 14
0A54A 0E                        	.db 14
0A54B                           	drum_note 14
0A54B 0E                        	.db 14
0A54C                           	drum_note 14
0A54C 0E                        	.db 14
0A54D                           	drum_note 14
0A54D 0E                        	.db 14
0A54E                           
0A54E                           	rest
0A54E 00                        	.db 0
0A54F                           	drum_envelope DR3, M1, S4
0A54F E4                        	.db NOTE_LENGTH_CMD | DR3 | M1 | S4
0A550                           	drum_note 14
0A550 0E                        	.db 14
0A551                           	drum_note 14
0A551 0E                        	.db 14
0A552                           	drum_note 14
0A552 0E                        	.db 14
0A553                           	drum_note 14
0A553 0E                        	.db 14
0A554                           	drum_note 14
0A554 0E                        	.db 14
0A555                           	drum_note 14
0A555 0E                        	.db 14
0A556                           	drum_note 14
0A556 0E                        	.db 14
0A557                           	drum_envelope DR3, M1, S8
0A557 E3                        	.db NOTE_LENGTH_CMD | DR3 | M1 | S8
0A558                           	drum_note 14
0A558 0E                        	.db 14
0A559                           
0A559                           	rest
0A559 00                        	.db 0
0A55A                           	drum_envelope DR3, M1, S4
0A55A E4                        	.db NOTE_LENGTH_CMD | DR3 | M1 | S4
0A55B                           	drum_note 14
0A55B 0E                        	.db 14
0A55C                           	drum_note 14
0A55C 0E                        	.db 14
0A55D                           	drum_note 14
0A55D 0E                        	.db 14
0A55E                           	drum_note 14
0A55E 0E                        	.db 14
0A55F                           	drum_note 14
0A55F 0E                        	.db 14
0A560                           	drum_note 14
0A560 0E                        	.db 14
0A561                           	drum_envelope DR3, M1, S8
0A561 E3                        	.db NOTE_LENGTH_CMD | DR3 | M1 | S8
0A562                           	drum_note 14
0A562 0E                        	.db 14
0A563                           	drum_note 14
0A563 0E                        	.db 14
0A564                           	drum_note 14
0A564 0E                        	.db 14
0A565                           
0A565                           	drum_envelope DR3, M1_5, S4
0A565 EC                        	.db NOTE_LENGTH_CMD | DR3 | M1_5 | S4
0A566                           	drum_note 14
0A566 0E                        	.db 14
0A567                           	drum_envelope DR3, M1, S4
0A567 E4                        	.db NOTE_LENGTH_CMD | DR3 | M1 | S4
0A568                           	rest
0A568 00                        	.db 0
0A569                           	drum_note 14
0A569 0E                        	.db 14
0A56A                           	drum_note 14
0A56A 0E                        	.db 14
0A56B                           	drum_note 14
0A56B 0E                        	.db 14
0A56C                           	drum_note 14
0A56C 0E                        	.db 14
0A56D                           	drum_note 14
0A56D 0E                        	.db 14
0A56E                           	drum_envelope DR3, M1, S8
0A56E E3                        	.db NOTE_LENGTH_CMD | DR3 | M1 | S8
0A56F                           	drum_note 14
0A56F 0E                        	.db 14
0A570                           
0A570                           	rest
0A570 00                        	.db 0
0A571                           	drum_envelope DR3, M1, S4
0A571 E4                        	.db NOTE_LENGTH_CMD | DR3 | M1 | S4
0A572                           	drum_note 14
0A572 0E                        	.db 14
0A573                           	drum_note 14
0A573 0E                        	.db 14
0A574                           	drum_note 14
0A574 0E                        	.db 14
0A575                           	drum_note 14
0A575 0E                        	.db 14
0A576                           	drum_note 14
0A576 0E                        	.db 14
0A577                           	drum_note 14
0A577 0E                        	.db 14
0A578                           	drum_note 14
0A578 0E                        	.db 14
0A579                           	drum_envelope DR3, M1, S8
0A579 E3                        	.db NOTE_LENGTH_CMD | DR3 | M1 | S8
0A57A                           	drum_note 14
0A57A 0E                        	.db 14
0A57B                           
0A57B                           	drum_envelope DR3, M1_5, S4
0A57B EC                        	.db NOTE_LENGTH_CMD | DR3 | M1_5 | S4
0A57C                           	drum_note 14
0A57C 0E                        	.db 14
0A57D                           	drum_envelope DR3, M1, S4
0A57D E4                        	.db NOTE_LENGTH_CMD | DR3 | M1 | S4
0A57E                           	drum_note 14
0A57E 0E                        	.db 14
0A57F                           	drum_note 14
0A57F 0E                        	.db 14
0A580                           	drum_note 14
0A580 0E                        	.db 14
0A581                           	drum_note 14
0A581 0E                        	.db 14
0A582                           	drum_note 14
0A582 0E                        	.db 14
0A583                           	drum_note 14
0A583 0E                        	.db 14
0A584                           	drum_envelope DR3, M1, S8
0A584 E3                        	.db NOTE_LENGTH_CMD | DR3 | M1 | S8
0A585                           	drum_note 14
0A585 0E                        	.db 14
0A586                           
0A586                           	drum_envelope DR3, M1, S2
0A586 E5                        	.db NOTE_LENGTH_CMD | DR3 | M1 | S2
0A587                           	drum_note 14
0A587 0E                        	.db 14
0A588                           	drum_note 14
0A588 0E                        	.db 14
0A589                           	drum_envelope DR3, M1, S4
0A589 E4                        	.db NOTE_LENGTH_CMD | DR3 | M1 | S4
0A58A                           	drum_note 14
0A58A 0E                        	.db 14
0A58B                           	drum_note 14
0A58B 0E                        	.db 14
0A58C                           	drum_envelope DR3, M1, S8
0A58C E3                        	.db NOTE_LENGTH_CMD | DR3 | M1 | S8
0A58D                           	drum_note 11
0A58D 0B                        	.db 11
0A58E                           	drum_note 11
0A58E 0B                        	.db 11
0A58F                           	drum_note 11
0A58F 0B                        	.db 11
0A590                           	drum_note 11
0A590 0B                        	.db 11
0A591                           	sound_ret
0A591 FF                        	.db SOUND_RET_CMD
0A592                           
0A592                           MusicData_TWUIO_FDS:
0A592                           	instrument 6
0A592 C6                        	.db INSTRUMENT_CMD | 6
0A593                           	volume_const
0A593 EF                        	.db FADE_CTRL_CMD + F_IN - 1
0A594                           	note_length M1, S2
0A594 85                        	.db NOTE_LENGTH_CMD | M1 | S2
0A595                           	note F_, 2
0A595 26                        	.db 2 << 4 | F_
0A596                           	instrument 9
0A596 C9                        	.db INSTRUMENT_CMD | 9
0A597                           	note_length M1, S16
0A597 82                        	.db NOTE_LENGTH_CMD | M1 | S16
0A598                           	note D#, 5
0A598 54                        	.db 5 << 4 | D#
0A599                           	tie
0A599 0F                        	.db NOTE_MASK
0A59A                           	note D#, 5
0A59A 54                        	.db 5 << 4 | D#
0A59B                           	note D#, 5
0A59B 54                        	.db 5 << 4 | D#
0A59C                           	note D#, 5
0A59C 54                        	.db 5 << 4 | D#
0A59D                           	tie
0A59D 0F                        	.db NOTE_MASK
0A59E                           	note D#, 5
0A59E 54                        	.db 5 << 4 | D#
0A59F                           	note D#, 5
0A59F 54                        	.db 5 << 4 | D#
0A5A0                           	note D#, 5
0A5A0 54                        	.db 5 << 4 | D#
0A5A1                           	tie
0A5A1 0F                        	.db NOTE_MASK
0A5A2                           	note D#, 5
0A5A2 54                        	.db 5 << 4 | D#
0A5A3                           	note D#, 5
0A5A3 54                        	.db 5 << 4 | D#
0A5A4                           	note D#, 5
0A5A4 54                        	.db 5 << 4 | D#
0A5A5                           	tie
0A5A5 0F                        	.db NOTE_MASK
0A5A6                           	note D#, 5
0A5A6 54                        	.db 5 << 4 | D#
0A5A7                           	note D#, 5
0A5A7 54                        	.db 5 << 4 | D#
0A5A8                           	note D#, 5
0A5A8 54                        	.db 5 << 4 | D#
0A5A9                           	tie
0A5A9 0F                        	.db NOTE_MASK
0A5AA                           	note D#, 5
0A5AA 54                        	.db 5 << 4 | D#
0A5AB                           	note D#, 5
0A5AB 54                        	.db 5 << 4 | D#
0A5AC                           	note D#, 5
0A5AC 54                        	.db 5 << 4 | D#
0A5AD                           	tie
0A5AD 0F                        	.db NOTE_MASK
0A5AE                           	note D#, 5
0A5AE 54                        	.db 5 << 4 | D#
0A5AF                           	note D#, 5
0A5AF 54                        	.db 5 << 4 | D#
0A5B0                           
0A5B0                           	note D#, 5
0A5B0 54                        	.db 5 << 4 | D#
0A5B1                           	tie
0A5B1 0F                        	.db NOTE_MASK
0A5B2                           	note D#, 5
0A5B2 54                        	.db 5 << 4 | D#
0A5B3                           	note D#, 5
0A5B3 54                        	.db 5 << 4 | D#
0A5B4                           	note D#, 5
0A5B4 54                        	.db 5 << 4 | D#
0A5B5                           	tie
0A5B5 0F                        	.db NOTE_MASK
0A5B6                           	note D#, 5
0A5B6 54                        	.db 5 << 4 | D#
0A5B7                           	note D#, 5
0A5B7 54                        	.db 5 << 4 | D#
0A5B8                           	note D#, 5
0A5B8 54                        	.db 5 << 4 | D#
0A5B9                           	tie
0A5B9 0F                        	.db NOTE_MASK
0A5BA                           	note D#, 5
0A5BA 54                        	.db 5 << 4 | D#
0A5BB                           	note D#, 5
0A5BB 54                        	.db 5 << 4 | D#
0A5BC                           	note D#, 5
0A5BC 54                        	.db 5 << 4 | D#
0A5BD                           	tie
0A5BD 0F                        	.db NOTE_MASK
0A5BE                           	note D#, 5
0A5BE 54                        	.db 5 << 4 | D#
0A5BF                           	note D#, 5
0A5BF 54                        	.db 5 << 4 | D#
0A5C0                           	note D#, 5
0A5C0 54                        	.db 5 << 4 | D#
0A5C1                           	tie
0A5C1 0F                        	.db NOTE_MASK
0A5C2                           	note D#, 5
0A5C2 54                        	.db 5 << 4 | D#
0A5C3                           	note D#, 5
0A5C3 54                        	.db 5 << 4 | D#
0A5C4                           	note D#, 5
0A5C4 54                        	.db 5 << 4 | D#
0A5C5                           	tie
0A5C5 0F                        	.db NOTE_MASK
0A5C6                           	note D#, 5
0A5C6 54                        	.db 5 << 4 | D#
0A5C7                           	note D#, 5
0A5C7 54                        	.db 5 << 4 | D#
0A5C8                           	note A#, 4
0A5C8 4B                        	.db 4 << 4 | A#
0A5C9                           	tie
0A5C9 0F                        	.db NOTE_MASK
0A5CA                           	note A#, 4
0A5CA 4B                        	.db 4 << 4 | A#
0A5CB                           	note A#, 4
0A5CB 4B                        	.db 4 << 4 | A#
0A5CC                           	note F_, 4
0A5CC 46                        	.db 4 << 4 | F_
0A5CD                           	tie
0A5CD 0F                        	.db NOTE_MASK
0A5CE                           	note F_, 4
0A5CE 46                        	.db 4 << 4 | F_
0A5CF                           	note F_, 4
0A5CF 46                        	.db 4 << 4 | F_
0A5D0                           
0A5D0                           	note D#, 5
0A5D0 54                        	.db 5 << 4 | D#
0A5D1                           	tie
0A5D1 0F                        	.db NOTE_MASK
0A5D2                           	note D#, 5
0A5D2 54                        	.db 5 << 4 | D#
0A5D3                           	note D#, 5
0A5D3 54                        	.db 5 << 4 | D#
0A5D4                           	note D#, 5
0A5D4 54                        	.db 5 << 4 | D#
0A5D5                           	tie
0A5D5 0F                        	.db NOTE_MASK
0A5D6                           	note D#, 5
0A5D6 54                        	.db 5 << 4 | D#
0A5D7                           	note D#, 5
0A5D7 54                        	.db 5 << 4 | D#
0A5D8                           	note D#, 5
0A5D8 54                        	.db 5 << 4 | D#
0A5D9                           	tie
0A5D9 0F                        	.db NOTE_MASK
0A5DA                           	note D#, 5
0A5DA 54                        	.db 5 << 4 | D#
0A5DB                           	note D#, 5
0A5DB 54                        	.db 5 << 4 | D#
0A5DC                           	note D#, 5
0A5DC 54                        	.db 5 << 4 | D#
0A5DD                           	tie
0A5DD 0F                        	.db NOTE_MASK
0A5DE                           	note D#, 5
0A5DE 54                        	.db 5 << 4 | D#
0A5DF                           	note D#, 5
0A5DF 54                        	.db 5 << 4 | D#
0A5E0                           	note D#, 5
0A5E0 54                        	.db 5 << 4 | D#
0A5E1                           	tie
0A5E1 0F                        	.db NOTE_MASK
0A5E2                           	note D#, 5
0A5E2 54                        	.db 5 << 4 | D#
0A5E3                           	note D#, 5
0A5E3 54                        	.db 5 << 4 | D#
0A5E4                           	note D#, 5
0A5E4 54                        	.db 5 << 4 | D#
0A5E5                           	tie
0A5E5 0F                        	.db NOTE_MASK
0A5E6                           	note D#, 5
0A5E6 54                        	.db 5 << 4 | D#
0A5E7                           	note D#, 5
0A5E7 54                        	.db 5 << 4 | D#
0A5E8                           	note D#, 5
0A5E8 54                        	.db 5 << 4 | D#
0A5E9                           	tie
0A5E9 0F                        	.db NOTE_MASK
0A5EA                           	note D#, 5
0A5EA 54                        	.db 5 << 4 | D#
0A5EB                           	note D#, 5
0A5EB 54                        	.db 5 << 4 | D#
0A5EC                           	note D#, 5
0A5EC 54                        	.db 5 << 4 | D#
0A5ED                           	tie
0A5ED 0F                        	.db NOTE_MASK
0A5EE                           	note D#, 5
0A5EE 54                        	.db 5 << 4 | D#
0A5EF                           	note D#, 5
0A5EF 54                        	.db 5 << 4 | D#
0A5F0                           
0A5F0                           	note D#, 5
0A5F0 54                        	.db 5 << 4 | D#
0A5F1                           	tie
0A5F1 0F                        	.db NOTE_MASK
0A5F2                           	note D#, 5
0A5F2 54                        	.db 5 << 4 | D#
0A5F3                           	note D#, 5
0A5F3 54                        	.db 5 << 4 | D#
0A5F4                           	note D#, 5
0A5F4 54                        	.db 5 << 4 | D#
0A5F5                           	tie
0A5F5 0F                        	.db NOTE_MASK
0A5F6                           	note D#, 5
0A5F6 54                        	.db 5 << 4 | D#
0A5F7                           	note D#, 5
0A5F7 54                        	.db 5 << 4 | D#
0A5F8                           	note D#, 5
0A5F8 54                        	.db 5 << 4 | D#
0A5F9                           	tie
0A5F9 0F                        	.db NOTE_MASK
0A5FA                           	note D#, 5
0A5FA 54                        	.db 5 << 4 | D#
0A5FB                           	note D#, 5
0A5FB 54                        	.db 5 << 4 | D#
0A5FC                           	note D#, 5
0A5FC 54                        	.db 5 << 4 | D#
0A5FD                           	tie
0A5FD 0F                        	.db NOTE_MASK
0A5FE                           	note D#, 5
0A5FE 54                        	.db 5 << 4 | D#
0A5FF                           	note D#, 5
0A5FF 54                        	.db 5 << 4 | D#
0A600                           	note D#, 5
0A600 54                        	.db 5 << 4 | D#
0A601                           	tie
0A601 0F                        	.db NOTE_MASK
0A602                           	note D#, 5
0A602 54                        	.db 5 << 4 | D#
0A603                           	note D#, 5
0A603 54                        	.db 5 << 4 | D#
0A604                           	note D#, 5
0A604 54                        	.db 5 << 4 | D#
0A605                           	tie
0A605 0F                        	.db NOTE_MASK
0A606                           	note D#, 5
0A606 54                        	.db 5 << 4 | D#
0A607                           	note D#, 5
0A607 54                        	.db 5 << 4 | D#
0A608                           	instrument 0
0A608 C0                        	.db INSTRUMENT_CMD | 0
0A609                           	note E_, 4
0A609 45                        	.db 4 << 4 | E_
0A60A                           	tie
0A60A 0F                        	.db NOTE_MASK
0A60B                           	note E_, 4
0A60B 45                        	.db 4 << 4 | E_
0A60C                           	note E_, 4
0A60C 45                        	.db 4 << 4 | E_
0A60D                           	note E_, 4
0A60D 45                        	.db 4 << 4 | E_
0A60E                           	tie
0A60E 0F                        	.db NOTE_MASK
0A60F                           	note E_, 4
0A60F 45                        	.db 4 << 4 | E_
0A610                           	note E_, 4
0A610 45                        	.db 4 << 4 | E_
0A611                           
0A611                           	instrument 6
0A611 C6                        	.db INSTRUMENT_CMD | 6
0A612                           	note_length M1, S4
0A612 84                        	.db NOTE_LENGTH_CMD | M1 | S4
0A613                           	note F_, 2
0A613 26                        	.db 2 << 4 | F_
0A614                           	instrument 0
0A614 C0                        	.db INSTRUMENT_CMD | 0
0A615                           	note E_, 4
0A615 45                        	.db 4 << 4 | E_
0A616                           	note_length M1, S8
0A616 83                        	.db NOTE_LENGTH_CMD | M1 | S8
0A617                           	tie
0A617 0F                        	.db NOTE_MASK
0A618                           	instrument 6
0A618 C6                        	.db INSTRUMENT_CMD | 6
0A619                           	note F_, 2
0A619 26                        	.db 2 << 4 | F_
0A61A                           	instrument 0
0A61A C0                        	.db INSTRUMENT_CMD | 0
0A61B                           	note E_, 4
0A61B 45                        	.db 4 << 4 | E_
0A61C                           	instrument 6
0A61C C6                        	.db INSTRUMENT_CMD | 6
0A61D                           	note F_, 2
0A61D 26                        	.db 2 << 4 | F_
0A61E                           	tie
0A61E 0F                        	.db NOTE_MASK
0A61F                           	note F_, 2
0A61F 26                        	.db 2 << 4 | F_
0A620                           	instrument 0
0A620 C0                        	.db INSTRUMENT_CMD | 0
0A621                           	note E_, 4
0A621 45                        	.db 4 << 4 | E_
0A622                           	instrument 6
0A622 C6                        	.db INSTRUMENT_CMD | 6
0A623                           	note F_, 2
0A623 26                        	.db 2 << 4 | F_
0A624                           	tie
0A624 0F                        	.db NOTE_MASK
0A625                           	note F_, 2
0A625 26                        	.db 2 << 4 | F_
0A626                           	instrument 0
0A626 C0                        	.db INSTRUMENT_CMD | 0
0A627                           	note E_, 4
0A627 45                        	.db 4 << 4 | E_
0A628                           	instrument 6
0A628 C6                        	.db INSTRUMENT_CMD | 6
0A629                           	note F_, 2
0A629 26                        	.db 2 << 4 | F_
0A62A                           
0A62A                           	tie
0A62A 0F                        	.db NOTE_MASK
0A62B                           	note F_, 2
0A62B 26                        	.db 2 << 4 | F_
0A62C                           	instrument 0
0A62C C0                        	.db INSTRUMENT_CMD | 0
0A62D                           	note E_, 4
0A62D 45                        	.db 4 << 4 | E_
0A62E                           	instrument 6
0A62E C6                        	.db INSTRUMENT_CMD | 6
0A62F                           	note F_, 2
0A62F 26                        	.db 2 << 4 | F_
0A630                           	tie
0A630 0F                        	.db NOTE_MASK
0A631                           	note F_, 2
0A631 26                        	.db 2 << 4 | F_
0A632                           	instrument 0
0A632 C0                        	.db INSTRUMENT_CMD | 0
0A633                           	note E_, 4
0A633 45                        	.db 4 << 4 | E_
0A634                           	instrument 6
0A634 C6                        	.db INSTRUMENT_CMD | 6
0A635                           	note F_, 2
0A635 26                        	.db 2 << 4 | F_
0A636                           	tie
0A636 0F                        	.db NOTE_MASK
0A637                           	note F_, 2
0A637 26                        	.db 2 << 4 | F_
0A638                           	instrument 0
0A638 C0                        	.db INSTRUMENT_CMD | 0
0A639                           	note E_, 4
0A639 45                        	.db 4 << 4 | E_
0A63A                           	instrument 6
0A63A C6                        	.db INSTRUMENT_CMD | 6
0A63B                           	note F_, 2
0A63B 26                        	.db 2 << 4 | F_
0A63C                           	tie
0A63C 0F                        	.db NOTE_MASK
0A63D                           	note F_, 2
0A63D 26                        	.db 2 << 4 | F_
0A63E                           	instrument 0
0A63E C0                        	.db INSTRUMENT_CMD | 0
0A63F                           	note E_, 4
0A63F 45                        	.db 4 << 4 | E_
0A640                           	instrument 6
0A640 C6                        	.db INSTRUMENT_CMD | 6
0A641                           	note F_, 2
0A641 26                        	.db 2 << 4 | F_
0A642                           
0A642                           	note F_, 2
0A642 26                        	.db 2 << 4 | F_
0A643                           	tie
0A643 0F                        	.db NOTE_MASK
0A644                           	instrument 0
0A644 C0                        	.db INSTRUMENT_CMD | 0
0A645                           	note E_, 4
0A645 45                        	.db 4 << 4 | E_
0A646                           	instrument 6
0A646 C6                        	.db INSTRUMENT_CMD | 6
0A647                           	note F_, 2
0A647 26                        	.db 2 << 4 | F_
0A648                           	tie
0A648 0F                        	.db NOTE_MASK
0A649                           	note F_, 2
0A649 26                        	.db 2 << 4 | F_
0A64A                           	instrument 0
0A64A C0                        	.db INSTRUMENT_CMD | 0
0A64B                           	note E_, 4
0A64B 45                        	.db 4 << 4 | E_
0A64C                           	instrument 6
0A64C C6                        	.db INSTRUMENT_CMD | 6
0A64D                           	note F_, 2
0A64D 26                        	.db 2 << 4 | F_
0A64E                           	tie
0A64E 0F                        	.db NOTE_MASK
0A64F                           	note F_, 2
0A64F 26                        	.db 2 << 4 | F_
0A650                           	instrument 0
0A650 C0                        	.db INSTRUMENT_CMD | 0
0A651                           	note E_, 4
0A651 45                        	.db 4 << 4 | E_
0A652                           	instrument 6
0A652 C6                        	.db INSTRUMENT_CMD | 6
0A653                           	note F_, 2
0A653 26                        	.db 2 << 4 | F_
0A654                           	tie
0A654 0F                        	.db NOTE_MASK
0A655                           	note F_, 2
0A655 26                        	.db 2 << 4 | F_
0A656                           	instrument 0
0A656 C0                        	.db INSTRUMENT_CMD | 0
0A657                           	note E_, 4
0A657 45                        	.db 4 << 4 | E_
0A658                           	instrument 6
0A658 C6                        	.db INSTRUMENT_CMD | 6
0A659                           	note F_, 2
0A659 26                        	.db 2 << 4 | F_
0A65A                           
0A65A                           	instrument 0
0A65A C0                        	.db INSTRUMENT_CMD | 0
0A65B                           	note G_, 3
0A65B 38                        	.db 3 << 4 | G_
0A65C                           	tie
0A65C 0F                        	.db NOTE_MASK
0A65D                           	note E_, 4
0A65D 45                        	.db 4 << 4 | E_
0A65E                           	note E_, 4
0A65E 45                        	.db 4 << 4 | E_
0A65F                           	note G_, 3
0A65F 38                        	.db 3 << 4 | G_
0A660                           	tie
0A660 0F                        	.db NOTE_MASK
0A661                           	note E_, 4
0A661 45                        	.db 4 << 4 | E_
0A662                           	note E_, 4
0A662 45                        	.db 4 << 4 | E_
0A663                           	note_length M1, S4
0A663 84                        	.db NOTE_LENGTH_CMD | M1 | S4
0A664                           	note G_, 3
0A664 38                        	.db 3 << 4 | G_
0A665                           	note G_, 3
0A665 38                        	.db 3 << 4 | G_
0A666                           	instrument 5
0A666 C5                        	.db INSTRUMENT_CMD | 5
0A667                           	note_length M1, S16
0A667 82                        	.db NOTE_LENGTH_CMD | M1 | S16
0A668                           	note E_, 4
0A668 45                        	.db 4 << 4 | E_
0A669                           	note E_, 4
0A669 45                        	.db 4 << 4 | E_
0A66A                           	note E_, 4
0A66A 45                        	.db 4 << 4 | E_
0A66B                           	note E_, 4
0A66B 45                        	.db 4 << 4 | E_
0A66C                           	note E_, 4
0A66C 45                        	.db 4 << 4 | E_
0A66D                           	note E_, 4
0A66D 45                        	.db 4 << 4 | E_
0A66E                           	note E_, 4
0A66E 45                        	.db 4 << 4 | E_
0A66F                           	note E_, 4
0A66F 45                        	.db 4 << 4 | E_
0A670                           	sound_ret
0A670 FF                        	.db SOUND_RET_CMD
0A671                           .include "src/music/music-data/title.asm"
0A671                           MusicData_Title_Pulse1:
0A671                           	instrument 27
0A671 DB                        	.db INSTRUMENT_CMD | 27
0A672                           	volume_fade 1, 10
0A672 EB                        	.db FADE_CTRL_CMD | 1 | 10
0A673                           	note_length M1, S1
0A673 86                        	.db NOTE_LENGTH_CMD | M1 | S1
0A674                           	note G_, 2
0A674 28                        	.db 2 << 4 | G_
0A675                           
0A675                           	volume_const
0A675 EF                        	.db FADE_CTRL_CMD + F_IN - 1
0A676                           	note_length M1, S8
0A676 83                        	.db NOTE_LENGTH_CMD | M1 | S8
0A677                           	note G_, 2
0A677 28                        	.db 2 << 4 | G_
0A678                           	note G_, 3
0A678 38                        	.db 3 << 4 | G_
0A679                           	note_length M1, S16
0A679 82                        	.db NOTE_LENGTH_CMD | M1 | S16
0A67A                           	note G_, 3
0A67A 38                        	.db 3 << 4 | G_
0A67B                           	note_length M1, S8
0A67B 83                        	.db NOTE_LENGTH_CMD | M1 | S8
0A67C                           	note G_, 3
0A67C 38                        	.db 3 << 4 | G_
0A67D                           	note_length M1, S16
0A67D 82                        	.db NOTE_LENGTH_CMD | M1 | S16
0A67E                           	note G_, 3
0A67E 38                        	.db 3 << 4 | G_
0A67F                           	instrument 10
0A67F CA                        	.db INSTRUMENT_CMD | 10
0A680                           	note_length M1, S8
0A680 83                        	.db NOTE_LENGTH_CMD | M1 | S8
0A681                           	note C_, 3
0A681 31                        	.db 3 << 4 | C_
0A682                           	volume_fade 0, 5
0A682 E5                        	.db FADE_CTRL_CMD | 0 | 5
0A683                           	note_length M1, S2
0A683 85                        	.db NOTE_LENGTH_CMD | M1 | S2
0A684                           	tie
0A684 0F                        	.db NOTE_MASK
0A685                           
0A685                           	sound_ret
0A685 FF                        	.db SOUND_RET_CMD
0A686                           
0A686                           MusicData_Title_Pulse2:
0A686                           	instrument 27
0A686 DB                        	.db INSTRUMENT_CMD | 27
0A687                           	volume_fade 1, 10
0A687 EB                        	.db FADE_CTRL_CMD | 1 | 10
0A688                           	note_length M1, S1
0A688 86                        	.db NOTE_LENGTH_CMD | M1 | S1
0A689                           	note C_, 3
0A689 31                        	.db 3 << 4 | C_
0A68A                           
0A68A                           	volume_const
0A68A EF                        	.db FADE_CTRL_CMD + F_IN - 1
0A68B                           	note_length M1, S8
0A68B 83                        	.db NOTE_LENGTH_CMD | M1 | S8
0A68C                           	note C_, 4
0A68C 41                        	.db 4 << 4 | C_
0A68D                           	note C_, 4
0A68D 41                        	.db 4 << 4 | C_
0A68E                           	note_length M1, S16
0A68E 82                        	.db NOTE_LENGTH_CMD | M1 | S16
0A68F                           	note C_, 4
0A68F 41                        	.db 4 << 4 | C_
0A690                           	note_length M1, S8
0A690 83                        	.db NOTE_LENGTH_CMD | M1 | S8
0A691                           	note D_, 4
0A691 43                        	.db 4 << 4 | D_
0A692                           	note_length M1, S16
0A692 82                        	.db NOTE_LENGTH_CMD | M1 | S16
0A693                           	note D#, 4
0A693 44                        	.db 4 << 4 | D#
0A694                           	instrument 10
0A694 CA                        	.db INSTRUMENT_CMD | 10
0A695                           	note_length M1, S8
0A695 83                        	.db NOTE_LENGTH_CMD | M1 | S8
0A696                           	pitch_slide 10, C_, 5
0A696 AA 51                     	.db PITCH_BEND_CMD | 10, 5 << 4 | C_
0A698                           	note G_, 4
0A698 48                        	.db 4 << 4 | G_
0A699                           	volume_fade 0, 5
0A699 E5                        	.db FADE_CTRL_CMD | 0 | 5
0A69A                           	note_length M1, S2
0A69A 85                        	.db NOTE_LENGTH_CMD | M1 | S2
0A69B                           	tie
0A69B 0F                        	.db NOTE_MASK
0A69C                           
0A69C                           	sound_ret
0A69C FF                        	.db SOUND_RET_CMD
0A69D                           
0A69D                           MusicData_Title_Hill:
0A69D                           	instrument 21
0A69D D5                        	.db INSTRUMENT_CMD | 21
0A69E                           	note_length M1_5, S8
0A69E 8B                        	.db NOTE_LENGTH_CMD | M1_5 | S8
0A69F                           	note C_, 3
0A69F 31                        	.db 3 << 4 | C_
0A6A0                           	note_length M1, S16
0A6A0 82                        	.db NOTE_LENGTH_CMD | M1 | S16
0A6A1                           	note C_, 3
0A6A1 31                        	.db 3 << 4 | C_
0A6A2                           	note_length M1, S8
0A6A2 83                        	.db NOTE_LENGTH_CMD | M1 | S8
0A6A3                           	note C_, 3
0A6A3 31                        	.db 3 << 4 | C_
0A6A4                           	note G_, 2
0A6A4 28                        	.db 2 << 4 | G_
0A6A5                           	note A#, 2
0A6A5 2B                        	.db 2 << 4 | A#
0A6A6                           	note A#, 2
0A6A6 2B                        	.db 2 << 4 | A#
0A6A7                           	note_length M1, S16
0A6A7 82                        	.db NOTE_LENGTH_CMD | M1 | S16
0A6A8                           	note A#, 2
0A6A8 2B                        	.db 2 << 4 | A#
0A6A9                           	note_length M1_5, S8
0A6A9 8B                        	.db NOTE_LENGTH_CMD | M1_5 | S8
0A6AA                           	note A#, 3
0A6AA 3B                        	.db 3 << 4 | A#
0A6AB                           
0A6AB                           	note_length M1, S8
0A6AB 83                        	.db NOTE_LENGTH_CMD | M1 | S8
0A6AC                           	note C_, 3
0A6AC 31                        	.db 3 << 4 | C_
0A6AD                           	note C_, 3
0A6AD 31                        	.db 3 << 4 | C_
0A6AE                           	note_length M1, S16
0A6AE 82                        	.db NOTE_LENGTH_CMD | M1 | S16
0A6AF                           	note C_, 3
0A6AF 31                        	.db 3 << 4 | C_
0A6B0                           	note_length M1, S8
0A6B0 83                        	.db NOTE_LENGTH_CMD | M1 | S8
0A6B1                           	note C_, 3
0A6B1 31                        	.db 3 << 4 | C_
0A6B2                           	note_length M1, S16
0A6B2 82                        	.db NOTE_LENGTH_CMD | M1 | S16
0A6B3                           	note C_, 3
0A6B3 31                        	.db 3 << 4 | C_
0A6B4                           	instrument 0
0A6B4 C0                        	.db INSTRUMENT_CMD | 0
0A6B5                           	note C_, 2
0A6B5 21                        	.db 2 << 4 | C_
0A6B6                           	note_length M1, S4
0A6B6 84                        	.db NOTE_LENGTH_CMD | M1 | S4
0A6B7                           	tie
0A6B7 0F                        	.db NOTE_MASK
0A6B8                           	rest
0A6B8 00                        	.db 0
0A6B9                           
0A6B9                           	sound_ret
0A6B9 FF                        	.db SOUND_RET_CMD
0A6BA                           
0A6BA                           MusicData_Title_FDS:
0A6BA                           	instrument 6
0A6BA C6                        	.db INSTRUMENT_CMD | 6
0A6BB                           	volume_const
0A6BB EF                        	.db FADE_CTRL_CMD + F_IN - 1
0A6BC                           	note_length M1_5, S8
0A6BC 8B                        	.db NOTE_LENGTH_CMD | M1_5 | S8
0A6BD                           	note F_, 2
0A6BD 26                        	.db 2 << 4 | F_
0A6BE                           	instrument 0
0A6BE C0                        	.db INSTRUMENT_CMD | 0
0A6BF                           	note_length M1, S16
0A6BF 82                        	.db NOTE_LENGTH_CMD | M1 | S16
0A6C0                           	note A_, 4
0A6C0 4A                        	.db 4 << 4 | A_
0A6C1                           	rest
0A6C1 00                        	.db 0
0A6C2                           	note_length M1, S8
0A6C2 83                        	.db NOTE_LENGTH_CMD | M1 | S8
0A6C3                           	note A_, 4
0A6C3 4A                        	.db 4 << 4 | A_
0A6C4                           	instrument 6
0A6C4 C6                        	.db INSTRUMENT_CMD | 6
0A6C5                           	note F_, 2
0A6C5 26                        	.db 2 << 4 | F_
0A6C6                           	instrument 0
0A6C6 C0                        	.db INSTRUMENT_CMD | 0
0A6C7                           	note A_, 4
0A6C7 4A                        	.db 4 << 4 | A_
0A6C8                           	instrument 6
0A6C8 C6                        	.db INSTRUMENT_CMD | 6
0A6C9                           	note F_, 2
0A6C9 26                        	.db 2 << 4 | F_
0A6CA                           	instrument 0
0A6CA C0                        	.db INSTRUMENT_CMD | 0
0A6CB                           	note_length M1, S16
0A6CB 82                        	.db NOTE_LENGTH_CMD | M1 | S16
0A6CC                           	note A_, 4
0A6CC 4A                        	.db 4 << 4 | A_
0A6CD                           	instrument 6
0A6CD C6                        	.db INSTRUMENT_CMD | 6
0A6CE                           	note_length M1_5, S8
0A6CE 8B                        	.db NOTE_LENGTH_CMD | M1_5 | S8
0A6CF                           	note F_, 2
0A6CF 26                        	.db 2 << 4 | F_
0A6D0                           
0A6D0                           	instrument 0
0A6D0 C0                        	.db INSTRUMENT_CMD | 0
0A6D1                           	note_length M1, S16
0A6D1 82                        	.db NOTE_LENGTH_CMD | M1 | S16
0A6D2                           	note A_, 4
0A6D2 4A                        	.db 4 << 4 | A_
0A6D3                           	rest
0A6D3 00                        	.db 0
0A6D4                           	note A_, 4
0A6D4 4A                        	.db 4 << 4 | A_
0A6D5                           	rest
0A6D5 00                        	.db 0
0A6D6                           	note_length M1, S4
0A6D6 84                        	.db NOTE_LENGTH_CMD | M1 | S4
0A6D7                           	note A_, 4
0A6D7 4A                        	.db 4 << 4 | A_
0A6D8                           	note_length M1, S2
0A6D8 85                        	.db NOTE_LENGTH_CMD | M1 | S2
0A6D9                           	note F#, 4
0A6D9 47                        	.db 4 << 4 | F#
0A6DA                           	note_length M1, S16
0A6DA 82                        	.db NOTE_LENGTH_CMD | M1 | S16
0A6DB                           
0A6DB                           	tie
0A6DB 0F                        	.db NOTE_MASK
0A6DC                           	sound_ret
0A6DC FF                        	.db SOUND_RET_CMD
0A6DD                           .include "src/music/music-data/turn-and-try.asm"
0A6DD                           MusicData_TurnAndTry_IntroSilence:
0A6DD                           	note_length M1, S2
0A6DD 85                        	.db NOTE_LENGTH_CMD | M1 | S2
0A6DE                           	rest
0A6DE 00                        	.db 0
0A6DF                           	note_length M1, S8
0A6DF 83                        	.db NOTE_LENGTH_CMD | M1 | S8
0A6E0                           	rest
0A6E0 00                        	.db 0
0A6E1                           	sound_ret
0A6E1 FF                        	.db SOUND_RET_CMD
0A6E2                           
0A6E2                           MusicData_TurnAndTry_Silence:
0A6E2                           	note_length M1, S1
0A6E2 86                        	.db NOTE_LENGTH_CMD | M1 | S1
0A6E3                           	rest
0A6E3 00                        	.db 0
0A6E4                           	sound_ret
0A6E4 FF                        	.db SOUND_RET_CMD
0A6E5                           
0A6E5                           MusicData_TurnAndTry_Pulse1Pulse2:
0A6E5                           	instrument 0
0A6E5 C0                        	.db INSTRUMENT_CMD | 0
0A6E6                           	volume_const
0A6E6 EF                        	.db FADE_CTRL_CMD + F_IN - 1
0A6E7                           	note_length M1, S64
0A6E7 80                        	.db NOTE_LENGTH_CMD | M1 | S64
0A6E8                           	note F_, 3
0A6E8 36                        	.db 3 << 4 | F_
0A6E9                           	note_length M1_5, S32
0A6E9 89                        	.db NOTE_LENGTH_CMD | M1_5 | S32
0A6EA                           	rest
0A6EA 00                        	.db 0
0A6EB                           	note_length M1, S64
0A6EB 80                        	.db NOTE_LENGTH_CMD | M1 | S64
0A6EC                           	note G_, 3
0A6EC 38                        	.db 3 << 4 | G_
0A6ED                           	note_length M1_5, S32
0A6ED 89                        	.db NOTE_LENGTH_CMD | M1_5 | S32
0A6EE                           	rest
0A6EE 00                        	.db 0
0A6EF                           	note_length M1, S64
0A6EF 80                        	.db NOTE_LENGTH_CMD | M1 | S64
0A6F0                           	note F_, 3
0A6F0 36                        	.db 3 << 4 | F_
0A6F1                           	note_length M1_5, S32
0A6F1 89                        	.db NOTE_LENGTH_CMD | M1_5 | S32
0A6F2                           	rest
0A6F2 00                        	.db 0
0A6F3                           	note_length M1, S64
0A6F3 80                        	.db NOTE_LENGTH_CMD | M1 | S64
0A6F4                           	note G_, 3
0A6F4 38                        	.db 3 << 4 | G_
0A6F5                           	note_length M1_5, S32
0A6F5 89                        	.db NOTE_LENGTH_CMD | M1_5 | S32
0A6F6                           	rest
0A6F6 00                        	.db 0
0A6F7                           	note_length M1, S64
0A6F7 80                        	.db NOTE_LENGTH_CMD | M1 | S64
0A6F8                           	note F_, 3
0A6F8 36                        	.db 3 << 4 | F_
0A6F9                           	note_length M1_5, S32
0A6F9 89                        	.db NOTE_LENGTH_CMD | M1_5 | S32
0A6FA                           	rest
0A6FA 00                        	.db 0
0A6FB                           	note_length M1, S32
0A6FB 81                        	.db NOTE_LENGTH_CMD | M1 | S32
0A6FC                           	note G_, 3
0A6FC 38                        	.db 3 << 4 | G_
0A6FD                           	note_length M1_5, S16
0A6FD 8A                        	.db NOTE_LENGTH_CMD | M1_5 | S16
0A6FE                           	rest
0A6FE 00                        	.db 0
0A6FF                           	note_length M1, S64
0A6FF 80                        	.db NOTE_LENGTH_CMD | M1 | S64
0A700                           	note F_, 3
0A700 36                        	.db 3 << 4 | F_
0A701                           	note_length M1_5, S32
0A701 89                        	.db NOTE_LENGTH_CMD | M1_5 | S32
0A702                           	rest
0A702 00                        	.db 0
0A703                           	note_length M1, S64
0A703 80                        	.db NOTE_LENGTH_CMD | M1 | S64
0A704                           	note G_, 3
0A704 38                        	.db 3 << 4 | G_
0A705                           	note_length M1_5, S32
0A705 89                        	.db NOTE_LENGTH_CMD | M1_5 | S32
0A706                           	rest
0A706 00                        	.db 0
0A707                           	note_length M1, S64
0A707 80                        	.db NOTE_LENGTH_CMD | M1 | S64
0A708                           	note F_, 3
0A708 36                        	.db 3 << 4 | F_
0A709                           	note_length M1_5, S32
0A709 89                        	.db NOTE_LENGTH_CMD | M1_5 | S32
0A70A                           	rest
0A70A 00                        	.db 0
0A70B                           	note_length M1, S64
0A70B 80                        	.db NOTE_LENGTH_CMD | M1 | S64
0A70C                           	note G_, 3
0A70C 38                        	.db 3 << 4 | G_
0A70D                           	note_length M1_5, S32
0A70D 89                        	.db NOTE_LENGTH_CMD | M1_5 | S32
0A70E                           	rest
0A70E 00                        	.db 0
0A70F                           	note_length M1, S64
0A70F 80                        	.db NOTE_LENGTH_CMD | M1 | S64
0A710                           	note F_, 3
0A710 36                        	.db 3 << 4 | F_
0A711                           	note_length M1_5, S32
0A711 89                        	.db NOTE_LENGTH_CMD | M1_5 | S32
0A712                           	rest
0A712 00                        	.db 0
0A713                           	note_length M1, S32
0A713 81                        	.db NOTE_LENGTH_CMD | M1 | S32
0A714                           	note F_, 3
0A714 36                        	.db 3 << 4 | F_
0A715                           	note_length M1_5, S16
0A715 8A                        	.db NOTE_LENGTH_CMD | M1_5 | S16
0A716                           	rest
0A716 00                        	.db 0
0A717                           	note_length M1, S64
0A717 80                        	.db NOTE_LENGTH_CMD | M1 | S64
0A718                           	note F_, 3
0A718 36                        	.db 3 << 4 | F_
0A719                           	note_length M1_5, S32
0A719 89                        	.db NOTE_LENGTH_CMD | M1_5 | S32
0A71A                           	rest
0A71A 00                        	.db 0
0A71B                           	note_length M1, S64
0A71B 80                        	.db NOTE_LENGTH_CMD | M1 | S64
0A71C                           	note G_, 3
0A71C 38                        	.db 3 << 4 | G_
0A71D                           	note_length M1_5, S32
0A71D 89                        	.db NOTE_LENGTH_CMD | M1_5 | S32
0A71E                           	rest
0A71E 00                        	.db 0
0A71F                           	note_length M1, S64
0A71F 80                        	.db NOTE_LENGTH_CMD | M1 | S64
0A720                           	note D#, 3
0A720 34                        	.db 3 << 4 | D#
0A721                           	note_length M1_5, S32
0A721 89                        	.db NOTE_LENGTH_CMD | M1_5 | S32
0A722                           	rest
0A722 00                        	.db 0
0A723                           	note_length M1, S64
0A723 80                        	.db NOTE_LENGTH_CMD | M1 | S64
0A724                           	note F_, 3
0A724 36                        	.db 3 << 4 | F_
0A725                           	note_length M1_5, S32
0A725 89                        	.db NOTE_LENGTH_CMD | M1_5 | S32
0A726                           	rest
0A726 00                        	.db 0
0A727                           	note_length M1, S64
0A727 80                        	.db NOTE_LENGTH_CMD | M1 | S64
0A728                           	note D#, 3
0A728 34                        	.db 3 << 4 | D#
0A729                           	note_length M1_5, S32
0A729 89                        	.db NOTE_LENGTH_CMD | M1_5 | S32
0A72A                           	rest
0A72A 00                        	.db 0
0A72B                           	note_length M1, S64
0A72B 80                        	.db NOTE_LENGTH_CMD | M1 | S64
0A72C                           	note F_, 3
0A72C 36                        	.db 3 << 4 | F_
0A72D                           	note_length M1_5, S32
0A72D 89                        	.db NOTE_LENGTH_CMD | M1_5 | S32
0A72E                           	rest
0A72E 00                        	.db 0
0A72F                           	note_length M1, S64
0A72F 80                        	.db NOTE_LENGTH_CMD | M1 | S64
0A730                           	note D#, 3
0A730 34                        	.db 3 << 4 | D#
0A731                           	note_length M1_5, S32
0A731 89                        	.db NOTE_LENGTH_CMD | M1_5 | S32
0A732                           	rest
0A732 00                        	.db 0
0A733                           	note_length M1, S32
0A733 81                        	.db NOTE_LENGTH_CMD | M1 | S32
0A734                           	note F_, 3
0A734 36                        	.db 3 << 4 | F_
0A735                           	note_length M1_5, S16
0A735 8A                        	.db NOTE_LENGTH_CMD | M1_5 | S16
0A736                           	rest
0A736 00                        	.db 0
0A737                           	note_length M1, S64
0A737 80                        	.db NOTE_LENGTH_CMD | M1 | S64
0A738                           	note D#, 3
0A738 34                        	.db 3 << 4 | D#
0A739                           	note_length M1_5, S32
0A739 89                        	.db NOTE_LENGTH_CMD | M1_5 | S32
0A73A                           	rest
0A73A 00                        	.db 0
0A73B                           	note_length M1, S64
0A73B 80                        	.db NOTE_LENGTH_CMD | M1 | S64
0A73C                           	note F_, 3
0A73C 36                        	.db 3 << 4 | F_
0A73D                           	note_length M1_5, S32
0A73D 89                        	.db NOTE_LENGTH_CMD | M1_5 | S32
0A73E                           	rest
0A73E 00                        	.db 0
0A73F                           	note_length M1, S64
0A73F 80                        	.db NOTE_LENGTH_CMD | M1 | S64
0A740                           	note D#, 3
0A740 34                        	.db 3 << 4 | D#
0A741                           	note_length M1_5, S32
0A741 89                        	.db NOTE_LENGTH_CMD | M1_5 | S32
0A742                           	rest
0A742 00                        	.db 0
0A743                           	note_length M1, S64
0A743 80                        	.db NOTE_LENGTH_CMD | M1 | S64
0A744                           	note F_, 3
0A744 36                        	.db 3 << 4 | F_
0A745                           	note_length M1_5, S32
0A745 89                        	.db NOTE_LENGTH_CMD | M1_5 | S32
0A746                           	rest
0A746 00                        	.db 0
0A747                           	note_length M1, S64
0A747 80                        	.db NOTE_LENGTH_CMD | M1 | S64
0A748                           	note D#, 3
0A748 34                        	.db 3 << 4 | D#
0A749                           	note_length M1_5, S32
0A749 89                        	.db NOTE_LENGTH_CMD | M1_5 | S32
0A74A                           	rest
0A74A 00                        	.db 0
0A74B                           	note_length M1, S32
0A74B 81                        	.db NOTE_LENGTH_CMD | M1 | S32
0A74C                           	note D#, 3
0A74C 34                        	.db 3 << 4 | D#
0A74D                           	note_length M1_5, S16
0A74D 8A                        	.db NOTE_LENGTH_CMD | M1_5 | S16
0A74E                           	rest
0A74E 00                        	.db 0
0A74F                           	note_length M1, S64
0A74F 80                        	.db NOTE_LENGTH_CMD | M1 | S64
0A750                           	note D#, 3
0A750 34                        	.db 3 << 4 | D#
0A751                           	note_length M1_5, S32
0A751 89                        	.db NOTE_LENGTH_CMD | M1_5 | S32
0A752                           	rest
0A752 00                        	.db 0
0A753                           	note_length M1, S64
0A753 80                        	.db NOTE_LENGTH_CMD | M1 | S64
0A754                           	note F_, 3
0A754 36                        	.db 3 << 4 | F_
0A755                           	note_length M1_5, S32
0A755 89                        	.db NOTE_LENGTH_CMD | M1_5 | S32
0A756                           	rest
0A756 00                        	.db 0
0A757                           	sound_ret
0A757 FF                        	.db SOUND_RET_CMD
0A758                           
0A758                           MusicData_TurnAndTry_Pulse1_1:
0A758                           	instrument 23
0A758 D7                        	.db INSTRUMENT_CMD | 23
0A759                           	volume_const
0A759 EF                        	.db FADE_CTRL_CMD + F_IN - 1
0A75A                           	note_length M1, S8
0A75A 83                        	.db NOTE_LENGTH_CMD | M1 | S8
0A75B                           	note C_, 3
0A75B 31                        	.db 3 << 4 | C_
0A75C                           	note_length M1, S16
0A75C 82                        	.db NOTE_LENGTH_CMD | M1 | S16
0A75D                           	note C_, 3
0A75D 31                        	.db 3 << 4 | C_
0A75E                           	note C_, 3
0A75E 31                        	.db 3 << 4 | C_
0A75F                           	note C_, 3
0A75F 31                        	.db 3 << 4 | C_
0A760                           	note F_, 3
0A760 36                        	.db 3 << 4 | F_
0A761                           	note G_, 3
0A761 38                        	.db 3 << 4 | G_
0A762                           	note_length M1, S2
0A762 85                        	.db NOTE_LENGTH_CMD | M1 | S2
0A763                           	note A#, 3
0A763 3B                        	.db 3 << 4 | A#
0A764                           	note_length M1, S16
0A764 82                        	.db NOTE_LENGTH_CMD | M1 | S16
0A765                           	rest
0A765 00                        	.db 0
0A766                           	note_length M1, S8
0A766 83                        	.db NOTE_LENGTH_CMD | M1 | S8
0A767                           	note A#, 2
0A767 2B                        	.db 2 << 4 | A#
0A768                           	note_length M1, S16
0A768 82                        	.db NOTE_LENGTH_CMD | M1 | S16
0A769                           	note A#, 2
0A769 2B                        	.db 2 << 4 | A#
0A76A                           	note A#, 2
0A76A 2B                        	.db 2 << 4 | A#
0A76B                           	note A#, 2
0A76B 2B                        	.db 2 << 4 | A#
0A76C                           	note D_, 3
0A76C 33                        	.db 3 << 4 | D_
0A76D                           	note G_, 3
0A76D 38                        	.db 3 << 4 | G_
0A76E                           	note_length M1, S2
0A76E 85                        	.db NOTE_LENGTH_CMD | M1 | S2
0A76F                           	note G#, 3
0A76F 39                        	.db 3 << 4 | G#
0A770                           	note_length M1, S16
0A770 82                        	.db NOTE_LENGTH_CMD | M1 | S16
0A771                           	rest
0A771 00                        	.db 0
0A772                           	sound_ret
0A772 FF                        	.db SOUND_RET_CMD
0A773                           
0A773                           MusicData_TurnAndTry_Pulse1_2:
0A773                           	instrument 23
0A773 D7                        	.db INSTRUMENT_CMD | 23
0A774                           	volume_const
0A774 EF                        	.db FADE_CTRL_CMD + F_IN - 1
0A775                           	note_length M1, S4
0A775 84                        	.db NOTE_LENGTH_CMD | M1 | S4
0A776                           	rest
0A776 00                        	.db 0
0A777                           	note_length M1, S16
0A777 82                        	.db NOTE_LENGTH_CMD | M1 | S16
0A778                           	note D#, 3
0A778 34                        	.db 3 << 4 | D#
0A779                           	note D#, 3
0A779 34                        	.db 3 << 4 | D#
0A77A                           	note_length M1_5, S4
0A77A 8C                        	.db NOTE_LENGTH_CMD | M1_5 | S4
0A77B                           	note D#, 3
0A77B 34                        	.db 3 << 4 | D#
0A77C                           	note_length M1, S16
0A77C 82                        	.db NOTE_LENGTH_CMD | M1 | S16
0A77D                           	note D#, 3
0A77D 34                        	.db 3 << 4 | D#
0A77E                           	note F_, 3
0A77E 36                        	.db 3 << 4 | F_
0A77F                           	note D#, 3
0A77F 34                        	.db 3 << 4 | D#
0A780                           	note F_, 3
0A780 36                        	.db 3 << 4 | F_
0A781                           	note_length M1, S4
0A781 84                        	.db NOTE_LENGTH_CMD | M1 | S4
0A782                           	rest
0A782 00                        	.db 0
0A783                           	note_length M1, S16
0A783 82                        	.db NOTE_LENGTH_CMD | M1 | S16
0A784                           	note D_, 3
0A784 33                        	.db 3 << 4 | D_
0A785                           	note D_, 3
0A785 33                        	.db 3 << 4 | D_
0A786                           	rest
0A786 00                        	.db 0
0A787                           	note D_, 3
0A787 33                        	.db 3 << 4 | D_
0A788                           	note_length M1, S4
0A788 84                        	.db NOTE_LENGTH_CMD | M1 | S4
0A789                           	rest
0A789 00                        	.db 0
0A78A                           	note_length M1, S16
0A78A 82                        	.db NOTE_LENGTH_CMD | M1 | S16
0A78B                           	note D_, 3
0A78B 33                        	.db 3 << 4 | D_
0A78C                           	note D#, 3
0A78C 34                        	.db 3 << 4 | D#
0A78D                           	note D_, 3
0A78D 33                        	.db 3 << 4 | D_
0A78E                           	note D#, 3
0A78E 34                        	.db 3 << 4 | D#
0A78F                           	sound_ret
0A78F FF                        	.db SOUND_RET_CMD
0A790                           
0A790                           MusicData_TurnAndTry_Pulse1_3:
0A790                           	instrument 10
0A790 CA                        	.db INSTRUMENT_CMD | 10
0A791                           	volume_fade 0, 14
0A791 EE                        	.db FADE_CTRL_CMD | 0 | 14
0A792                           	note_length M1, S0_5
0A792 87                        	.db NOTE_LENGTH_CMD | M1 | S0_5
0A793                           	note C_, 2
0A793 21                        	.db 2 << 4 | C_
0A794                           	sound_ret
0A794 FF                        	.db SOUND_RET_CMD
0A795                           
0A795                           MusicData_TurnAndTry_Pulse2_1:
0A795                           	instrument 23
0A795 D7                        	.db INSTRUMENT_CMD | 23
0A796                           	volume_const
0A796 EF                        	.db FADE_CTRL_CMD + F_IN - 1
0A797                           	note_length M1, S4
0A797 84                        	.db NOTE_LENGTH_CMD | M1 | S4
0A798                           	rest
0A798 00                        	.db 0
0A799                           	note_length M1, S16
0A799 82                        	.db NOTE_LENGTH_CMD | M1 | S16
0A79A                           	note G_, 3
0A79A 38                        	.db 3 << 4 | G_
0A79B                           	note G_, 3
0A79B 38                        	.db 3 << 4 | G_
0A79C                           	note_length M1_5, S4
0A79C 8C                        	.db NOTE_LENGTH_CMD | M1_5 | S4
0A79D                           	note G_, 3
0A79D 38                        	.db 3 << 4 | G_
0A79E                           	note_length M1, S16
0A79E 82                        	.db NOTE_LENGTH_CMD | M1 | S16
0A79F                           	note G_, 3
0A79F 38                        	.db 3 << 4 | G_
0A7A0                           	note G#, 3
0A7A0 39                        	.db 3 << 4 | G#
0A7A1                           	note G_, 3
0A7A1 38                        	.db 3 << 4 | G_
0A7A2                           	note G#, 3
0A7A2 39                        	.db 3 << 4 | G#
0A7A3                           	note_length M1, S4
0A7A3 84                        	.db NOTE_LENGTH_CMD | M1 | S4
0A7A4                           	rest
0A7A4 00                        	.db 0
0A7A5                           	note_length M1, S16
0A7A5 82                        	.db NOTE_LENGTH_CMD | M1 | S16
0A7A6                           	note F_, 3
0A7A6 36                        	.db 3 << 4 | F_
0A7A7                           	note F_, 3
0A7A7 36                        	.db 3 << 4 | F_
0A7A8                           	rest
0A7A8 00                        	.db 0
0A7A9                           	note F_, 3
0A7A9 36                        	.db 3 << 4 | F_
0A7AA                           	note_length M1, S4
0A7AA 84                        	.db NOTE_LENGTH_CMD | M1 | S4
0A7AB                           	rest
0A7AB 00                        	.db 0
0A7AC                           	note_length M1, S16
0A7AC 82                        	.db NOTE_LENGTH_CMD | M1 | S16
0A7AD                           	note F_, 3
0A7AD 36                        	.db 3 << 4 | F_
0A7AE                           	note G_, 3
0A7AE 38                        	.db 3 << 4 | G_
0A7AF                           	note F_, 3
0A7AF 36                        	.db 3 << 4 | F_
0A7B0                           	note G_, 3
0A7B0 38                        	.db 3 << 4 | G_
0A7B1                           	sound_ret
0A7B1 FF                        	.db SOUND_RET_CMD
0A7B2                           
0A7B2                           MusicData_TurnAndTry_Pulse2_2:
0A7B2                           	instrument 10
0A7B2 CA                        	.db INSTRUMENT_CMD | 10
0A7B3                           	volume_fade 0, 14
0A7B3 EE                        	.db FADE_CTRL_CMD | 0 | 14
0A7B4                           	note_length M1, S0_5
0A7B4 87                        	.db NOTE_LENGTH_CMD | M1 | S0_5
0A7B5                           	note G_, 2
0A7B5 28                        	.db 2 << 4 | G_
0A7B6                           	sound_ret
0A7B6 FF                        	.db SOUND_RET_CMD
0A7B7                           
0A7B7                           MusicData_TurnAndTry_Hill_1:
0A7B7                           	instrument 21
0A7B7 D5                        	.db INSTRUMENT_CMD | 21
0A7B8                           	note_length M1_5, S8
0A7B8 8B                        	.db NOTE_LENGTH_CMD | M1_5 | S8
0A7B9                           	note C_, 3
0A7B9 31                        	.db 3 << 4 | C_
0A7BA                           	note_length M1, S16
0A7BA 82                        	.db NOTE_LENGTH_CMD | M1 | S16
0A7BB                           	note C_, 3
0A7BB 31                        	.db 3 << 4 | C_
0A7BC                           	note C_, 4
0A7BC 41                        	.db 4 << 4 | C_
0A7BD                           	rest
0A7BD 00                        	.db 0
0A7BE                           	note_length M1, S8
0A7BE 83                        	.db NOTE_LENGTH_CMD | M1 | S8
0A7BF                           	note C_, 3
0A7BF 31                        	.db 3 << 4 | C_
0A7C0                           	note_length M1, S16
0A7C0 82                        	.db NOTE_LENGTH_CMD | M1 | S16
0A7C1                           	rest
0A7C1 00                        	.db 0
0A7C2                           	note C_, 4
0A7C2 41                        	.db 4 << 4 | C_
0A7C3                           	note_length M1, S8
0A7C3 83                        	.db NOTE_LENGTH_CMD | M1 | S8
0A7C4                           	note C_, 3
0A7C4 31                        	.db 3 << 4 | C_
0A7C5                           	note C_, 4
0A7C5 41                        	.db 4 << 4 | C_
0A7C6                           	note C_, 4
0A7C6 41                        	.db 4 << 4 | C_
0A7C7                           	note_length M1_5, S8
0A7C7 8B                        	.db NOTE_LENGTH_CMD | M1_5 | S8
0A7C8                           	note A#, 3
0A7C8 3B                        	.db 3 << 4 | A#
0A7C9                           	note_length M1, S16
0A7C9 82                        	.db NOTE_LENGTH_CMD | M1 | S16
0A7CA                           	note A#, 2
0A7CA 2B                        	.db 2 << 4 | A#
0A7CB                           	note A#, 2
0A7CB 2B                        	.db 2 << 4 | A#
0A7CC                           	note_length M1, S8
0A7CC 83                        	.db NOTE_LENGTH_CMD | M1 | S8
0A7CD                           	note A#, 2
0A7CD 2B                        	.db 2 << 4 | A#
0A7CE                           	note_length M1, S16
0A7CE 82                        	.db NOTE_LENGTH_CMD | M1 | S16
0A7CF                           	note A#, 3
0A7CF 3B                        	.db 3 << 4 | A#
0A7D0                           	rest
0A7D0 00                        	.db 0
0A7D1                           	note A#, 2
0A7D1 2B                        	.db 2 << 4 | A#
0A7D2                           	note_length M1, S8
0A7D2 83                        	.db NOTE_LENGTH_CMD | M1 | S8
0A7D3                           	note A#, 2
0A7D3 2B                        	.db 2 << 4 | A#
0A7D4                           	note_length M1, S16
0A7D4 82                        	.db NOTE_LENGTH_CMD | M1 | S16
0A7D5                           	note A#, 3
0A7D5 3B                        	.db 3 << 4 | A#
0A7D6                           	rest
0A7D6 00                        	.db 0
0A7D7                           	note_length M1, S8
0A7D7 83                        	.db NOTE_LENGTH_CMD | M1 | S8
0A7D8                           	note A#, 2
0A7D8 2B                        	.db 2 << 4 | A#
0A7D9                           	sound_ret
0A7D9 FF                        	.db SOUND_RET_CMD
0A7DA                           
0A7DA                           MusicData_TurnAndTry_Hill_2:
0A7DA                           	instrument 21
0A7DA D5                        	.db INSTRUMENT_CMD | 21
0A7DB                           	note_length M1, S8
0A7DB 83                        	.db NOTE_LENGTH_CMD | M1 | S8
0A7DC                           	note A#, 2
0A7DC 2B                        	.db 2 << 4 | A#
0A7DD                           	note_length M1_5, S4
0A7DD 8C                        	.db NOTE_LENGTH_CMD | M1_5 | S4
0A7DE                           	rest
0A7DE 00                        	.db 0
0A7DF                           	note_length M1, S2
0A7DF 85                        	.db NOTE_LENGTH_CMD | M1 | S2
0A7E0                           	rest
0A7E0 00                        	.db 0
0A7E1                           	sound_ret
0A7E1 FF                        	.db SOUND_RET_CMD
0A7E2                           
0A7E2                           MusicData_TurnAndTry_Noise_1:
0A7E2                           	drum_envelope DR0, M1, S16
0A7E2 82                        	.db NOTE_LENGTH_CMD | DR0 | M1 | S16
0A7E3                           	rest
0A7E3 00                        	.db 0
0A7E4                           	drum_envelope DR0, M1, S64
0A7E4 80                        	.db NOTE_LENGTH_CMD | DR0 | M1 | S64
0A7E5                           	rest
0A7E5 00                        	.db 0
0A7E6                           	drum_envelope DR0, M1, S32
0A7E6 81                        	.db NOTE_LENGTH_CMD | DR0 | M1 | S32
0A7E7                           	drum_note 5
0A7E7 05                        	.db 5
0A7E8                           	drum_envelope DR1, M1, S32
0A7E8 A1                        	.db NOTE_LENGTH_CMD | DR1 | M1 | S32
0A7E9                           	drum_note 5
0A7E9 05                        	.db 5
0A7EA                           	drum_note 5
0A7EA 05                        	.db 5
0A7EB                           	drum_envelope DR2, M1, S16
0A7EB C2                        	.db NOTE_LENGTH_CMD | DR2 | M1 | S16
0A7EC                           	drum_note 5
0A7EC 05                        	.db 5
0A7ED                           	drum_envelope DR2, M1, S64
0A7ED C0                        	.db NOTE_LENGTH_CMD | DR2 | M1 | S64
0A7EE                           	rest
0A7EE 00                        	.db 0
0A7EF                           	drum_envelope DR2, M1, S16
0A7EF C2                        	.db NOTE_LENGTH_CMD | DR2 | M1 | S16
0A7F0                           	drum_note 5
0A7F0 05                        	.db 5
0A7F1                           	drum_note 5
0A7F1 05                        	.db 5
0A7F2                           	drum_note 6
0A7F2 06                        	.db 6
0A7F3                           	drum_note 6
0A7F3 06                        	.db 6
0A7F4                           	drum_note 6
0A7F4 06                        	.db 6
0A7F5                           	drum_note 7
0A7F5 07                        	.db 7
0A7F6                           	sound_ret
0A7F6 FF                        	.db SOUND_RET_CMD
0A7F7                           
0A7F7                           MusicData_TurnAndTry_Noise_2:
0A7F7                           	drum_envelope DR2, M1, S8
0A7F7 C3                        	.db NOTE_LENGTH_CMD | DR2 | M1 | S8
0A7F8                           	rest
0A7F8 00                        	.db 0
0A7F9                           	drum_envelope DR2, M1, S16
0A7F9 C2                        	.db NOTE_LENGTH_CMD | DR2 | M1 | S16
0A7FA                           	drum_note 4
0A7FA 04                        	.db 4
0A7FB                           	drum_note 4
0A7FB 04                        	.db 4
0A7FC                           	drum_envelope DR2, M1, S8
0A7FC C3                        	.db NOTE_LENGTH_CMD | DR2 | M1 | S8
0A7FD                           	rest
0A7FD 00                        	.db 0
0A7FE                           	drum_note 4
0A7FE 04                        	.db 4
0A7FF                           	drum_envelope DR2, M1, S16
0A7FF C2                        	.db NOTE_LENGTH_CMD | DR2 | M1 | S16
0A800                           	rest
0A800 00                        	.db 0
0A801                           	drum_note 4
0A801 04                        	.db 4
0A802                           	rest
0A802 00                        	.db 0
0A803                           	drum_note 4
0A803 04                        	.db 4
0A804                           	drum_envelope DR2, M1, S8
0A804 C3                        	.db NOTE_LENGTH_CMD | DR2 | M1 | S8
0A805                           	rest
0A805 00                        	.db 0
0A806                           	drum_note 4
0A806 04                        	.db 4
0A807                           	rest
0A807 00                        	.db 0
0A808                           	drum_envelope DR2, M1, S16
0A808 C2                        	.db NOTE_LENGTH_CMD | DR2 | M1 | S16
0A809                           	drum_note 4
0A809 04                        	.db 4
0A80A                           	drum_note 4
0A80A 04                        	.db 4
0A80B                           	drum_envelope DR2, M1, S8
0A80B C3                        	.db NOTE_LENGTH_CMD | DR2 | M1 | S8
0A80C                           	rest
0A80C 00                        	.db 0
0A80D                           	drum_note 4
0A80D 04                        	.db 4
0A80E                           	drum_envelope DR2, M1, S16
0A80E C2                        	.db NOTE_LENGTH_CMD | DR2 | M1 | S16
0A80F                           	rest
0A80F 00                        	.db 0
0A810                           	drum_note 4
0A810 04                        	.db 4
0A811                           	rest
0A811 00                        	.db 0
0A812                           	drum_note 4
0A812 04                        	.db 4
0A813                           	drum_envelope DR2, M1, S4
0A813 C4                        	.db NOTE_LENGTH_CMD | DR2 | M1 | S4
0A814                           	drum_note 4
0A814 04                        	.db 4
0A815                           	sound_ret
0A815 FF                        	.db SOUND_RET_CMD
0A816                           
0A816                           MusicData_TurnAndTry_Noise_3:
0A816                           	drum_envelope DR2, M1, S1
0A816 C6                        	.db NOTE_LENGTH_CMD | DR2 | M1 | S1
0A817                           	rest
0A817 00                        	.db 0
0A818                           	sound_ret
0A818 FF                        	.db SOUND_RET_CMD
0A819                           
0A819                           MusicData_TurnAndTry_DPCM_1:
0A819                           	note_length M1_5, S2
0A819 8D                        	.db NOTE_LENGTH_CMD | M1_5 | S2
0A81A                           	rest
0A81A 00                        	.db 0
0A81B                           	note_length M1, S8
0A81B 83                        	.db NOTE_LENGTH_CMD | M1 | S8
0A81C                           	dpcm_note 3
0A81C A3                        	.db DPCM_ID_CMD + 3
0A81D                           	dpcm_note 5
0A81D A5                        	.db DPCM_ID_CMD + 5
0A81E                           	note_length M1_5, S2
0A81E 8D                        	.db NOTE_LENGTH_CMD | M1_5 | S2
0A81F                           	dpcm_note 0
0A81F A0                        	.db DPCM_ID_CMD + 0
0A820                           	note_length M1, S8
0A820 83                        	.db NOTE_LENGTH_CMD | M1 | S8
0A821                           	rest
0A821 00                        	.db 0
0A822                           	dpcm_note 4
0A822 A4                        	.db DPCM_ID_CMD + 4
0A823                           	note_length M1_5, S2
0A823 8D                        	.db NOTE_LENGTH_CMD | M1_5 | S2
0A824                           	tie
0A824 0F                        	.db NOTE_MASK
0A825                           	note_length M1, S8
0A825 83                        	.db NOTE_LENGTH_CMD | M1 | S8
0A826                           	dpcm_note 0
0A826 A0                        	.db DPCM_ID_CMD + 0
0A827                           	dpcm_note 5
0A827 A5                        	.db DPCM_ID_CMD + 5
0A828                           	note_length M1, S1
0A828 86                        	.db NOTE_LENGTH_CMD | M1 | S1
0A829                           	tie
0A829 0F                        	.db NOTE_MASK
0A82A                           	sound_ret
0A82A FF                        	.db SOUND_RET_CMD
0A82B                           
0A82B                           MusicData_TurnAndTry_DPCM_2:
0A82B                           	note_length M1_5, S8
0A82B 8B                        	.db NOTE_LENGTH_CMD | M1_5 | S8
0A82C                           	rest
0A82C 00                        	.db 0
0A82D                           	note_length M1, S16
0A82D 82                        	.db NOTE_LENGTH_CMD | M1 | S16
0A82E                           	dpcm_note 5
0A82E A5                        	.db DPCM_ID_CMD + 5
0A82F                           	note_length M1_5, S2
0A82F 8D                        	.db NOTE_LENGTH_CMD | M1_5 | S2
0A830                           	dpcm_note 0
0A830 A0                        	.db DPCM_ID_CMD + 0
0A831                           	sound_ret
0A831 FF                        	.db SOUND_RET_CMD
0A832                           
0A832                           MusicData_TurnAndTry_FDS_1:
0A832                           	instrument 6
0A832 C6                        	.db INSTRUMENT_CMD | 6
0A833                           	volume_const
0A833 EF                        	.db FADE_CTRL_CMD + F_IN - 1
0A834                           	note_length M1_5, S8
0A834 8B                        	.db NOTE_LENGTH_CMD | M1_5 | S8
0A835                           	note F_, 2
0A835 26                        	.db 2 << 4 | F_
0A836                           	note_length M1, S16
0A836 82                        	.db NOTE_LENGTH_CMD | M1 | S16
0A837                           	note F_, 2
0A837 26                        	.db 2 << 4 | F_
0A838                           	instrument 0
0A838 C0                        	.db INSTRUMENT_CMD | 0
0A839                           	note_length M1, S8
0A839 83                        	.db NOTE_LENGTH_CMD | M1 | S8
0A83A                           	note E_, 4
0A83A 45                        	.db 4 << 4 | E_
0A83B                           	instrument 6
0A83B C6                        	.db INSTRUMENT_CMD | 6
0A83C                           	note F_, 2
0A83C 26                        	.db 2 << 4 | F_
0A83D                           	note_length M1, S16
0A83D 82                        	.db NOTE_LENGTH_CMD | M1 | S16
0A83E                           	tie
0A83E 0F                        	.db NOTE_MASK
0A83F                           	note F_, 2
0A83F 26                        	.db 2 << 4 | F_
0A840                           	note_length M1, S8
0A840 83                        	.db NOTE_LENGTH_CMD | M1 | S8
0A841                           	note F_, 2
0A841 26                        	.db 2 << 4 | F_
0A842                           	instrument 0
0A842 C0                        	.db INSTRUMENT_CMD | 0
0A843                           	note_length M1, S4
0A843 84                        	.db NOTE_LENGTH_CMD | M1 | S4
0A844                           	note E_, 4
0A844 45                        	.db 4 << 4 | E_
0A845                           	sound_ret
0A845 FF                        	.db SOUND_RET_CMD
0A846                           
0A846                           MusicData_TurnAndTry_FDS_2:
0A846                           	instrument 6
0A846 C6                        	.db INSTRUMENT_CMD | 6
0A847                           	volume_const
0A847 EF                        	.db FADE_CTRL_CMD + F_IN - 1
0A848                           	note_length M1_5, S8
0A848 8B                        	.db NOTE_LENGTH_CMD | M1_5 | S8
0A849                           	note F_, 2
0A849 26                        	.db 2 << 4 | F_
0A84A                           	note_length M1, S16
0A84A 82                        	.db NOTE_LENGTH_CMD | M1 | S16
0A84B                           	note F_, 2
0A84B 26                        	.db 2 << 4 | F_
0A84C                           	instrument 0
0A84C C0                        	.db INSTRUMENT_CMD | 0
0A84D                           	note_length M1, S8
0A84D 83                        	.db NOTE_LENGTH_CMD | M1 | S8
0A84E                           	note E_, 4
0A84E 45                        	.db 4 << 4 | E_
0A84F                           	instrument 6
0A84F C6                        	.db INSTRUMENT_CMD | 6
0A850                           	note F_, 2
0A850 26                        	.db 2 << 4 | F_
0A851                           	note_length M1, S16
0A851 82                        	.db NOTE_LENGTH_CMD | M1 | S16
0A852                           	tie
0A852 0F                        	.db NOTE_MASK
0A853                           	note F_, 2
0A853 26                        	.db 2 << 4 | F_
0A854                           	note_length M1, S8
0A854 83                        	.db NOTE_LENGTH_CMD | M1 | S8
0A855                           	note F_, 2
0A855 26                        	.db 2 << 4 | F_
0A856                           	instrument 0
0A856 C0                        	.db INSTRUMENT_CMD | 0
0A857                           	note E_, 4
0A857 45                        	.db 4 << 4 | E_
0A858                           	note E_, 4
0A858 45                        	.db 4 << 4 | E_
0A859                           	sound_ret
0A859 FF                        	.db SOUND_RET_CMD
0A85A                           
0A85A                           MusicData_TurnAndTry_FDS_3:
0A85A                           	instrument 6
0A85A C6                        	.db INSTRUMENT_CMD | 6
0A85B                           	volume_const
0A85B EF                        	.db FADE_CTRL_CMD + F_IN - 1
0A85C                           	note_length M1_5, S8
0A85C 8B                        	.db NOTE_LENGTH_CMD | M1_5 | S8
0A85D                           	note F_, 2
0A85D 26                        	.db 2 << 4 | F_
0A85E                           	note_length M1, S16
0A85E 82                        	.db NOTE_LENGTH_CMD | M1 | S16
0A85F                           	note F_, 2
0A85F 26                        	.db 2 << 4 | F_
0A860                           	instrument 0
0A860 C0                        	.db INSTRUMENT_CMD | 0
0A861                           	note_length M1, S8
0A861 83                        	.db NOTE_LENGTH_CMD | M1 | S8
0A862                           	note E_, 4
0A862 45                        	.db 4 << 4 | E_
0A863                           	instrument 6
0A863 C6                        	.db INSTRUMENT_CMD | 6
0A864                           	note F_, 2
0A864 26                        	.db 2 << 4 | F_
0A865                           	note_length M1, S16
0A865 82                        	.db NOTE_LENGTH_CMD | M1 | S16
0A866                           	tie
0A866 0F                        	.db NOTE_MASK
0A867                           	note F_, 2
0A867 26                        	.db 2 << 4 | F_
0A868                           	note_length M1, S8
0A868 83                        	.db NOTE_LENGTH_CMD | M1 | S8
0A869                           	note F_, 2
0A869 26                        	.db 2 << 4 | F_
0A86A                           	instrument 0
0A86A C0                        	.db INSTRUMENT_CMD | 0
0A86B                           	note_length M1, S16
0A86B 82                        	.db NOTE_LENGTH_CMD | M1 | S16
0A86C                           	note E_, 4
0A86C 45                        	.db 4 << 4 | E_
0A86D                           	note E_, 4
0A86D 45                        	.db 4 << 4 | E_
0A86E                           	note E_, 4
0A86E 45                        	.db 4 << 4 | E_
0A86F                           	note E_, 4
0A86F 45                        	.db 4 << 4 | E_
0A870                           	sound_ret
0A870 FF                        	.db SOUND_RET_CMD
0A871                           
0A871                           MusicData_TurnAndTry_FDS_4:
0A871                           	instrument 0
0A871 C0                        	.db INSTRUMENT_CMD | 0
0A872                           	volume_const
0A872 EF                        	.db FADE_CTRL_CMD + F_IN - 1
0A873                           	note_length M1, S16
0A873 82                        	.db NOTE_LENGTH_CMD | M1 | S16
0A874                           	note E_, 4
0A874 45                        	.db 4 << 4 | E_
0A875                           	note E_, 4
0A875 45                        	.db 4 << 4 | E_
0A876                           	tie
0A876 0F                        	.db NOTE_MASK
0A877                           	note E_, 4
0A877 45                        	.db 4 << 4 | E_
0A878                           	instrument 6
0A878 C6                        	.db INSTRUMENT_CMD | 6
0A879                           	note F_, 2
0A879 26                        	.db 2 << 4 | F_
0A87A                           	note F_, 2
0A87A 26                        	.db 2 << 4 | F_
0A87B                           	note F_, 2
0A87B 26                        	.db 2 << 4 | F_
0A87C                           	note F_, 2
0A87C 26                        	.db 2 << 4 | F_
0A87D                           	sound_ret
0A87D FF                        	.db SOUND_RET_CMD
0A87E                           
0A87E                           MusicData_TurnAndTry_FDS_5:
0A87E                           	instrument 6
0A87E C6                        	.db INSTRUMENT_CMD | 6
0A87F                           	volume_const
0A87F EF                        	.db FADE_CTRL_CMD + F_IN - 1
0A880                           	note_length M1_5, S8
0A880 8B                        	.db NOTE_LENGTH_CMD | M1_5 | S8
0A881                           	note F_, 2
0A881 26                        	.db 2 << 4 | F_
0A882                           	note_length M1, S16
0A882 82                        	.db NOTE_LENGTH_CMD | M1 | S16
0A883                           	note F_, 2
0A883 26                        	.db 2 << 4 | F_
0A884                           	instrument 0
0A884 C0                        	.db INSTRUMENT_CMD | 0
0A885                           	note_length M1, S8
0A885 83                        	.db NOTE_LENGTH_CMD | M1 | S8
0A886                           	note E_, 4
0A886 45                        	.db 4 << 4 | E_
0A887                           	instrument 6
0A887 C6                        	.db INSTRUMENT_CMD | 6
0A888                           	note F_, 2
0A888 26                        	.db 2 << 4 | F_
0A889                           	note_length M1, S16
0A889 82                        	.db NOTE_LENGTH_CMD | M1 | S16
0A88A                           	tie
0A88A 0F                        	.db NOTE_MASK
0A88B                           	note F_, 2
0A88B 26                        	.db 2 << 4 | F_
0A88C                           	note_length M1, S8
0A88C 83                        	.db NOTE_LENGTH_CMD | M1 | S8
0A88D                           	note F_, 2
0A88D 26                        	.db 2 << 4 | F_
0A88E                           	instrument 0
0A88E C0                        	.db INSTRUMENT_CMD | 0
0A88F                           	note E_, 4
0A88F 45                        	.db 4 << 4 | E_
0A890                           	instrument 6
0A890 C6                        	.db INSTRUMENT_CMD | 6
0A891                           	note F_, 2
0A891 26                        	.db 2 << 4 | F_
0A892                           	sound_ret
0A892 FF                        	.db SOUND_RET_CMD
0A893                           .include "src/music/music-data/tutorial.asm"
0A893                           MusicData_Tutorial_Pulse1:
0A893                           	instrument 2
0A893 C2                        	.db INSTRUMENT_CMD | 2
0A894                           	volume_const
0A894 EF                        	.db FADE_CTRL_CMD + F_IN - 1
0A895                           	note_length M1, S8
0A895 83                        	.db NOTE_LENGTH_CMD | M1 | S8
0A896                           	rest
0A896 00                        	.db 0
0A897                           	note_length M1, S16
0A897 82                        	.db NOTE_LENGTH_CMD | M1 | S16
0A898                           	note E_, 4
0A898 45                        	.db 4 << 4 | E_
0A899                           	note C_, 4
0A899 41                        	.db 4 << 4 | C_
0A89A                           	note_length M1, S8
0A89A 83                        	.db NOTE_LENGTH_CMD | M1 | S8
0A89B                           	note E_, 4
0A89B 45                        	.db 4 << 4 | E_
0A89C                           	note C_, 4
0A89C 41                        	.db 4 << 4 | C_
0A89D                           	note C_, 4
0A89D 41                        	.db 4 << 4 | C_
0A89E                           	note F_, 4
0A89E 46                        	.db 4 << 4 | F_
0A89F                           	note_length M1, S4
0A89F 84                        	.db NOTE_LENGTH_CMD | M1 | S4
0A8A0                           	note E_, 4
0A8A0 45                        	.db 4 << 4 | E_
0A8A1                           	note_length M1, S8
0A8A1 83                        	.db NOTE_LENGTH_CMD | M1 | S8
0A8A2                           	rest
0A8A2 00                        	.db 0
0A8A3                           	note_length M1, S16
0A8A3 82                        	.db NOTE_LENGTH_CMD | M1 | S16
0A8A4                           	note C_, 4
0A8A4 41                        	.db 4 << 4 | C_
0A8A5                           	note E_, 4
0A8A5 45                        	.db 4 << 4 | E_
0A8A6                           	note_length M1, S8
0A8A6 83                        	.db NOTE_LENGTH_CMD | M1 | S8
0A8A7                           	note G_, 4
0A8A7 48                        	.db 4 << 4 | G_
0A8A8                           	note E_, 4
0A8A8 45                        	.db 4 << 4 | E_
0A8A9                           	note_length M1, S16
0A8A9 82                        	.db NOTE_LENGTH_CMD | M1 | S16
0A8AA                           	note F_, 4
0A8AA 46                        	.db 4 << 4 | F_
0A8AB                           	note E_, 4
0A8AB 45                        	.db 4 << 4 | E_
0A8AC                           	note D_, 4
0A8AC 43                        	.db 4 << 4 | D_
0A8AD                           	note C_, 4
0A8AD 41                        	.db 4 << 4 | C_
0A8AE                           	note_length M1, S4
0A8AE 84                        	.db NOTE_LENGTH_CMD | M1 | S4
0A8AF                           	note B_, 3
0A8AF 3C                        	.db 3 << 4 | B_
0A8B0                           	note_length M1, S8
0A8B0 83                        	.db NOTE_LENGTH_CMD | M1 | S8
0A8B1                           	rest
0A8B1 00                        	.db 0
0A8B2                           	note_length M1, S16
0A8B2 82                        	.db NOTE_LENGTH_CMD | M1 | S16
0A8B3                           	note G_, 3
0A8B3 38                        	.db 3 << 4 | G_
0A8B4                           	note C_, 4
0A8B4 41                        	.db 4 << 4 | C_
0A8B5                           	note_length M1, S8
0A8B5 83                        	.db NOTE_LENGTH_CMD | M1 | S8
0A8B6                           	note E_, 4
0A8B6 45                        	.db 4 << 4 | E_
0A8B7                           	note C_, 4
0A8B7 41                        	.db 4 << 4 | C_
0A8B8                           	note_length M1, S16
0A8B8 82                        	.db NOTE_LENGTH_CMD | M1 | S16
0A8B9                           	note B_, 3
0A8B9 3C                        	.db 3 << 4 | B_
0A8BA                           	note C_, 4
0A8BA 41                        	.db 4 << 4 | C_
0A8BB                           	note D_, 4
0A8BB 43                        	.db 4 << 4 | D_
0A8BC                           	note E_, 4
0A8BC 45                        	.db 4 << 4 | E_
0A8BD                           	note G_, 4
0A8BD 48                        	.db 4 << 4 | G_
0A8BE                           	note F_, 4
0A8BE 46                        	.db 4 << 4 | F_
0A8BF                           	note E_, 4
0A8BF 45                        	.db 4 << 4 | E_
0A8C0                           	note D_, 4
0A8C0 43                        	.db 4 << 4 | D_
0A8C1                           	note C_, 4
0A8C1 41                        	.db 4 << 4 | C_
0A8C2                           	note D_, 4
0A8C2 43                        	.db 4 << 4 | D_
0A8C3                           	note E_, 4
0A8C3 45                        	.db 4 << 4 | E_
0A8C4                           	note F_, 4
0A8C4 46                        	.db 4 << 4 | F_
0A8C5                           	note G_, 4
0A8C5 48                        	.db 4 << 4 | G_
0A8C6                           	note G_, 4
0A8C6 48                        	.db 4 << 4 | G_
0A8C7                           	note F_, 4
0A8C7 46                        	.db 4 << 4 | F_
0A8C8                           	note E_, 4
0A8C8 45                        	.db 4 << 4 | E_
0A8C9                           	note_length M1, S8
0A8C9 83                        	.db NOTE_LENGTH_CMD | M1 | S8
0A8CA                           	note D_, 4
0A8CA 43                        	.db 4 << 4 | D_
0A8CB                           	note C_, 4
0A8CB 41                        	.db 4 << 4 | C_
0A8CC                           	note B_, 3
0A8CC 3C                        	.db 3 << 4 | B_
0A8CD                           	note G_, 3
0A8CD 38                        	.db 3 << 4 | G_
0A8CE                           	sound_ret
0A8CE FF                        	.db SOUND_RET_CMD
0A8CF                           
0A8CF                           MusicData_Tutorial_Pulse2:
0A8CF                           	instrument 2
0A8CF C2                        	.db INSTRUMENT_CMD | 2
0A8D0                           	volume_const
0A8D0 EF                        	.db FADE_CTRL_CMD + F_IN - 1
0A8D1                           	note_length M1, S8
0A8D1 83                        	.db NOTE_LENGTH_CMD | M1 | S8
0A8D2                           	rest
0A8D2 00                        	.db 0
0A8D3                           	note_length M1, S16
0A8D3 82                        	.db NOTE_LENGTH_CMD | M1 | S16
0A8D4                           	note C_, 4
0A8D4 41                        	.db 4 << 4 | C_
0A8D5                           	note E_, 4
0A8D5 45                        	.db 4 << 4 | E_
0A8D6                           	note_length M1, S8
0A8D6 83                        	.db NOTE_LENGTH_CMD | M1 | S8
0A8D7                           	note G_, 4
0A8D7 48                        	.db 4 << 4 | G_
0A8D8                           	note E_, 4
0A8D8 45                        	.db 4 << 4 | E_
0A8D9                           	note F_, 4
0A8D9 46                        	.db 4 << 4 | F_
0A8DA                           	note A_, 4
0A8DA 4A                        	.db 4 << 4 | A_
0A8DB                           	note_length M1_5, S4
0A8DB 8C                        	.db NOTE_LENGTH_CMD | M1_5 | S4
0A8DC                           	note G_, 4
0A8DC 48                        	.db 4 << 4 | G_
0A8DD                           	note_length M1, S16
0A8DD 82                        	.db NOTE_LENGTH_CMD | M1 | S16
0A8DE                           	note E_, 4
0A8DE 45                        	.db 4 << 4 | E_
0A8DF                           	note G_, 4
0A8DF 48                        	.db 4 << 4 | G_
0A8E0                           	note_length M1, S8
0A8E0 83                        	.db NOTE_LENGTH_CMD | M1 | S8
0A8E1                           	note C_, 5
0A8E1 51                        	.db 5 << 4 | C_
0A8E2                           	note G_, 4
0A8E2 48                        	.db 4 << 4 | G_
0A8E3                           	note_length M1, S16
0A8E3 82                        	.db NOTE_LENGTH_CMD | M1 | S16
0A8E4                           	note A_, 4
0A8E4 4A                        	.db 4 << 4 | A_
0A8E5                           	note G_, 4
0A8E5 48                        	.db 4 << 4 | G_
0A8E6                           	note F_, 4
0A8E6 46                        	.db 4 << 4 | F_
0A8E7                           	note E_, 4
0A8E7 45                        	.db 4 << 4 | E_
0A8E8                           	note_length M1_5, S4
0A8E8 8C                        	.db NOTE_LENGTH_CMD | M1_5 | S4
0A8E9                           	note D_, 4
0A8E9 43                        	.db 4 << 4 | D_
0A8EA                           	note_length M1, S16
0A8EA 82                        	.db NOTE_LENGTH_CMD | M1 | S16
0A8EB                           	note C_, 4
0A8EB 41                        	.db 4 << 4 | C_
0A8EC                           	note E_, 4
0A8EC 45                        	.db 4 << 4 | E_
0A8ED                           	note_length M1, S8
0A8ED 83                        	.db NOTE_LENGTH_CMD | M1 | S8
0A8EE                           	note G_, 4
0A8EE 48                        	.db 4 << 4 | G_
0A8EF                           	note E_, 4
0A8EF 45                        	.db 4 << 4 | E_
0A8F0                           	note_length M1, S16
0A8F0 82                        	.db NOTE_LENGTH_CMD | M1 | S16
0A8F1                           	note D_, 4
0A8F1 43                        	.db 4 << 4 | D_
0A8F2                           	note E_, 4
0A8F2 45                        	.db 4 << 4 | E_
0A8F3                           	note F_, 4
0A8F3 46                        	.db 4 << 4 | F_
0A8F4                           	note G_, 4
0A8F4 48                        	.db 4 << 4 | G_
0A8F5                           	note B_, 4
0A8F5 4C                        	.db 4 << 4 | B_
0A8F6                           	note A_, 4
0A8F6 4A                        	.db 4 << 4 | A_
0A8F7                           	note G_, 4
0A8F7 48                        	.db 4 << 4 | G_
0A8F8                           	note F_, 4
0A8F8 46                        	.db 4 << 4 | F_
0A8F9                           	note E_, 4
0A8F9 45                        	.db 4 << 4 | E_
0A8FA                           	note F_, 4
0A8FA 46                        	.db 4 << 4 | F_
0A8FB                           	note G_, 4
0A8FB 48                        	.db 4 << 4 | G_
0A8FC                           	note A_, 4
0A8FC 4A                        	.db 4 << 4 | A_
0A8FD                           	note C_, 5
0A8FD 51                        	.db 5 << 4 | C_
0A8FE                           	note B_, 4
0A8FE 4C                        	.db 4 << 4 | B_
0A8FF                           	note A_, 4
0A8FF 4A                        	.db 4 << 4 | A_
0A900                           	note G_, 4
0A900 48                        	.db 4 << 4 | G_
0A901                           	note_length M1, S8
0A901 83                        	.db NOTE_LENGTH_CMD | M1 | S8
0A902                           	note F_, 4
0A902 46                        	.db 4 << 4 | F_
0A903                           	note E_, 4
0A903 45                        	.db 4 << 4 | E_
0A904                           	note D_, 4
0A904 43                        	.db 4 << 4 | D_
0A905                           	note C_, 4
0A905 41                        	.db 4 << 4 | C_
0A906                           	sound_ret
0A906 FF                        	.db SOUND_RET_CMD
0A907                           
0A907                           MusicData_Tutorial_Hill:
0A907                           	instrument 0
0A907 C0                        	.db INSTRUMENT_CMD | 0
0A908                           	note_length M1, S8
0A908 83                        	.db NOTE_LENGTH_CMD | M1 | S8
0A909                           	note C_, 2
0A909 21                        	.db 2 << 4 | C_
0A90A                           	note C_, 3
0A90A 31                        	.db 3 << 4 | C_
0A90B                           	note C_, 2
0A90B 21                        	.db 2 << 4 | C_
0A90C                           	note C_, 3
0A90C 31                        	.db 3 << 4 | C_
0A90D                           	note C_, 2
0A90D 21                        	.db 2 << 4 | C_
0A90E                           	note C_, 3
0A90E 31                        	.db 3 << 4 | C_
0A90F                           	note F_, 2
0A90F 26                        	.db 2 << 4 | F_
0A910                           	note F_, 3
0A910 36                        	.db 3 << 4 | F_
0A911                           	note C_, 2
0A911 21                        	.db 2 << 4 | C_
0A912                           	note C_, 3
0A912 31                        	.db 3 << 4 | C_
0A913                           	note C_, 2
0A913 21                        	.db 2 << 4 | C_
0A914                           	note C_, 3
0A914 31                        	.db 3 << 4 | C_
0A915                           	note F_, 2
0A915 26                        	.db 2 << 4 | F_
0A916                           	note F_, 3
0A916 36                        	.db 3 << 4 | F_
0A917                           	note G_, 2
0A917 28                        	.db 2 << 4 | G_
0A918                           	note G_, 3
0A918 38                        	.db 3 << 4 | G_
0A919                           	note D_, 2
0A919 23                        	.db 2 << 4 | D_
0A91A                           	note D_, 3
0A91A 33                        	.db 3 << 4 | D_
0A91B                           	note E_, 2
0A91B 25                        	.db 2 << 4 | E_
0A91C                           	note E_, 3
0A91C 35                        	.db 3 << 4 | E_
0A91D                           	note F_, 2
0A91D 26                        	.db 2 << 4 | F_
0A91E                           	note F_, 3
0A91E 36                        	.db 3 << 4 | F_
0A91F                           	note G_, 2
0A91F 28                        	.db 2 << 4 | G_
0A920                           	note G_, 3
0A920 38                        	.db 3 << 4 | G_
0A921                           	note G_, 2
0A921 28                        	.db 2 << 4 | G_
0A922                           	note G_, 3
0A922 38                        	.db 3 << 4 | G_
0A923                           	note G_, 2
0A923 28                        	.db 2 << 4 | G_
0A924                           	note G_, 3
0A924 38                        	.db 3 << 4 | G_
0A925                           	note G_, 2
0A925 28                        	.db 2 << 4 | G_
0A926                           	note G_, 3
0A926 38                        	.db 3 << 4 | G_
0A927                           	note F_, 2
0A927 26                        	.db 2 << 4 | F_
0A928                           	note F_, 3
0A928 36                        	.db 3 << 4 | F_
0A929                           	sound_ret
0A929 FF                        	.db SOUND_RET_CMD
0A92A                           
0A92A                           MusicData_Tutorial_Noise:
0A92A                           	drum_envelope DR1, M1, S8
0A92A A3                        	.db NOTE_LENGTH_CMD | DR1 | M1 | S8
0A92B                           	drum_note 3
0A92B 03                        	.db 3
0A92C                           	sound_ret
0A92C FF                        	.db SOUND_RET_CMD
0A92D                           
0A92D                           MusicData_Tutorial_FDS:
0A92D                           	instrument 6
0A92D C6                        	.db INSTRUMENT_CMD | 6
0A92E                           	note_length M1, S8
0A92E 83                        	.db NOTE_LENGTH_CMD | M1 | S8
0A92F                           	note F_, 2
0A92F 26                        	.db 2 << 4 | F_
0A930                           	instrument 9
0A930 C9                        	.db INSTRUMENT_CMD | 9
0A931                           	note D#, 5
0A931 54                        	.db 5 << 4 | D#
0A932                           	instrument 6
0A932 C6                        	.db INSTRUMENT_CMD | 6
0A933                           	note F_, 2
0A933 26                        	.db 2 << 4 | F_
0A934                           	tie
0A934 0F                        	.db NOTE_MASK
0A935                           	instrument 9
0A935 C9                        	.db INSTRUMENT_CMD | 9
0A936                           	note D#, 5
0A936 54                        	.db 5 << 4 | D#
0A937                           	note_length M1, S16
0A937 82                        	.db NOTE_LENGTH_CMD | M1 | S16
0A938                           	instrument 6
0A938 C6                        	.db INSTRUMENT_CMD | 6
0A939                           	note F_, 2
0A939 26                        	.db 2 << 4 | F_
0A93A                           	note F_, 2
0A93A 26                        	.db 2 << 4 | F_
0A93B                           	note_length M1, S8
0A93B 83                        	.db NOTE_LENGTH_CMD | M1 | S8
0A93C                           	note F_, 2
0A93C 26                        	.db 2 << 4 | F_
0A93D                           	tie
0A93D 0F                        	.db NOTE_MASK
0A93E                           	note F_, 2
0A93E 26                        	.db 2 << 4 | F_
0A93F                           	instrument 9
0A93F C9                        	.db INSTRUMENT_CMD | 9
0A940                           	note D#, 5
0A940 54                        	.db 5 << 4 | D#
0A941                           	instrument 6
0A941 C6                        	.db INSTRUMENT_CMD | 6
0A942                           	note F_, 2
0A942 26                        	.db 2 << 4 | F_
0A943                           	tie
0A943 0F                        	.db NOTE_MASK
0A944                           	instrument 9
0A944 C9                        	.db INSTRUMENT_CMD | 9
0A945                           	note D#, 5
0A945 54                        	.db 5 << 4 | D#
0A946                           	note_length M1, S16
0A946 82                        	.db NOTE_LENGTH_CMD | M1 | S16
0A947                           	instrument 6
0A947 C6                        	.db INSTRUMENT_CMD | 6
0A948                           	note F_, 2
0A948 26                        	.db 2 << 4 | F_
0A949                           	note F_, 2
0A949 26                        	.db 2 << 4 | F_
0A94A                           	instrument 9
0A94A C9                        	.db INSTRUMENT_CMD | 9
0A94B                           	note_length M1_5, S8
0A94B 8B                        	.db NOTE_LENGTH_CMD | M1_5 | S8
0A94C                           	note D#, 5
0A94C 54                        	.db 5 << 4 | D#
0A94D                           	note_length M1, S16
0A94D 82                        	.db NOTE_LENGTH_CMD | M1 | S16
0A94E                           	note D#, 5
0A94E 54                        	.db 5 << 4 | D#
0A94F                           	note_length M1, S8
0A94F 83                        	.db NOTE_LENGTH_CMD | M1 | S8
0A950                           	note D#, 5
0A950 54                        	.db 5 << 4 | D#
0A951                           	note D#, 5
0A951 54                        	.db 5 << 4 | D#
0A952                           	instrument 6
0A952 C6                        	.db INSTRUMENT_CMD | 6
0A953                           	note F_, 2
0A953 26                        	.db 2 << 4 | F_
0A954                           	tie
0A954 0F                        	.db NOTE_MASK
0A955                           	instrument 9
0A955 C9                        	.db INSTRUMENT_CMD | 9
0A956                           	note D#, 5
0A956 54                        	.db 5 << 4 | D#
0A957                           	note_length M1, S16
0A957 82                        	.db NOTE_LENGTH_CMD | M1 | S16
0A958                           	instrument 6
0A958 C6                        	.db INSTRUMENT_CMD | 6
0A959                           	note F_, 2
0A959 26                        	.db 2 << 4 | F_
0A95A                           	note F_, 2
0A95A 26                        	.db 2 << 4 | F_
0A95B                           	note_length M1, S8
0A95B 83                        	.db NOTE_LENGTH_CMD | M1 | S8
0A95C                           	note F_, 2
0A95C 26                        	.db 2 << 4 | F_
0A95D                           	tie
0A95D 0F                        	.db NOTE_MASK
0A95E                           	note F_, 2
0A95E 26                        	.db 2 << 4 | F_
0A95F                           	instrument 9
0A95F C9                        	.db INSTRUMENT_CMD | 9
0A960                           	note D#, 5
0A960 54                        	.db 5 << 4 | D#
0A961                           	instrument 6
0A961 C6                        	.db INSTRUMENT_CMD | 6
0A962                           	note F_, 2
0A962 26                        	.db 2 << 4 | F_
0A963                           	tie
0A963 0F                        	.db NOTE_MASK
0A964                           	instrument 9
0A964 C9                        	.db INSTRUMENT_CMD | 9
0A965                           	note D#, 5
0A965 54                        	.db 5 << 4 | D#
0A966                           	note_length M1, S16
0A966 82                        	.db NOTE_LENGTH_CMD | M1 | S16
0A967                           	note D#, 5
0A967 54                        	.db 5 << 4 | D#
0A968                           	note D#, 5
0A968 54                        	.db 5 << 4 | D#
0A969                           	note_length M1, S8
0A969 83                        	.db NOTE_LENGTH_CMD | M1 | S8
0A96A                           	note D#, 5
0A96A 54                        	.db 5 << 4 | D#
0A96B                           	note D#, 5
0A96B 54                        	.db 5 << 4 | D#
0A96C                           	sound_ret
0A96C FF                        	.db SOUND_RET_CMD
0A96D                           .include "src/music/music-data/visionary-castle.asm"0A96D                           MusicData_VisionaryCastle_Pulse1_1:
0A96D                           	instrument 23
0A96D D7                        	.db INSTRUMENT_CMD | 23
0A96E                           	volume_const
0A96E EF                        	.db FADE_CTRL_CMD + F_IN - 1
0A96F                           	note_length M1, S16
0A96F 82                        	.db NOTE_LENGTH_CMD | M1 | S16
0A970                           	note G_, 4
0A970 48                        	.db 4 << 4 | G_
0A971                           	note F_, 4
0A971 46                        	.db 4 << 4 | F_
0A972                           	note E_, 4
0A972 45                        	.db 4 << 4 | E_
0A973                           	note D_, 4
0A973 43                        	.db 4 << 4 | D_
0A974                           	note F_, 4
0A974 46                        	.db 4 << 4 | F_
0A975                           	note E_, 4
0A975 45                        	.db 4 << 4 | E_
0A976                           	note D_, 4
0A976 43                        	.db 4 << 4 | D_
0A977                           	note C_, 4
0A977 41                        	.db 4 << 4 | C_
0A978                           	sound_ret
0A978 FF                        	.db SOUND_RET_CMD
0A979                           
0A979                           MusicData_VisionaryCastle_Pulse2_1:
0A979                           	instrument 23
0A979 D7                        	.db INSTRUMENT_CMD | 23
0A97A                           	volume_const
0A97A EF                        	.db FADE_CTRL_CMD + F_IN - 1
0A97B                           	note_length M1, S16
0A97B 82                        	.db NOTE_LENGTH_CMD | M1 | S16
0A97C                           	note G_, 5
0A97C 58                        	.db 5 << 4 | G_
0A97D                           	note F_, 5
0A97D 56                        	.db 5 << 4 | F_
0A97E                           	note E_, 5
0A97E 55                        	.db 5 << 4 | E_
0A97F                           	note D_, 5
0A97F 53                        	.db 5 << 4 | D_
0A980                           	note F_, 5
0A980 56                        	.db 5 << 4 | F_
0A981                           	note E_, 5
0A981 55                        	.db 5 << 4 | E_
0A982                           	note D_, 5
0A982 53                        	.db 5 << 4 | D_
0A983                           	note C_, 5
0A983 51                        	.db 5 << 4 | C_
0A984                           	sound_ret
0A984 FF                        	.db SOUND_RET_CMD
0A985                           
0A985                           MusicData_VisionaryCastle_Pulse1_2:
0A985                           	instrument 23
0A985 D7                        	.db INSTRUMENT_CMD | 23
0A986                           	volume_const
0A986 EF                        	.db FADE_CTRL_CMD + F_IN - 1
0A987                           	note_length M1, S16
0A987 82                        	.db NOTE_LENGTH_CMD | M1 | S16
0A988                           	rest
0A988 00                        	.db 0
0A989                           	rest
0A989 00                        	.db 0
0A98A                           	note G_, 4
0A98A 48                        	.db 4 << 4 | G_
0A98B                           	rest
0A98B 00                        	.db 0
0A98C                           	note G_, 4
0A98C 48                        	.db 4 << 4 | G_
0A98D                           	rest
0A98D 00                        	.db 0
0A98E                           	note G_, 4
0A98E 48                        	.db 4 << 4 | G_
0A98F                           	rest
0A98F 00                        	.db 0
0A990                           	sound_ret
0A990 FF                        	.db SOUND_RET_CMD
0A991                           
0A991                           MusicData_VisionaryCastle_Pulse2_2:
0A991                           	instrument 23
0A991 D7                        	.db INSTRUMENT_CMD | 23
0A992                           	volume_const
0A992 EF                        	.db FADE_CTRL_CMD + F_IN - 1
0A993                           	note_length M1, S16
0A993 82                        	.db NOTE_LENGTH_CMD | M1 | S16
0A994                           	rest
0A994 00                        	.db 0
0A995                           	rest
0A995 00                        	.db 0
0A996                           	note G_, 5
0A996 58                        	.db 5 << 4 | G_
0A997                           	rest
0A997 00                        	.db 0
0A998                           	note G_, 5
0A998 58                        	.db 5 << 4 | G_
0A999                           	rest
0A999 00                        	.db 0
0A99A                           	note G_, 5
0A99A 58                        	.db 5 << 4 | G_
0A99B                           	rest
0A99B 00                        	.db 0
0A99C                           	sound_ret
0A99C FF                        	.db SOUND_RET_CMD
0A99D                           
0A99D                           MusicData_VisionaryCastle_Pulse1_3:
0A99D                           	instrument 21
0A99D D5                        	.db INSTRUMENT_CMD | 21
0A99E                           	volume_const
0A99E EF                        	.db FADE_CTRL_CMD + F_IN - 1
0A99F                           	note_length M1_5, S8
0A99F 8B                        	.db NOTE_LENGTH_CMD | M1_5 | S8
0A9A0                           	note E_, 3
0A9A0 35                        	.db 3 << 4 | E_
0A9A1                           	note_length M1, S16
0A9A1 82                        	.db NOTE_LENGTH_CMD | M1 | S16
0A9A2                           	note E_, 3
0A9A2 35                        	.db 3 << 4 | E_
0A9A3                           	note_length M1, S8
0A9A3 83                        	.db NOTE_LENGTH_CMD | M1 | S8
0A9A4                           	rest
0A9A4 00                        	.db 0
0A9A5                           	note D#, 3
0A9A5 34                        	.db 3 << 4 | D#
0A9A6                           	note_length M1, S4
0A9A6 84                        	.db NOTE_LENGTH_CMD | M1 | S4
0A9A7                           	note E_, 3
0A9A7 35                        	.db 3 << 4 | E_
0A9A8                           	note F_, 3
0A9A8 36                        	.db 3 << 4 | F_
0A9A9                           	note_length M1_5, S8
0A9A9 8B                        	.db NOTE_LENGTH_CMD | M1_5 | S8
0A9AA                           	note E_, 3
0A9AA 35                        	.db 3 << 4 | E_
0A9AB                           	note_length M1, S16
0A9AB 82                        	.db NOTE_LENGTH_CMD | M1 | S16
0A9AC                           	note E_, 3
0A9AC 35                        	.db 3 << 4 | E_
0A9AD                           	note_length M1, S8
0A9AD 83                        	.db NOTE_LENGTH_CMD | M1 | S8
0A9AE                           	rest
0A9AE 00                        	.db 0
0A9AF                           	note D#, 3
0A9AF 34                        	.db 3 << 4 | D#
0A9B0                           	note_length M1, S4
0A9B0 84                        	.db NOTE_LENGTH_CMD | M1 | S4
0A9B1                           	note E_, 3
0A9B1 35                        	.db 3 << 4 | E_
0A9B2                           	note F_, 3
0A9B2 36                        	.db 3 << 4 | F_
0A9B3                           	note_length M1_5, S8
0A9B3 8B                        	.db NOTE_LENGTH_CMD | M1_5 | S8
0A9B4                           	note D_, 3
0A9B4 33                        	.db 3 << 4 | D_
0A9B5                           	note_length M1, S16
0A9B5 82                        	.db NOTE_LENGTH_CMD | M1 | S16
0A9B6                           	note D_, 3
0A9B6 33                        	.db 3 << 4 | D_
0A9B7                           	note_length M1, S8
0A9B7 83                        	.db NOTE_LENGTH_CMD | M1 | S8
0A9B8                           	rest
0A9B8 00                        	.db 0
0A9B9                           	note C#, 3
0A9B9 32                        	.db 3 << 4 | C#
0A9BA                           	note_length M1, S4
0A9BA 84                        	.db NOTE_LENGTH_CMD | M1 | S4
0A9BB                           	note D_, 3
0A9BB 33                        	.db 3 << 4 | D_
0A9BC                           	note E_, 3
0A9BC 35                        	.db 3 << 4 | E_
0A9BD                           	note_length M1_5, S8
0A9BD 8B                        	.db NOTE_LENGTH_CMD | M1_5 | S8
0A9BE                           	note D_, 3
0A9BE 33                        	.db 3 << 4 | D_
0A9BF                           	note_length M1, S16
0A9BF 82                        	.db NOTE_LENGTH_CMD | M1 | S16
0A9C0                           	note D_, 3
0A9C0 33                        	.db 3 << 4 | D_
0A9C1                           	note_length M1, S8
0A9C1 83                        	.db NOTE_LENGTH_CMD | M1 | S8
0A9C2                           	rest
0A9C2 00                        	.db 0
0A9C3                           	note C#, 3
0A9C3 32                        	.db 3 << 4 | C#
0A9C4                           	note_length M1, S4
0A9C4 84                        	.db NOTE_LENGTH_CMD | M1 | S4
0A9C5                           	note D_, 3
0A9C5 33                        	.db 3 << 4 | D_
0A9C6                           	note E_, 3
0A9C6 35                        	.db 3 << 4 | E_
0A9C7                           	sound_ret
0A9C7 FF                        	.db SOUND_RET_CMD
0A9C8                           
0A9C8                           MusicData_VisionaryCastle_Pulse2_3:
0A9C8                           	instrument 21
0A9C8 D5                        	.db INSTRUMENT_CMD | 21
0A9C9                           	volume_const
0A9C9 EF                        	.db FADE_CTRL_CMD + F_IN - 1
0A9CA                           	note_length M1_5, S8
0A9CA 8B                        	.db NOTE_LENGTH_CMD | M1_5 | S8
0A9CB                           	note G_, 4
0A9CB 48                        	.db 4 << 4 | G_
0A9CC                           	note_length M1, S16
0A9CC 82                        	.db NOTE_LENGTH_CMD | M1 | S16
0A9CD                           	note G_, 4
0A9CD 48                        	.db 4 << 4 | G_
0A9CE                           	note_length M1, S8
0A9CE 83                        	.db NOTE_LENGTH_CMD | M1 | S8
0A9CF                           	rest
0A9CF 00                        	.db 0
0A9D0                           	note F#, 4
0A9D0 47                        	.db 4 << 4 | F#
0A9D1                           	note_length M1, S4
0A9D1 84                        	.db NOTE_LENGTH_CMD | M1 | S4
0A9D2                           	note G_, 4
0A9D2 48                        	.db 4 << 4 | G_
0A9D3                           	note A_, 4
0A9D3 4A                        	.db 4 << 4 | A_
0A9D4                           	note_length M1_5, S8
0A9D4 8B                        	.db NOTE_LENGTH_CMD | M1_5 | S8
0A9D5                           	note G_, 4
0A9D5 48                        	.db 4 << 4 | G_
0A9D6                           	note_length M1, S16
0A9D6 82                        	.db NOTE_LENGTH_CMD | M1 | S16
0A9D7                           	note G_, 4
0A9D7 48                        	.db 4 << 4 | G_
0A9D8                           	note_length M1, S8
0A9D8 83                        	.db NOTE_LENGTH_CMD | M1 | S8
0A9D9                           	rest
0A9D9 00                        	.db 0
0A9DA                           	note F#, 4
0A9DA 47                        	.db 4 << 4 | F#
0A9DB                           	note_length M1, S4
0A9DB 84                        	.db NOTE_LENGTH_CMD | M1 | S4
0A9DC                           	note G_, 4
0A9DC 48                        	.db 4 << 4 | G_
0A9DD                           	note A_, 4
0A9DD 4A                        	.db 4 << 4 | A_
0A9DE                           	note_length M1_5, S8
0A9DE 8B                        	.db NOTE_LENGTH_CMD | M1_5 | S8
0A9DF                           	note F_, 4
0A9DF 46                        	.db 4 << 4 | F_
0A9E0                           	note_length M1, S16
0A9E0 82                        	.db NOTE_LENGTH_CMD | M1 | S16
0A9E1                           	note F_, 4
0A9E1 46                        	.db 4 << 4 | F_
0A9E2                           	note_length M1, S8
0A9E2 83                        	.db NOTE_LENGTH_CMD | M1 | S8
0A9E3                           	rest
0A9E3 00                        	.db 0
0A9E4                           	note E_, 4
0A9E4 45                        	.db 4 << 4 | E_
0A9E5                           	note_length M1, S4
0A9E5 84                        	.db NOTE_LENGTH_CMD | M1 | S4
0A9E6                           	note F_, 4
0A9E6 46                        	.db 4 << 4 | F_
0A9E7                           	note G_, 4
0A9E7 48                        	.db 4 << 4 | G_
0A9E8                           	note_length M1_5, S8
0A9E8 8B                        	.db NOTE_LENGTH_CMD | M1_5 | S8
0A9E9                           	note F_, 4
0A9E9 46                        	.db 4 << 4 | F_
0A9EA                           	note_length M1, S16
0A9EA 82                        	.db NOTE_LENGTH_CMD | M1 | S16
0A9EB                           	note F_, 4
0A9EB 46                        	.db 4 << 4 | F_
0A9EC                           	note_length M1, S8
0A9EC 83                        	.db NOTE_LENGTH_CMD | M1 | S8
0A9ED                           	rest
0A9ED 00                        	.db 0
0A9EE                           	note E_, 4
0A9EE 45                        	.db 4 << 4 | E_
0A9EF                           	note_length M1, S4
0A9EF 84                        	.db NOTE_LENGTH_CMD | M1 | S4
0A9F0                           	note F_, 4
0A9F0 46                        	.db 4 << 4 | F_
0A9F1                           	note G_, 4
0A9F1 48                        	.db 4 << 4 | G_
0A9F2                           	sound_ret
0A9F2 FF                        	.db SOUND_RET_CMD
0A9F3                           
0A9F3                           MusicData_VisionaryCastle_Pulse1_4:
0A9F3                           	instrument 21
0A9F3 D5                        	.db INSTRUMENT_CMD | 21
0A9F4                           	volume_const
0A9F4 EF                        	.db FADE_CTRL_CMD + F_IN - 1
0A9F5                           	note_length M1, S4
0A9F5 84                        	.db NOTE_LENGTH_CMD | M1 | S4
0A9F6                           	pitch_slide 6, C_, 3
0A9F6 A6 31                     	.db PITCH_BEND_CMD | 6, 3 << 4 | C_
0A9F8                           	note A#, 2
0A9F8 2B                        	.db 2 << 4 | A#
0A9F9                           	note A_, 2
0A9F9 2A                        	.db 2 << 4 | A_
0A9FA                           	note_length M1, S8
0A9FA 83                        	.db NOTE_LENGTH_CMD | M1 | S8
0A9FB                           	note G_, 2
0A9FB 28                        	.db 2 << 4 | G_
0A9FC                           	note A_, 2
0A9FC 2A                        	.db 2 << 4 | A_
0A9FD                           	note G_, 2
0A9FD 28                        	.db 2 << 4 | G_
0A9FE                           	note A_, 2
0A9FE 2A                        	.db 2 << 4 | A_
0A9FF                           	note_length M1, S4
0A9FF 84                        	.db NOTE_LENGTH_CMD | M1 | S4
0AA00                           	pitch_slide 6, C_, 3
0AA00 A6 31                     	.db PITCH_BEND_CMD | 6, 3 << 4 | C_
0AA02                           	note A#, 2
0AA02 2B                        	.db 2 << 4 | A#
0AA03                           	note A_, 2
0AA03 2A                        	.db 2 << 4 | A_
0AA04                           	note_length M1, S8
0AA04 83                        	.db NOTE_LENGTH_CMD | M1 | S8
0AA05                           	note G_, 2
0AA05 28                        	.db 2 << 4 | G_
0AA06                           	note A_, 2
0AA06 2A                        	.db 2 << 4 | A_
0AA07                           	note G_, 2
0AA07 28                        	.db 2 << 4 | G_
0AA08                           	note A_, 2
0AA08 2A                        	.db 2 << 4 | A_
0AA09                           	note_length M1, S4
0AA09 84                        	.db NOTE_LENGTH_CMD | M1 | S4
0AA0A                           	pitch_slide 6, A#, 2
0AA0A A6 2B                     	.db PITCH_BEND_CMD | 6, 2 << 4 | A#
0AA0C                           	note G#, 2
0AA0C 29                        	.db 2 << 4 | G#
0AA0D                           	note G_, 2
0AA0D 28                        	.db 2 << 4 | G_
0AA0E                           	note_length M1, S8
0AA0E 83                        	.db NOTE_LENGTH_CMD | M1 | S8
0AA0F                           	note F_, 2
0AA0F 26                        	.db 2 << 4 | F_
0AA10                           	note G_, 2
0AA10 28                        	.db 2 << 4 | G_
0AA11                           	note F_, 2
0AA11 26                        	.db 2 << 4 | F_
0AA12                           	note G_, 2
0AA12 28                        	.db 2 << 4 | G_
0AA13                           	note_length M1, S4
0AA13 84                        	.db NOTE_LENGTH_CMD | M1 | S4
0AA14                           	pitch_slide 6, A#, 2
0AA14 A6 2B                     	.db PITCH_BEND_CMD | 6, 2 << 4 | A#
0AA16                           	note G#, 2
0AA16 29                        	.db 2 << 4 | G#
0AA17                           	note G_, 2
0AA17 28                        	.db 2 << 4 | G_
0AA18                           	note_length M1, S8
0AA18 83                        	.db NOTE_LENGTH_CMD | M1 | S8
0AA19                           	note F_, 2
0AA19 26                        	.db 2 << 4 | F_
0AA1A                           	note G_, 2
0AA1A 28                        	.db 2 << 4 | G_
0AA1B                           	note F_, 2
0AA1B 26                        	.db 2 << 4 | F_
0AA1C                           	note G_, 2
0AA1C 28                        	.db 2 << 4 | G_
0AA1D                           	sound_ret
0AA1D FF                        	.db SOUND_RET_CMD
0AA1E                           
0AA1E                           MusicData_VisionaryCastle_Pulse1_5:
0AA1E                           	instrument 21
0AA1E D5                        	.db INSTRUMENT_CMD | 21
0AA1F                           	volume_const
0AA1F EF                        	.db FADE_CTRL_CMD + F_IN - 1
0AA20                           	note_length M1, S4
0AA20 84                        	.db NOTE_LENGTH_CMD | M1 | S4
0AA21                           	pitch_slide 6, A#, 2
0AA21 A6 2B                     	.db PITCH_BEND_CMD | 6, 2 << 4 | A#
0AA23                           	note A#, 4
0AA23 4B                        	.db 4 << 4 | A#
0AA24                           	note_length M1_5, S4
0AA24 8C                        	.db NOTE_LENGTH_CMD | M1_5 | S4
0AA25                           	note A#, 3
0AA25 3B                        	.db 3 << 4 | A#
0AA26                           	rest
0AA26 00                        	.db 0
0AA27                           	note_length M1, S4
0AA27 84                        	.db NOTE_LENGTH_CMD | M1 | S4
0AA28                           	pitch_slide 6, A#, 2
0AA28 A6 2B                     	.db PITCH_BEND_CMD | 6, 2 << 4 | A#
0AA2A                           	note A#, 4
0AA2A 4B                        	.db 4 << 4 | A#
0AA2B                           	note_length M1_5, S4
0AA2B 8C                        	.db NOTE_LENGTH_CMD | M1_5 | S4
0AA2C                           	note A#, 3
0AA2C 3B                        	.db 3 << 4 | A#
0AA2D                           	rest
0AA2D 00                        	.db 0
0AA2E                           	note_length M1, S4
0AA2E 84                        	.db NOTE_LENGTH_CMD | M1 | S4
0AA2F                           	pitch_slide 6, A#, 2
0AA2F A6 2B                     	.db PITCH_BEND_CMD | 6, 2 << 4 | A#
0AA31                           	note A#, 4
0AA31 4B                        	.db 4 << 4 | A#
0AA32                           	note A#, 3
0AA32 3B                        	.db 3 << 4 | A#
0AA33                           	pitch_slide 6, A#, 2
0AA33 A6 2B                     	.db PITCH_BEND_CMD | 6, 2 << 4 | A#
0AA35                           	note A#, 4
0AA35 4B                        	.db 4 << 4 | A#
0AA36                           	note A#, 3
0AA36 3B                        	.db 3 << 4 | A#
0AA37                           	note_length M1, S16
0AA37 82                        	.db NOTE_LENGTH_CMD | M1 | S16
0AA38                           	note F_, 3
0AA38 36                        	.db 3 << 4 | F_
0AA39                           	rest
0AA39 00                        	.db 0
0AA3A                           	note F_, 3
0AA3A 36                        	.db 3 << 4 | F_
0AA3B                           	rest
0AA3B 00                        	.db 0
0AA3C                           	note F_, 3
0AA3C 36                        	.db 3 << 4 | F_
0AA3D                           	rest
0AA3D 00                        	.db 0
0AA3E                           	note F_, 3
0AA3E 36                        	.db 3 << 4 | F_
0AA3F                           	rest
0AA3F 00                        	.db 0
0AA40                           	note_length M1, S2
0AA40 85                        	.db NOTE_LENGTH_CMD | M1 | S2
0AA41                           	rest
0AA41 00                        	.db 0
0AA42                           	sound_ret
0AA42 FF                        	.db SOUND_RET_CMD
0AA43                           
0AA43                           MusicData_VisionaryCastle_Pulse2_4:
0AA43                           	instrument 22
0AA43 D6                        	.db INSTRUMENT_CMD | 22
0AA44                           	volume_const
0AA44 EF                        	.db FADE_CTRL_CMD + F_IN - 1
0AA45                           	note_length M1, S8
0AA45 83                        	.db NOTE_LENGTH_CMD | M1 | S8
0AA46                           	rest
0AA46 00                        	.db 0
0AA47                           	note_length M1, S4
0AA47 84                        	.db NOTE_LENGTH_CMD | M1 | S4
0AA48                           	pitch_slide 6, A#, 2
0AA48 A6 2B                     	.db PITCH_BEND_CMD | 6, 2 << 4 | A#
0AA4A                           	note A#, 4
0AA4A 4B                        	.db 4 << 4 | A#
0AA4B                           	note_length M1_5, S4
0AA4B 8C                        	.db NOTE_LENGTH_CMD | M1_5 | S4
0AA4C                           	note A#, 3
0AA4C 3B                        	.db 3 << 4 | A#
0AA4D                           	rest
0AA4D 00                        	.db 0
0AA4E                           	note_length M1, S4
0AA4E 84                        	.db NOTE_LENGTH_CMD | M1 | S4
0AA4F                           	pitch_slide 6, A#, 2
0AA4F A6 2B                     	.db PITCH_BEND_CMD | 6, 2 << 4 | A#
0AA51                           	note A#, 4
0AA51 4B                        	.db 4 << 4 | A#
0AA52                           	note_length M1_5, S4
0AA52 8C                        	.db NOTE_LENGTH_CMD | M1_5 | S4
0AA53                           	note A#, 3
0AA53 3B                        	.db 3 << 4 | A#
0AA54                           	rest
0AA54 00                        	.db 0
0AA55                           	note_length M1, S4
0AA55 84                        	.db NOTE_LENGTH_CMD | M1 | S4
0AA56                           	pitch_slide 6, A#, 2
0AA56 A6 2B                     	.db PITCH_BEND_CMD | 6, 2 << 4 | A#
0AA58                           	note A#, 4
0AA58 4B                        	.db 4 << 4 | A#
0AA59                           	note A#, 3
0AA59 3B                        	.db 3 << 4 | A#
0AA5A                           	pitch_slide 6, A#, 2
0AA5A A6 2B                     	.db PITCH_BEND_CMD | 6, 2 << 4 | A#
0AA5C                           	note A#, 4
0AA5C 4B                        	.db 4 << 4 | A#
0AA5D                           	note A#, 3
0AA5D 3B                        	.db 3 << 4 | A#
0AA5E                           	note_length M1, S16
0AA5E 82                        	.db NOTE_LENGTH_CMD | M1 | S16
0AA5F                           	note F_, 3
0AA5F 36                        	.db 3 << 4 | F_
0AA60                           	rest
0AA60 00                        	.db 0
0AA61                           	note F_, 3
0AA61 36                        	.db 3 << 4 | F_
0AA62                           	rest
0AA62 00                        	.db 0
0AA63                           	note F_, 3
0AA63 36                        	.db 3 << 4 | F_
0AA64                           	rest
0AA64 00                        	.db 0
0AA65                           	note F_, 3
0AA65 36                        	.db 3 << 4 | F_
0AA66                           	rest
0AA66 00                        	.db 0
0AA67                           	note_length M1_5, S4
0AA67 8C                        	.db NOTE_LENGTH_CMD | M1_5 | S4
0AA68                           	rest
0AA68 00                        	.db 0
0AA69                           	sound_ret
0AA69 FF                        	.db SOUND_RET_CMD
0AA6A                           
0AA6A                           MusicData_VisionaryCastle_Hill_1:
0AA6A                           	instrument 0
0AA6A C0                        	.db INSTRUMENT_CMD | 0
0AA6B                           	note_length M1, S1
0AA6B 86                        	.db NOTE_LENGTH_CMD | M1 | S1
0AA6C                           	rest
0AA6C 00                        	.db 0
0AA6D                           	rest
0AA6D 00                        	.db 0
0AA6E                           
0AA6E                           	rest
0AA6E 00                        	.db 0
0AA6F                           	rest
0AA6F 00                        	.db 0
0AA70                           
0AA70                           	rest
0AA70 00                        	.db 0
0AA71                           	note_length M1_5, S2
0AA71 8D                        	.db NOTE_LENGTH_CMD | M1_5 | S2
0AA72                           	rest
0AA72 00                        	.db 0
0AA73                           	note_length M1, S16
0AA73 82                        	.db NOTE_LENGTH_CMD | M1 | S16
0AA74                           	note G_, 3
0AA74 38                        	.db 3 << 4 | G_
0AA75                           	note_length M1_5, S8
0AA75 8B                        	.db NOTE_LENGTH_CMD | M1_5 | S8
0AA76                           	pitch_slide 24, G_, 2
0AA76 B8 28                     	.db PITCH_BEND_CMD | 24, 2 << 4 | G_
0AA78                           	rest
0AA78 00                        	.db 0
0AA79                           	sound_ret
0AA79 FF                        	.db SOUND_RET_CMD
0AA7A                           
0AA7A                           MusicData_VisionaryCastle_Hill_2:
0AA7A                           	instrument 21
0AA7A D5                        	.db INSTRUMENT_CMD | 21
0AA7B                           	note_length M1, S16
0AA7B 82                        	.db NOTE_LENGTH_CMD | M1 | S16
0AA7C                           	note C_, 3
0AA7C 31                        	.db 3 << 4 | C_
0AA7D                           	rest
0AA7D 00                        	.db 0
0AA7E                           	note C_, 3
0AA7E 31                        	.db 3 << 4 | C_
0AA7F                           	note C_, 3
0AA7F 31                        	.db 3 << 4 | C_
0AA80                           	note C_, 3
0AA80 31                        	.db 3 << 4 | C_
0AA81                           	rest
0AA81 00                        	.db 0
0AA82                           	note C_, 3
0AA82 31                        	.db 3 << 4 | C_
0AA83                           	note C_, 3
0AA83 31                        	.db 3 << 4 | C_
0AA84                           	note C_, 3
0AA84 31                        	.db 3 << 4 | C_
0AA85                           	rest
0AA85 00                        	.db 0
0AA86                           	note C_, 3
0AA86 31                        	.db 3 << 4 | C_
0AA87                           	note C_, 3
0AA87 31                        	.db 3 << 4 | C_
0AA88                           	note C_, 3
0AA88 31                        	.db 3 << 4 | C_
0AA89                           	rest
0AA89 00                        	.db 0
0AA8A                           	note C_, 3
0AA8A 31                        	.db 3 << 4 | C_
0AA8B                           	note C_, 3
0AA8B 31                        	.db 3 << 4 | C_
0AA8C                           	note C_, 3
0AA8C 31                        	.db 3 << 4 | C_
0AA8D                           	rest
0AA8D 00                        	.db 0
0AA8E                           	note C_, 3
0AA8E 31                        	.db 3 << 4 | C_
0AA8F                           	note C_, 3
0AA8F 31                        	.db 3 << 4 | C_
0AA90                           	note C_, 3
0AA90 31                        	.db 3 << 4 | C_
0AA91                           	rest
0AA91 00                        	.db 0
0AA92                           	note C_, 3
0AA92 31                        	.db 3 << 4 | C_
0AA93                           	note C_, 3
0AA93 31                        	.db 3 << 4 | C_
0AA94                           	note C_, 3
0AA94 31                        	.db 3 << 4 | C_
0AA95                           	rest
0AA95 00                        	.db 0
0AA96                           	note C_, 3
0AA96 31                        	.db 3 << 4 | C_
0AA97                           	note C_, 3
0AA97 31                        	.db 3 << 4 | C_
0AA98                           	note C_, 3
0AA98 31                        	.db 3 << 4 | C_
0AA99                           	rest
0AA99 00                        	.db 0
0AA9A                           	note C_, 3
0AA9A 31                        	.db 3 << 4 | C_
0AA9B                           	note C_, 3
0AA9B 31                        	.db 3 << 4 | C_
0AA9C                           	note A#, 2
0AA9C 2B                        	.db 2 << 4 | A#
0AA9D                           	rest
0AA9D 00                        	.db 0
0AA9E                           	note A#, 2
0AA9E 2B                        	.db 2 << 4 | A#
0AA9F                           	note A#, 2
0AA9F 2B                        	.db 2 << 4 | A#
0AAA0                           	note A#, 2
0AAA0 2B                        	.db 2 << 4 | A#
0AAA1                           	rest
0AAA1 00                        	.db 0
0AAA2                           	note A#, 2
0AAA2 2B                        	.db 2 << 4 | A#
0AAA3                           	note A#, 2
0AAA3 2B                        	.db 2 << 4 | A#
0AAA4                           	note A#, 2
0AAA4 2B                        	.db 2 << 4 | A#
0AAA5                           	rest
0AAA5 00                        	.db 0
0AAA6                           	note A#, 2
0AAA6 2B                        	.db 2 << 4 | A#
0AAA7                           	note A#, 2
0AAA7 2B                        	.db 2 << 4 | A#
0AAA8                           	note A#, 2
0AAA8 2B                        	.db 2 << 4 | A#
0AAA9                           	rest
0AAA9 00                        	.db 0
0AAAA                           	note A#, 2
0AAAA 2B                        	.db 2 << 4 | A#
0AAAB                           	note A#, 2
0AAAB 2B                        	.db 2 << 4 | A#
0AAAC                           	note A#, 2
0AAAC 2B                        	.db 2 << 4 | A#
0AAAD                           	rest
0AAAD 00                        	.db 0
0AAAE                           	note A#, 2
0AAAE 2B                        	.db 2 << 4 | A#
0AAAF                           	note A#, 2
0AAAF 2B                        	.db 2 << 4 | A#
0AAB0                           	note A#, 2
0AAB0 2B                        	.db 2 << 4 | A#
0AAB1                           	rest
0AAB1 00                        	.db 0
0AAB2                           	note A#, 2
0AAB2 2B                        	.db 2 << 4 | A#
0AAB3                           	note A#, 2
0AAB3 2B                        	.db 2 << 4 | A#
0AAB4                           	note A#, 2
0AAB4 2B                        	.db 2 << 4 | A#
0AAB5                           	rest
0AAB5 00                        	.db 0
0AAB6                           	note A#, 2
0AAB6 2B                        	.db 2 << 4 | A#
0AAB7                           	note A#, 2
0AAB7 2B                        	.db 2 << 4 | A#
0AAB8                           	note A#, 2
0AAB8 2B                        	.db 2 << 4 | A#
0AAB9                           	rest
0AAB9 00                        	.db 0
0AABA                           	note A#, 2
0AABA 2B                        	.db 2 << 4 | A#
0AABB                           	note A#, 2
0AABB 2B                        	.db 2 << 4 | A#
0AABC                           	sound_ret
0AABC FF                        	.db SOUND_RET_CMD
0AABD                           
0AABD                           MusicData_VisionaryCastle_Hill_3:
0AABD                           	instrument 21
0AABD D5                        	.db INSTRUMENT_CMD | 21
0AABE                           	note_length M1, S2
0AABE 85                        	.db NOTE_LENGTH_CMD | M1 | S2
0AABF                           	rest
0AABF 00                        	.db 0
0AAC0                           	note_length M1, S16
0AAC0 82                        	.db NOTE_LENGTH_CMD | M1 | S16
0AAC1                           	note C_, 2
0AAC1 21                        	.db 2 << 4 | C_
0AAC2                           	rest
0AAC2 00                        	.db 0
0AAC3                           	note C_, 3
0AAC3 31                        	.db 3 << 4 | C_
0AAC4                           	rest
0AAC4 00                        	.db 0
0AAC5                           	note C_, 2
0AAC5 21                        	.db 2 << 4 | C_
0AAC6                           	rest
0AAC6 00                        	.db 0
0AAC7                           	note C_, 3
0AAC7 31                        	.db 3 << 4 | C_
0AAC8                           	rest
0AAC8 00                        	.db 0
0AAC9                           	sound_ret
0AAC9 FF                        	.db SOUND_RET_CMD
0AACA                           
0AACA                           MusicData_VisionaryCastle_Hill_4:
0AACA                           	instrument 21
0AACA D5                        	.db INSTRUMENT_CMD | 21
0AACB                           	note_length M1, S16
0AACB 82                        	.db NOTE_LENGTH_CMD | M1 | S16
0AACC                           	note C_, 2
0AACC 21                        	.db 2 << 4 | C_
0AACD                           	rest
0AACD 00                        	.db 0
0AACE                           	note C_, 3
0AACE 31                        	.db 3 << 4 | C_
0AACF                           	rest
0AACF 00                        	.db 0
0AAD0                           	note C_, 2
0AAD0 21                        	.db 2 << 4 | C_
0AAD1                           	rest
0AAD1 00                        	.db 0
0AAD2                           	note C_, 3
0AAD2 31                        	.db 3 << 4 | C_
0AAD3                           	rest
0AAD3 00                        	.db 0
0AAD4                           	note C_, 2
0AAD4 21                        	.db 2 << 4 | C_
0AAD5                           	rest
0AAD5 00                        	.db 0
0AAD6                           	note C_, 3
0AAD6 31                        	.db 3 << 4 | C_
0AAD7                           	rest
0AAD7 00                        	.db 0
0AAD8                           	note C_, 2
0AAD8 21                        	.db 2 << 4 | C_
0AAD9                           	rest
0AAD9 00                        	.db 0
0AADA                           	note C_, 3
0AADA 31                        	.db 3 << 4 | C_
0AADB                           	rest
0AADB 00                        	.db 0
0AADC                           	note F_, 3
0AADC 36                        	.db 3 << 4 | F_
0AADD                           	rest
0AADD 00                        	.db 0
0AADE                           	note F_, 3
0AADE 36                        	.db 3 << 4 | F_
0AADF                           	rest
0AADF 00                        	.db 0
0AAE0                           	note F_, 3
0AAE0 36                        	.db 3 << 4 | F_
0AAE1                           	rest
0AAE1 00                        	.db 0
0AAE2                           	note F_, 3
0AAE2 36                        	.db 3 << 4 | F_
0AAE3                           	rest
0AAE3 00                        	.db 0
0AAE4                           	note_length M1, S2
0AAE4 85                        	.db NOTE_LENGTH_CMD | M1 | S2
0AAE5                           	rest
0AAE5 00                        	.db 0
0AAE6                           	sound_ret
0AAE6 FF                        	.db SOUND_RET_CMD
0AAE7                           
0AAE7                           MusicData_VisionaryCastle_Noise_1:
0AAE7                           	drum_envelope DR1, M1, S16
0AAE7 A2                        	.db NOTE_LENGTH_CMD | DR1 | M1 | S16
0AAE8                           	drum_note 3
0AAE8 03                        	.db 3
0AAE9                           	rest
0AAE9 00                        	.db 0
0AAEA                           	drum_note 3
0AAEA 03                        	.db 3
0AAEB                           	drum_note 3
0AAEB 03                        	.db 3
0AAEC                           	drum_note 3
0AAEC 03                        	.db 3
0AAED                           	rest
0AAED 00                        	.db 0
0AAEE                           	drum_note 3
0AAEE 03                        	.db 3
0AAEF                           	drum_note 3
0AAEF 03                        	.db 3
0AAF0                           	drum_note 3
0AAF0 03                        	.db 3
0AAF1                           	rest
0AAF1 00                        	.db 0
0AAF2                           	drum_note 3
0AAF2 03                        	.db 3
0AAF3                           	drum_note 3
0AAF3 03                        	.db 3
0AAF4                           	drum_note 3
0AAF4 03                        	.db 3
0AAF5                           	rest
0AAF5 00                        	.db 0
0AAF6                           	drum_note 3
0AAF6 03                        	.db 3
0AAF7                           	drum_note 3
0AAF7 03                        	.db 3
0AAF8                           	sound_ret
0AAF8 FF                        	.db SOUND_RET_CMD
0AAF9                           
0AAF9                           MusicData_VisionaryCastle_Noise_2:
0AAF9                           	drum_envelope DR1, M1, S16
0AAF9 A2                        	.db NOTE_LENGTH_CMD | DR1 | M1 | S16
0AAFA                           	drum_note 3
0AAFA 03                        	.db 3
0AAFB                           	rest
0AAFB 00                        	.db 0
0AAFC                           	drum_note 3
0AAFC 03                        	.db 3
0AAFD                           	drum_note 3
0AAFD 03                        	.db 3
0AAFE                           	drum_note 3
0AAFE 03                        	.db 3
0AAFF                           	rest
0AAFF 00                        	.db 0
0AB00                           	drum_note 3
0AB00 03                        	.db 3
0AB01                           	drum_note 3
0AB01 03                        	.db 3
0AB02                           	drum_envelope DR1, M1, S8
0AB02 A3                        	.db NOTE_LENGTH_CMD | DR1 | M1 | S8
0AB03                           	drum_note 3
0AB03 03                        	.db 3
0AB04                           	drum_note 3
0AB04 03                        	.db 3
0AB05                           	drum_note 3
0AB05 03                        	.db 3
0AB06                           	drum_note 3
0AB06 03                        	.db 3
0AB07                           	sound_ret
0AB07 FF                        	.db SOUND_RET_CMD
0AB08                           
0AB08                           MusicData_VisionaryCastle_Noise_3:
0AB08                           	drum_envelope DR1, M1, S16
0AB08 A2                        	.db NOTE_LENGTH_CMD | DR1 | M1 | S16
0AB09                           	drum_note 3
0AB09 03                        	.db 3
0AB0A                           	rest
0AB0A 00                        	.db 0
0AB0B                           	drum_note 3
0AB0B 03                        	.db 3
0AB0C                           	drum_note 3
0AB0C 03                        	.db 3
0AB0D                           	drum_note 3
0AB0D 03                        	.db 3
0AB0E                           	rest
0AB0E 00                        	.db 0
0AB0F                           	drum_note 3
0AB0F 03                        	.db 3
0AB10                           	drum_note 3
0AB10 03                        	.db 3
0AB11                           	drum_note 3
0AB11 03                        	.db 3
0AB12                           	rest
0AB12 00                        	.db 0
0AB13                           	drum_note 3
0AB13 03                        	.db 3
0AB14                           	rest
0AB14 00                        	.db 0
0AB15                           	drum_note 3
0AB15 03                        	.db 3
0AB16                           	drum_note 3
0AB16 03                        	.db 3
0AB17                           	drum_note 3
0AB17 03                        	.db 3
0AB18                           	drum_note 3
0AB18 03                        	.db 3
0AB19                           	sound_ret
0AB19 FF                        	.db SOUND_RET_CMD
0AB1A                           
0AB1A                           MusicData_VisionaryCastle_Noise_4:
0AB1A                           	drum_envelope DR1, M1, S16
0AB1A A2                        	.db NOTE_LENGTH_CMD | DR1 | M1 | S16
0AB1B                           	drum_note 3
0AB1B 03                        	.db 3
0AB1C                           	rest
0AB1C 00                        	.db 0
0AB1D                           	drum_note 3
0AB1D 03                        	.db 3
0AB1E                           	drum_note 3
0AB1E 03                        	.db 3
0AB1F                           	drum_note 3
0AB1F 03                        	.db 3
0AB20                           	rest
0AB20 00                        	.db 0
0AB21                           	drum_note 3
0AB21 03                        	.db 3
0AB22                           	drum_note 3
0AB22 03                        	.db 3
0AB23                           	drum_note 3
0AB23 03                        	.db 3
0AB24                           	rest
0AB24 00                        	.db 0
0AB25                           	drum_note 3
0AB25 03                        	.db 3
0AB26                           	drum_note 3
0AB26 03                        	.db 3
0AB27                           	drum_note 3
0AB27 03                        	.db 3
0AB28                           	drum_note 3
0AB28 03                        	.db 3
0AB29                           	drum_note 3
0AB29 03                        	.db 3
0AB2A                           	drum_note 3
0AB2A 03                        	.db 3
0AB2B                           	sound_ret
0AB2B FF                        	.db SOUND_RET_CMD
0AB2C                           
0AB2C                           MusicData_VisionaryCastle_Noise_5:
0AB2C                           	drum_envelope DR1, M1, S8
0AB2C A3                        	.db NOTE_LENGTH_CMD | DR1 | M1 | S8
0AB2D                           	drum_note 3
0AB2D 03                        	.db 3
0AB2E                           	drum_note 3
0AB2E 03                        	.db 3
0AB2F                           	drum_note 3
0AB2F 03                        	.db 3
0AB30                           	drum_note 3
0AB30 03                        	.db 3
0AB31                           	drum_envelope DR1, M1, S2
0AB31 A5                        	.db NOTE_LENGTH_CMD | DR1 | M1 | S2
0AB32                           	rest
0AB32 00                        	.db 0
0AB33                           	sound_ret
0AB33 FF                        	.db SOUND_RET_CMD
0AB34                           
0AB34                           MusicData_VisionaryCastle_FDS_1:
0AB34                           	instrument 9
0AB34 C9                        	.db INSTRUMENT_CMD | 9
0AB35                           	volume_const
0AB35 EF                        	.db FADE_CTRL_CMD + F_IN - 1
0AB36                           	note_length M1_5, S1
0AB36 8E                        	.db NOTE_LENGTH_CMD | M1_5 | S1
0AB37                           	rest
0AB37 00                        	.db 0
0AB38                           	note_length M1, S8
0AB38 83                        	.db NOTE_LENGTH_CMD | M1 | S8
0AB39                           	rest
0AB39 00                        	.db 0
0AB3A                           	note D#, 5
0AB3A 54                        	.db 5 << 4 | D#
0AB3B                           	note D#, 5
0AB3B 54                        	.db 5 << 4 | D#
0AB3C                           	note D#, 5
0AB3C 54                        	.db 5 << 4 | D#
0AB3D                           	sound_ret
0AB3D FF                        	.db SOUND_RET_CMD
0AB3E                           
0AB3E                           MusicData_VisionaryCastle_FDS_2:
0AB3E                           	instrument 7
0AB3E C7                        	.db INSTRUMENT_CMD | 7
0AB3F                           	volume_const
0AB3F EF                        	.db FADE_CTRL_CMD + F_IN - 1
0AB40                           	note_length M1, S16
0AB40 82                        	.db NOTE_LENGTH_CMD | M1 | S16
0AB41                           	note F_, 2
0AB41 26                        	.db 2 << 4 | F_
0AB42                           	tie
0AB42 0F                        	.db NOTE_MASK
0AB43                           	note F_, 2
0AB43 26                        	.db 2 << 4 | F_
0AB44                           	note F_, 2
0AB44 26                        	.db 2 << 4 | F_
0AB45                           	note F_, 2
0AB45 26                        	.db 2 << 4 | F_
0AB46                           	tie
0AB46 0F                        	.db NOTE_MASK
0AB47                           	note F_, 2
0AB47 26                        	.db 2 << 4 | F_
0AB48                           	note F_, 2
0AB48 26                        	.db 2 << 4 | F_
0AB49                           	note F_, 2
0AB49 26                        	.db 2 << 4 | F_
0AB4A                           	tie
0AB4A 0F                        	.db NOTE_MASK
0AB4B                           	note F_, 2
0AB4B 26                        	.db 2 << 4 | F_
0AB4C                           	note F_, 2
0AB4C 26                        	.db 2 << 4 | F_
0AB4D                           	note F_, 2
0AB4D 26                        	.db 2 << 4 | F_
0AB4E                           	tie
0AB4E 0F                        	.db NOTE_MASK
0AB4F                           	note F_, 2
0AB4F 26                        	.db 2 << 4 | F_
0AB50                           	note F_, 2
0AB50 26                        	.db 2 << 4 | F_
0AB51                           	sound_ret
0AB51 FF                        	.db SOUND_RET_CMD
0AB52                           
0AB52                           MusicData_VisionaryCastle_FDS_3:
0AB52                           	instrument 7
0AB52 C7                        	.db INSTRUMENT_CMD | 7
0AB53                           	volume_const
0AB53 EF                        	.db FADE_CTRL_CMD + F_IN - 1
0AB54                           	note_length M1, S16
0AB54 82                        	.db NOTE_LENGTH_CMD | M1 | S16
0AB55                           	note F_, 2
0AB55 26                        	.db 2 << 4 | F_
0AB56                           	tie
0AB56 0F                        	.db NOTE_MASK
0AB57                           	note F_, 2
0AB57 26                        	.db 2 << 4 | F_
0AB58                           	note F_, 2
0AB58 26                        	.db 2 << 4 | F_
0AB59                           	note F_, 2
0AB59 26                        	.db 2 << 4 | F_
0AB5A                           	tie
0AB5A 0F                        	.db NOTE_MASK
0AB5B                           	note F_, 2
0AB5B 26                        	.db 2 << 4 | F_
0AB5C                           	note F_, 2
0AB5C 26                        	.db 2 << 4 | F_
0AB5D                           	note F_, 2
0AB5D 26                        	.db 2 << 4 | F_
0AB5E                           	tie
0AB5E 0F                        	.db NOTE_MASK
0AB5F                           	instrument 9
0AB5F C9                        	.db INSTRUMENT_CMD | 9
0AB60                           	note D#, 5
0AB60 54                        	.db 5 << 4 | D#
0AB61                           	tie
0AB61 0F                        	.db NOTE_MASK
0AB62                           	note D#, 5
0AB62 54                        	.db 5 << 4 | D#
0AB63                           	note D#, 5
0AB63 54                        	.db 5 << 4 | D#
0AB64                           	note D#, 5
0AB64 54                        	.db 5 << 4 | D#
0AB65                           	note D#, 5
0AB65 54                        	.db 5 << 4 | D#
0AB66                           	sound_ret
0AB66 FF                        	.db SOUND_RET_CMD
0AB67                           
0AB67                           MusicData_VisionaryCastle_FDS_4:
0AB67                           	instrument 7
0AB67 C7                        	.db INSTRUMENT_CMD | 7
0AB68                           	volume_const
0AB68 EF                        	.db FADE_CTRL_CMD + F_IN - 1
0AB69                           	note_length M1, S8
0AB69 83                        	.db NOTE_LENGTH_CMD | M1 | S8
0AB6A                           	note F_, 2
0AB6A 26                        	.db 2 << 4 | F_
0AB6B                           	instrument 9
0AB6B C9                        	.db INSTRUMENT_CMD | 9
0AB6C                           	note D#, 5
0AB6C 54                        	.db 5 << 4 | D#
0AB6D                           	instrument 7
0AB6D C7                        	.db INSTRUMENT_CMD | 7
0AB6E                           	note F_, 2
0AB6E 26                        	.db 2 << 4 | F_
0AB6F                           	instrument 9
0AB6F C9                        	.db INSTRUMENT_CMD | 9
0AB70                           	note D#, 5
0AB70 54                        	.db 5 << 4 | D#
0AB71                           	instrument 7
0AB71 C7                        	.db INSTRUMENT_CMD | 7
0AB72                           	note F_, 2
0AB72 26                        	.db 2 << 4 | F_
0AB73                           	instrument 9
0AB73 C9                        	.db INSTRUMENT_CMD | 9
0AB74                           	note D#, 5
0AB74 54                        	.db 5 << 4 | D#
0AB75                           	instrument 7
0AB75 C7                        	.db INSTRUMENT_CMD | 7
0AB76                           	note F_, 2
0AB76 26                        	.db 2 << 4 | F_
0AB77                           	instrument 9
0AB77 C9                        	.db INSTRUMENT_CMD | 9
0AB78                           	note D#, 5
0AB78 54                        	.db 5 << 4 | D#
0AB79                           	sound_ret
0AB79 FF                        	.db SOUND_RET_CMD
0AB7A                           
0AB7A                           MusicData_VisionaryCastle_FDS_5:
0AB7A                           	instrument 7
0AB7A C7                        	.db INSTRUMENT_CMD | 7
0AB7B                           	volume_const
0AB7B EF                        	.db FADE_CTRL_CMD + F_IN - 1
0AB7C                           	note_length M1, S8
0AB7C 83                        	.db NOTE_LENGTH_CMD | M1 | S8
0AB7D                           	note F_, 2
0AB7D 26                        	.db 2 << 4 | F_
0AB7E                           	instrument 9
0AB7E C9                        	.db INSTRUMENT_CMD | 9
0AB7F                           	note D#, 5
0AB7F 54                        	.db 5 << 4 | D#
0AB80                           	instrument 7
0AB80 C7                        	.db INSTRUMENT_CMD | 7
0AB81                           	note F_, 2
0AB81 26                        	.db 2 << 4 | F_
0AB82                           	instrument 9
0AB82 C9                        	.db INSTRUMENT_CMD | 9
0AB83                           	note D#, 5
0AB83 54                        	.db 5 << 4 | D#
0AB84                           	instrument 7
0AB84 C7                        	.db INSTRUMENT_CMD | 7
0AB85                           	note F_, 2
0AB85 26                        	.db 2 << 4 | F_
0AB86                           	instrument 9
0AB86 C9                        	.db INSTRUMENT_CMD | 9
0AB87                           	note D#, 5
0AB87 54                        	.db 5 << 4 | D#
0AB88                           	note D#, 5
0AB88 54                        	.db 5 << 4 | D#
0AB89                           	note_length M1, S16
0AB89 82                        	.db NOTE_LENGTH_CMD | M1 | S16
0AB8A                           	note D#, 5
0AB8A 54                        	.db 5 << 4 | D#
0AB8B                           	note D#, 5
0AB8B 54                        	.db 5 << 4 | D#
0AB8C                           	sound_ret
0AB8C FF                        	.db SOUND_RET_CMD
0AB8D                           
0AB8D                           MusicData_VisionaryCastle_FDS_6:
0AB8D                           	instrument 7
0AB8D C7                        	.db INSTRUMENT_CMD | 7
0AB8E                           	volume_const
0AB8E EF                        	.db FADE_CTRL_CMD + F_IN - 1
0AB8F                           	note_length M1, S8
0AB8F 83                        	.db NOTE_LENGTH_CMD | M1 | S8
0AB90                           	note F_, 2
0AB90 26                        	.db 2 << 4 | F_
0AB91                           	instrument 9
0AB91 C9                        	.db INSTRUMENT_CMD | 9
0AB92                           	note D#, 5
0AB92 54                        	.db 5 << 4 | D#
0AB93                           	instrument 7
0AB93 C7                        	.db INSTRUMENT_CMD | 7
0AB94                           	note F_, 2
0AB94 26                        	.db 2 << 4 | F_
0AB95                           	instrument 9
0AB95 C9                        	.db INSTRUMENT_CMD | 9
0AB96                           	note D#, 5
0AB96 54                        	.db 5 << 4 | D#
0AB97                           	note D#, 5
0AB97 54                        	.db 5 << 4 | D#
0AB98                           	note_length M1, S16
0AB98 82                        	.db NOTE_LENGTH_CMD | M1 | S16
0AB99                           	note D#, 5
0AB99 54                        	.db 5 << 4 | D#
0AB9A                           	note D#, 5
0AB9A 54                        	.db 5 << 4 | D#
0AB9B                           	note D#, 5
0AB9B 54                        	.db 5 << 4 | D#
0AB9C                           	note D#, 5
0AB9C 54                        	.db 5 << 4 | D#
0AB9D                           	note D#, 5
0AB9D 54                        	.db 5 << 4 | D#
0AB9E                           	note D#, 5
0AB9E 54                        	.db 5 << 4 | D#
0AB9F                           	sound_ret
0AB9F FF                        	.db SOUND_RET_CMD
0ABA0                           
0ABA0                           MusicData_VisionaryCastle_FDS_7:
0ABA0                           	instrument 7
0ABA0 C7                        	.db INSTRUMENT_CMD | 7
0ABA1                           	volume_const
0ABA1 EF                        	.db FADE_CTRL_CMD + F_IN - 1
0ABA2                           	note_length M1, S4
0ABA2 84                        	.db NOTE_LENGTH_CMD | M1 | S4
0ABA3                           	note F_, 2
0ABA3 26                        	.db 2 << 4 | F_
0ABA4                           	note F_, 2
0ABA4 26                        	.db 2 << 4 | F_
0ABA5                           	instrument 9
0ABA5 C9                        	.db INSTRUMENT_CMD | 9
0ABA6                           	note_length M1, S8
0ABA6 83                        	.db NOTE_LENGTH_CMD | M1 | S8
0ABA7                           	note D#, 5
0ABA7 54                        	.db 5 << 4 | D#
0ABA8                           	note D#, 5
0ABA8 54                        	.db 5 << 4 | D#
0ABA9                           	note D#, 5
0ABA9 54                        	.db 5 << 4 | D#
0ABAA                           	note D#, 5
0ABAA 54                        	.db 5 << 4 | D#
0ABAB                           	sound_ret
0ABAB FF                        	.db SOUND_RET_CMD
0ABAC                           
0ABAC                           MusicData_VisionaryCastle_FDS_8:
0ABAC                           	instrument 7
0ABAC C7                        	.db INSTRUMENT_CMD | 7
0ABAD                           	volume_const
0ABAD EF                        	.db FADE_CTRL_CMD + F_IN - 1
0ABAE                           	note_length M1, S4
0ABAE 84                        	.db NOTE_LENGTH_CMD | M1 | S4
0ABAF                           	note F_, 2
0ABAF 26                        	.db 2 << 4 | F_
0ABB0                           	note F_, 2
0ABB0 26                        	.db 2 << 4 | F_
0ABB1                           	note F_, 2
0ABB1 26                        	.db 2 << 4 | F_
0ABB2                           	note F_, 2
0ABB2 26                        	.db 2 << 4 | F_
0ABB3                           	instrument 5
0ABB3 C5                        	.db INSTRUMENT_CMD | 5
0ABB4                           	note_length M1, S8
0ABB4 83                        	.db NOTE_LENGTH_CMD | M1 | S8
0ABB5                           	note E_, 4
0ABB5 45                        	.db 4 << 4 | E_
0ABB6                           	note E_, 4
0ABB6 45                        	.db 4 << 4 | E_
0ABB7                           	note E_, 4
0ABB7 45                        	.db 4 << 4 | E_
0ABB8                           	note E_, 4
0ABB8 45                        	.db 4 << 4 | E_
0ABB9                           	note_length M1, S2
0ABB9 85                        	.db NOTE_LENGTH_CMD | M1 | S2
0ABBA                           	rest
0ABBA 00                        	.db 0
0ABBB                           	sound_ret
0ABBB FF                        	.db SOUND_RET_CMD
0ABBC                           
0ABBC FF FF FF FF FF FF FF FF.. .pad $bf00, $ff
0BF00                           .include "src/nsf-home.asm"
0BF00                           PLAY:
0BF00 AA                        	TAX
0BF01 BD 0B BF                  	LDA NSFSongs, X
0BF04 BC 29 BF                  	LDY QueueOffsets, X
0BF07 99 00 06                  	STA iMusic1, Y
0BF0A 60                        	RTS
0BF0B                           
0BF0B                           NSFSongs:
0BF0B 01 02 04 08 10 20 40 80   	.db $01, $02, $04, $08, $10, $20, $40, $80 ; iMusic1
0BF13 01 02 04 08 10 20 40 80   	.db $01, $02, $04, $08, $10, $20, $40, $80 ; iMusic2
0BF1B 01 02 04                  	.db $01, $02, $04                          ; iMusic3
0BF1E 01 02 04 08 10 20 40      	.db $01, $02, $04, $08, $10, $20, $40      ; iFDSSFX
0BF25 01 02                     	.db $01, $02                               ; iDPCMSFX
0BF27 01 02                     	.db $01, $02                               ; iNoiseSFX
0BF29                           
0BF29                           QueueOffsets:
0BF29 00 00 00 00 00 00 00 00   	.db $00, $00, $00, $00, $00, $00, $00, $00
0BF31 01 01 01 01 01 01 01 01   	.db $01, $01, $01, $01, $01, $01, $01, $01
0BF39 02 02 02                  	.db $02, $02, $02
0BF3C 03 03 03 03 03 03 03      	.db $03, $03, $03, $03, $03, $03, $03
0BF43 04 04                     	.db $04, $04
0BF45 05 05                     	.db $05, $05
0BF47                           
0BF47 FF FF FF FF FF FF FF FF.. .pad $c000, $ff
0C000 00 AD 55 55 48 2B 50 25.. .incbin "src/dmc-fds.bin"